
c:/Users/user/Documents/Particle/projects/balneo/target/1.5.0/photon/balneo.elf:     file format elf32-littlearm

Sections:
Idx Name          Size      VMA       LMA       File off  Algn
  0 .module_info  00000018  080a0000  080a0000  00010000  2**2
                  CONTENTS, ALLOC, LOAD, READONLY, DATA
  1 .dynalib      00000004  080a0018  080a0018  00010018  2**2
                  CONTENTS, ALLOC, LOAD, READONLY, DATA
  2 .text         00005a80  080a0020  080a0020  00010020  2**3
                  CONTENTS, ALLOC, LOAD, READONLY, CODE
  3 .backup       00000004  40024000  080a5aa0  00024000  2**2
                  CONTENTS, ALLOC, LOAD, DATA
  4 .data         0000007c  20000000  080a5aa4  00030000  2**2
                  CONTENTS, ALLOC, LOAD, DATA
  5 .bss          000006d0  20000080  20000080  00040080  2**3
                  ALLOC
  6 .module_info_suffix 00000028  080a5b20  080a5b20  00035b20  2**0
                  CONTENTS, ALLOC, LOAD, READONLY, DATA
  7 .module_info_crc 00000004  080a5b48  080a5b48  00035b48  2**0
                  CONTENTS, ALLOC, LOAD, READONLY, DATA
  8 .debug_info   000f5245  00000000  00000000  00035b4c  2**0
                  CONTENTS, READONLY, DEBUGGING
  9 .debug_abbrev 000152b0  00000000  00000000  0012ad91  2**0
                  CONTENTS, READONLY, DEBUGGING
 10 .debug_loc    0001d244  00000000  00000000  00140041  2**0
                  CONTENTS, READONLY, DEBUGGING
 11 .debug_aranges 00002518  00000000  00000000  0015d285  2**0
                  CONTENTS, READONLY, DEBUGGING
 12 .debug_ranges 00003ff0  00000000  00000000  0015f79d  2**0
                  CONTENTS, READONLY, DEBUGGING
 13 .debug_macro  0002e1d2  00000000  00000000  0016378d  2**0
                  CONTENTS, READONLY, DEBUGGING
 14 .debug_line   00032af3  00000000  00000000  0019195f  2**0
                  CONTENTS, READONLY, DEBUGGING
 15 .debug_str    000b177e  00000000  00000000  001c4452  2**0
                  CONTENTS, READONLY, DEBUGGING
 16 .debug_frame  0000cf2c  00000000  00000000  00275bd0  2**2
                  CONTENTS, READONLY, DEBUGGING

Disassembly of section .text:

080a0020 <module_user_pre_init>:
/**
 * Initializes this user module. Returns the start of the heap.
 */
void* module_user_pre_init() {

    if ( (&link_global_data_start!=&link_global_data_initial_values) && (link_global_data_size != 0))
 80a0020:	4809      	ldr	r0, [pc, #36]	; (80a0048 <module_user_pre_init+0x28>)
 80a0022:	490a      	ldr	r1, [pc, #40]	; (80a004c <module_user_pre_init+0x2c>)
extern constructor_ptr_t link_constructors_end;

/**
 * Initializes this user module. Returns the start of the heap.
 */
void* module_user_pre_init() {
 80a0024:	b508      	push	{r3, lr}

    if ( (&link_global_data_start!=&link_global_data_initial_values) && (link_global_data_size != 0))
 80a0026:	4288      	cmp	r0, r1
 80a0028:	d005      	beq.n	80a0036 <module_user_pre_init+0x16>
 80a002a:	4a09      	ldr	r2, [pc, #36]	; (80a0050 <module_user_pre_init+0x30>)
 80a002c:	4282      	cmp	r2, r0
 80a002e:	d002      	beq.n	80a0036 <module_user_pre_init+0x16>
    {
        memcpy(&link_global_data_start, &link_global_data_initial_values, link_global_data_size);
 80a0030:	1a12      	subs	r2, r2, r0
 80a0032:	f004 fd6b 	bl	80a4b0c <memcpy>
    }

    memset(&link_bss_location, 0, link_bss_size );
 80a0036:	4807      	ldr	r0, [pc, #28]	; (80a0054 <module_user_pre_init+0x34>)
 80a0038:	4a07      	ldr	r2, [pc, #28]	; (80a0058 <module_user_pre_init+0x38>)
 80a003a:	2100      	movs	r1, #0
 80a003c:	1a12      	subs	r2, r2, r0
 80a003e:	f004 fd70 	bl	80a4b22 <memset>
    return &link_heap_start;
}
 80a0042:	4806      	ldr	r0, [pc, #24]	; (80a005c <module_user_pre_init+0x3c>)
 80a0044:	bd08      	pop	{r3, pc}
 80a0046:	bf00      	nop
 80a0048:	20000000 	.word	0x20000000
 80a004c:	080a5aa4 	.word	0x080a5aa4
 80a0050:	2000007c 	.word	0x2000007c
 80a0054:	20000080 	.word	0x20000080
 80a0058:	20000750 	.word	0x20000750
 80a005c:	20000750 	.word	0x20000750

080a0060 <module_user_init>:
extern constructor_ptr_t link_constructors_location[];
extern constructor_ptr_t link_constructors_end;
#define link_constructors_size   ((unsigned long)&link_constructors_end  -  (unsigned long)&link_constructors_location )

void module_user_init()
{
 80a0060:	b570      	push	{r4, r5, r6, lr}
    module_user_init_hook();
 80a0062:	f002 fe73 	bl	80a2d4c <module_user_init_hook>
 80a0066:	4b07      	ldr	r3, [pc, #28]	; (80a0084 <module_user_init+0x24>)
 80a0068:	4c07      	ldr	r4, [pc, #28]	; (80a0088 <module_user_init+0x28>)
 80a006a:	461e      	mov	r6, r3
 80a006c:	1ae4      	subs	r4, r4, r3
 80a006e:	08a4      	lsrs	r4, r4, #2

    // invoke constructors
    int ctor_num;
    for (ctor_num=0; ctor_num < link_constructors_size/sizeof(constructor_ptr_t); ctor_num++ )
 80a0070:	2500      	movs	r5, #0
 80a0072:	42a5      	cmp	r5, r4
 80a0074:	d004      	beq.n	80a0080 <module_user_init+0x20>
    {
        link_constructors_location[ctor_num]();
 80a0076:	f856 3025 	ldr.w	r3, [r6, r5, lsl #2]
 80a007a:	4798      	blx	r3
{
    module_user_init_hook();

    // invoke constructors
    int ctor_num;
    for (ctor_num=0; ctor_num < link_constructors_size/sizeof(constructor_ptr_t); ctor_num++ )
 80a007c:	3501      	adds	r5, #1
 80a007e:	e7f8      	b.n	80a0072 <module_user_init+0x12>
    {
        link_constructors_location[ctor_num]();
    }
}
 80a0080:	bd70      	pop	{r4, r5, r6, pc}
 80a0082:	bf00      	nop
 80a0084:	080a5a58 	.word	0x080a5a58
 80a0088:	080a5aa0 	.word	0x080a5aa0

080a008c <module_user_setup>:

/**
 * Export these functions with a fuller name so they don't clash with the setup/loop wrappers in the system module.
 */
void module_user_setup() {
    setup();
 80a008c:	f000 b9d4 	b.w	80a0438 <setup>

080a0090 <module_user_loop>:
}

void module_user_loop() {
 80a0090:	b508      	push	{r3, lr}
    loop();
 80a0092:	f000 fad5 	bl	80a0640 <loop>
    _post_loop();
}
 80a0096:	e8bd 4008 	ldmia.w	sp!, {r3, lr}
    setup();
}

void module_user_loop() {
    loop();
    _post_loop();
 80a009a:	f002 be19 	b.w	80a2cd0 <_post_loop>

080a009e <_Znwj>:
 80a009e:	f002 bafd 	b.w	80a269c <malloc>

080a00a2 <_ZdlPv>:
 80a00a2:	f002 bb03 	b.w	80a26ac <free>
	...

080a00a8 <__cxa_pure_virtual>:
char* strerror(int errnum) {
    return (char*)"";
}

/* Default implementation for call made to pure virtual function. */
void __cxa_pure_virtual() {
 80a00a8:	b508      	push	{r3, lr}
  PANIC(PureVirtualCall,"Call on pure virtual");
 80a00aa:	4a03      	ldr	r2, [pc, #12]	; (80a00b8 <__cxa_pure_virtual+0x10>)
 80a00ac:	2100      	movs	r1, #0
 80a00ae:	200c      	movs	r0, #12
 80a00b0:	f002 fa38 	bl	80a2524 <panic_>
 80a00b4:	e7fe      	b.n	80a00b4 <__cxa_pure_virtual+0xc>
 80a00b6:	bf00      	nop
 80a00b8:	080a22d1 	.word	0x080a22d1

080a00bc <__cxa_guard_acquire>:

/* Provide default implemenation for __cxa_guard_acquire() and
 * __cxa_guard_release(). Note: these must be revisited if a multitasking
 * OS is ported to this platform. */
__extension__ typedef int __guard __attribute__((mode (__DI__)));
int __cxa_guard_acquire(__guard *g) {return !*(char *)(g);};
 80a00bc:	7800      	ldrb	r0, [r0, #0]
 80a00be:	fab0 f080 	clz	r0, r0
 80a00c2:	0940      	lsrs	r0, r0, #5
 80a00c4:	4770      	bx	lr

080a00c6 <__cxa_guard_release>:
void __cxa_guard_release (__guard *g) {*(char *)g = 1;};
 80a00c6:	2301      	movs	r3, #1
 80a00c8:	7003      	strb	r3, [r0, #0]
 80a00ca:	4770      	bx	lr

080a00cc <_ZN21MHZ19BCO2SensorSerialI11USARTSerialED1Ev>:
   */
  MHZ19BCO2SensorSerial(MHZ19UARTSerial& serial) : m_serial(serial) {
    m_serial.template begin(9600,SERIAL_8N1);
  }

  ~MHZ19BCO2SensorSerial() {
 80a00cc:	b510      	push	{r4, lr}
 80a00ce:	4604      	mov	r4, r0
    m_serial.template end();
 80a00d0:	6800      	ldr	r0, [r0, #0]
 80a00d2:	f003 fb3b 	bl	80a374c <_ZN11USARTSerial3endEv>
  }
 80a00d6:	4620      	mov	r0, r4
 80a00d8:	bd10      	pop	{r4, pc}

080a00da <_ZN10CloudClass7publishEPKcS1_N8particle5FlagsI15PublishFlagTypehEES5_.isra.7.constprop.10>:
    inline particle::Future<bool> publish(const char *eventName, PublishFlags flags1, PublishFlags flags2 = PublishFlags())
    {
        return publish(eventName, NULL, flags1, flags2);
    }

    inline particle::Future<bool> publish(const char *eventName, const char *eventData, PublishFlags flags1, PublishFlags flags2 = PublishFlags())
 80a00da:	b537      	push	{r0, r1, r2, r4, r5, lr}
 80a00dc:	4605      	mov	r5, r0
 80a00de:	f89d 4018 	ldrb.w	r4, [sp, #24]
 80a00e2:	4323      	orrs	r3, r4
        return publish(eventName, eventData, DEFAULT_CLOUD_EVENT_TTL, flags1, flags2);
    }

    inline particle::Future<bool> publish(const char *eventName, const char *eventData, int ttl, PublishFlags flags1, PublishFlags flags2 = PublishFlags())
    {
        return publish_event(eventName, eventData, ttl, flags1 | flags2);
 80a00e4:	f88d 3000 	strb.w	r3, [sp]
 80a00e8:	233c      	movs	r3, #60	; 0x3c
 80a00ea:	f002 ff9d 	bl	80a3028 <_ZN10CloudClass13publish_eventEPKcS1_iN8particle5FlagsI15PublishFlagTypehEE>
    }

    inline particle::Future<bool> publish(const char *eventName, const char *eventData, PublishFlags flags1, PublishFlags flags2 = PublishFlags())
    {
        return publish(eventName, eventData, DEFAULT_CLOUD_EVENT_TTL, flags1, flags2);
    }
 80a00ee:	4628      	mov	r0, r5
 80a00f0:	b003      	add	sp, #12
 80a00f2:	bd30      	pop	{r4, r5, pc}

080a00f4 <_Z7arrondif>:
    fadingLed(HIGH, LOW, HIGH);
  }
}

double arrondi(float data)
{
 80a00f4:	b508      	push	{r3, lr}
  return (double)((int)(data * pow(10, 2) + .5)) / pow(10, 2);
 80a00f6:	f004 f851 	bl	80a419c <__aeabi_f2d>
 80a00fa:	2200      	movs	r2, #0
 80a00fc:	4b07      	ldr	r3, [pc, #28]	; (80a011c <_Z7arrondif+0x28>)
 80a00fe:	f004 f8a1 	bl	80a4244 <__aeabi_dmul>
 80a0102:	2200      	movs	r2, #0
 80a0104:	4b06      	ldr	r3, [pc, #24]	; (80a0120 <_Z7arrondif+0x2c>)
 80a0106:	f003 feeb 	bl	80a3ee0 <__adddf3>
 80a010a:	f004 fb4b 	bl	80a47a4 <__aeabi_d2iz>
 80a010e:	f004 f833 	bl	80a4178 <__aeabi_i2d>
 80a0112:	2200      	movs	r2, #0
 80a0114:	4b01      	ldr	r3, [pc, #4]	; (80a011c <_Z7arrondif+0x28>)
 80a0116:	f004 f9bf 	bl	80a4498 <__aeabi_ddiv>
}
 80a011a:	bd08      	pop	{r3, pc}
 80a011c:	40590000 	.word	0x40590000
 80a0120:	3fe00000 	.word	0x3fe00000

080a0124 <_Z14getTemperaturev>:

double getTemperature()
{
 80a0124:	b538      	push	{r3, r4, r5, lr}
  // Get Temperature
  float readings = dht.readTemperature();
 80a0126:	4809      	ldr	r0, [pc, #36]	; (80a014c <_Z14getTemperaturev+0x28>)
 80a0128:	f002 f834 	bl	80a2194 <_ZN14PietteTech_DHT15readTemperatureEv>
  double result = arrondi(readings);
 80a012c:	f7ff ffe2 	bl	80a00f4 <_Z7arrondif>
  if (isnan(result))
 80a0130:	4602      	mov	r2, r0
 80a0132:	460b      	mov	r3, r1

double getTemperature()
{
  // Get Temperature
  float readings = dht.readTemperature();
  double result = arrondi(readings);
 80a0134:	4604      	mov	r4, r0
 80a0136:	460d      	mov	r5, r1
  if (isnan(result))
 80a0138:	f004 fb1e 	bl	80a4778 <__aeabi_dcmpun>
 80a013c:	b910      	cbnz	r0, 80a0144 <_Z14getTemperaturev+0x20>
  {
    return -1;
  }
  else
  {
    return result;
 80a013e:	4620      	mov	r0, r4
 80a0140:	4629      	mov	r1, r5
 80a0142:	bd38      	pop	{r3, r4, r5, pc}
  // Get Temperature
  float readings = dht.readTemperature();
  double result = arrondi(readings);
  if (isnan(result))
  {
    return -1;
 80a0144:	2000      	movs	r0, #0
 80a0146:	4902      	ldr	r1, [pc, #8]	; (80a0150 <_Z14getTemperaturev+0x2c>)
  }
  else
  {
    return result;
  }
}
 80a0148:	bd38      	pop	{r3, r4, r5, pc}
 80a014a:	bf00      	nop
 80a014c:	20000108 	.word	0x20000108
 80a0150:	bff00000 	.word	0xbff00000

080a0154 <_Z11getHumidityv>:

double getHumidity()
{
 80a0154:	b538      	push	{r3, r4, r5, lr}
  // Get Humidity
  float readings = dht.readHumidity();
 80a0156:	4809      	ldr	r0, [pc, #36]	; (80a017c <_Z11getHumidityv+0x28>)
 80a0158:	f002 f826 	bl	80a21a8 <_ZN14PietteTech_DHT12readHumidityEv>
  double result = arrondi(readings);
 80a015c:	f7ff ffca 	bl	80a00f4 <_Z7arrondif>
  if (isnan(result))
 80a0160:	4602      	mov	r2, r0
 80a0162:	460b      	mov	r3, r1

double getHumidity()
{
  // Get Humidity
  float readings = dht.readHumidity();
  double result = arrondi(readings);
 80a0164:	4604      	mov	r4, r0
 80a0166:	460d      	mov	r5, r1
  if (isnan(result))
 80a0168:	f004 fb06 	bl	80a4778 <__aeabi_dcmpun>
 80a016c:	b910      	cbnz	r0, 80a0174 <_Z11getHumidityv+0x20>
  {
    return -1;
  }
  else
  {
    return result;
 80a016e:	4620      	mov	r0, r4
 80a0170:	4629      	mov	r1, r5
 80a0172:	bd38      	pop	{r3, r4, r5, pc}
  // Get Humidity
  float readings = dht.readHumidity();
  double result = arrondi(readings);
  if (isnan(result))
  {
    return -1;
 80a0174:	2000      	movs	r0, #0
 80a0176:	4902      	ldr	r1, [pc, #8]	; (80a0180 <_Z11getHumidityv+0x2c>)
  }
  else
  {
    return result;
  }
}
 80a0178:	bd38      	pop	{r3, r4, r5, pc}
 80a017a:	bf00      	nop
 80a017c:	20000108 	.word	0x20000108
 80a0180:	bff00000 	.word	0xbff00000

080a0184 <_Z12blinkLedTestv>:
  int readings = mhz19b.Read();
  return readings;
}

void blinkLedTest()
{
 80a0184:	b5f8      	push	{r3, r4, r5, r6, r7, lr}
  int ledState = LOW;
  int coutdown = 20;
  int prevMillis = 0;
 80a0186:	2400      	movs	r4, #0
  return readings;
}

void blinkLedTest()
{
  int ledState = LOW;
 80a0188:	4626      	mov	r6, r4
  int coutdown = 20;
 80a018a:	2514      	movs	r5, #20
  int prevMillis = 0;
  while (coutdown != 0)
 80a018c:	b1c5      	cbz	r5, 80a01c0 <_Z12blinkLedTestv+0x3c>

#ifdef __cplusplus
extern "C" {
#endif

inline system_tick_t millis(void) { return HAL_Timer_Get_Milli_Seconds(); }
 80a018e:	f002 f8af 	bl	80a22f0 <HAL_Timer_Get_Milli_Seconds>
  {
    int curMillis = millis();
    if (curMillis - prevMillis >= 500)
 80a0192:	1b03      	subs	r3, r0, r4
 80a0194:	f5b3 7ffa 	cmp.w	r3, #500	; 0x1f4
 80a0198:	4607      	mov	r7, r0
 80a019a:	dbf7      	blt.n	80a018c <_Z12blinkLedTestv+0x8>
 80a019c:	f086 0601 	eor.w	r6, r6, #1
      }
      else
      {
        ledState = LOW;
      }
      digitalWrite(redpin, ledState);
 80a01a0:	b2f4      	uxtb	r4, r6
 80a01a2:	4621      	mov	r1, r4
 80a01a4:	2002      	movs	r0, #2
 80a01a6:	f003 fc5e 	bl	80a3a66 <digitalWrite>
      digitalWrite(greenpin, ledState);
 80a01aa:	4621      	mov	r1, r4
 80a01ac:	2005      	movs	r0, #5
 80a01ae:	f003 fc5a 	bl	80a3a66 <digitalWrite>
      digitalWrite(bluepin, ledState);
 80a01b2:	4621      	mov	r1, r4
 80a01b4:	2004      	movs	r0, #4
 80a01b6:	f003 fc56 	bl	80a3a66 <digitalWrite>
      coutdown--;
 80a01ba:	3d01      	subs	r5, #1
  int ledState = LOW;
  int coutdown = 20;
  int prevMillis = 0;
  while (coutdown != 0)
  {
    int curMillis = millis();
 80a01bc:	463c      	mov	r4, r7
 80a01be:	e7e5      	b.n	80a018c <_Z12blinkLedTestv+0x8>
 80a01c0:	bdf8      	pop	{r3, r4, r5, r6, r7, pc}
	...

080a01c4 <_Z11displayTempf>:
    }
  }
}

void displayTemp(float temp)
{
 80a01c4:	b570      	push	{r4, r5, r6, lr}
 80a01c6:	4606      	mov	r6, r0
  int currentTime = 0;
  int prevTime;
  int tensecs = 10000;
  display.clearDisplay();
 80a01c8:	4c17      	ldr	r4, [pc, #92]	; (80a0228 <_Z11displayTempf+0x64>)
    @brief  Set text cursor location
    @param  x    X coordinate in pixels
    @param  y    Y coordinate in pixels
  */
  /**********************************************************************/
  void setCursor(int16_t x, int16_t y) { cursor_x = x; cursor_y = y; }
 80a01ca:	2500      	movs	r5, #0
 80a01cc:	4620      	mov	r0, r4
 80a01ce:	f001 fa96 	bl	80a16fe <_ZN16Adafruit_SSD130612clearDisplayEv>

  display.setTextSize(1);
 80a01d2:	4620      	mov	r0, r4
 80a01d4:	2101      	movs	r1, #1
 80a01d6:	f001 f8c7 	bl	80a1368 <_ZN12Adafruit_GFX11setTextSizeEh>
    @param   c   16-bit 5-6-5 Color to draw text with
    @note    For 'transparent' background, background and foreground
             are set to same color rather than using a separate flag.
  */
  /**********************************************************************/
  void setTextColor(uint16_t c) { textcolor = textbgcolor = c; }
 80a01da:	2301      	movs	r3, #1
 80a01dc:	82e3      	strh	r3, [r4, #22]
 80a01de:	82a3      	strh	r3, [r4, #20]
    @brief  Set text cursor location
    @param  x    X coordinate in pixels
    @param  y    Y coordinate in pixels
  */
  /**********************************************************************/
  void setCursor(int16_t x, int16_t y) { cursor_x = x; cursor_y = y; }
 80a01e0:	8225      	strh	r5, [r4, #16]
 80a01e2:	8265      	strh	r5, [r4, #18]
  display.setTextColor(WHITE);
  display.setCursor(0, 0);
  display.println(F("Temperature : "));
 80a01e4:	4911      	ldr	r1, [pc, #68]	; (80a022c <_Z11displayTempf+0x68>)
 80a01e6:	4620      	mov	r0, r4
 80a01e8:	f002 fbcd 	bl	80a2986 <_ZN5Print7printlnEPK19__FlashStringHelper>
  display.setTextSize(3);
 80a01ec:	4620      	mov	r0, r4
 80a01ee:	2103      	movs	r1, #3
 80a01f0:	f001 f8ba 	bl	80a1368 <_ZN12Adafruit_GFX11setTextSizeEh>
  display.print(temp);
 80a01f4:	2202      	movs	r2, #2
 80a01f6:	4631      	mov	r1, r6
 80a01f8:	4620      	mov	r0, r4
 80a01fa:	f002 fc9f 	bl	80a2b3c <_ZN5Print5printEfi>
  display.println(F(" C"));
 80a01fe:	490c      	ldr	r1, [pc, #48]	; (80a0230 <_Z11displayTempf+0x6c>)
 80a0200:	4620      	mov	r0, r4
 80a0202:	f002 fbc0 	bl	80a2986 <_ZN5Print7printlnEPK19__FlashStringHelper>
  display.display();
 80a0206:	4620      	mov	r0, r4
 80a0208:	f001 fcf6 	bl	80a1bf8 <_ZN16Adafruit_SSD13067displayEv>
 80a020c:	f002 f870 	bl	80a22f0 <HAL_Timer_Get_Milli_Seconds>
 80a0210:	4604      	mov	r4, r0
  }
}

void displayTemp(float temp)
{
  int currentTime = 0;
 80a0212:	4628      	mov	r0, r5
  display.setTextSize(3);
  display.print(temp);
  display.println(F(" C"));
  display.display();
  prevTime = millis();
  while (currentTime - prevTime < tensecs)
 80a0214:	f242 750f 	movw	r5, #9999	; 0x270f
 80a0218:	1b00      	subs	r0, r0, r4
 80a021a:	42a8      	cmp	r0, r5
 80a021c:	dc02      	bgt.n	80a0224 <_Z11displayTempf+0x60>
 80a021e:	f002 f867 	bl	80a22f0 <HAL_Timer_Get_Milli_Seconds>
 80a0222:	e7f9      	b.n	80a0218 <_Z11displayTempf+0x54>
 80a0224:	bd70      	pop	{r4, r5, r6, pc}
 80a0226:	bf00      	nop
 80a0228:	20000090 	.word	0x20000090
 80a022c:	080a4be9 	.word	0x080a4be9
 80a0230:	080a4bf8 	.word	0x080a4bf8

080a0234 <_Z10displayCo2i>:
    currentTime = millis();
  }
}

void displayCo2(int ppm)
{
 80a0234:	b538      	push	{r3, r4, r5, lr}
 80a0236:	4605      	mov	r5, r0
  int currentTime = 0;
  int prevTime;
  int tensecs = 10000;
  display.clearDisplay();
 80a0238:	4c1b      	ldr	r4, [pc, #108]	; (80a02a8 <_Z10displayCo2i+0x74>)
 80a023a:	4620      	mov	r0, r4
 80a023c:	f001 fa5f 	bl	80a16fe <_ZN16Adafruit_SSD130612clearDisplayEv>

  display.setTextSize(1);
 80a0240:	2101      	movs	r1, #1
 80a0242:	4620      	mov	r0, r4
 80a0244:	f001 f890 	bl	80a1368 <_ZN12Adafruit_GFX11setTextSizeEh>
    @param   c   16-bit 5-6-5 Color to draw text with
    @note    For 'transparent' background, background and foreground
             are set to same color rather than using a separate flag.
  */
  /**********************************************************************/
  void setTextColor(uint16_t c) { textcolor = textbgcolor = c; }
 80a0248:	2301      	movs	r3, #1
 80a024a:	82e3      	strh	r3, [r4, #22]
 80a024c:	82a3      	strh	r3, [r4, #20]
    @brief  Set text cursor location
    @param  x    X coordinate in pixels
    @param  y    Y coordinate in pixels
  */
  /**********************************************************************/
  void setCursor(int16_t x, int16_t y) { cursor_x = x; cursor_y = y; }
 80a024e:	2300      	movs	r3, #0
 80a0250:	8223      	strh	r3, [r4, #16]
 80a0252:	8263      	strh	r3, [r4, #18]
  display.setTextColor(WHITE);
  display.setCursor(0, 0);
  display.println(F("CO2 : "));
 80a0254:	4915      	ldr	r1, [pc, #84]	; (80a02ac <_Z10displayCo2i+0x78>)
 80a0256:	4620      	mov	r0, r4
 80a0258:	f002 fb95 	bl	80a2986 <_ZN5Print7printlnEPK19__FlashStringHelper>
  display.setTextSize(3);
 80a025c:	2103      	movs	r1, #3
 80a025e:	4620      	mov	r0, r4
 80a0260:	f001 f882 	bl	80a1368 <_ZN12Adafruit_GFX11setTextSizeEh>
        return write(n);
    } else {
        size_t t = 0;
        using PrintNumberType = typename PrintNumberTypeSelector<T>::type;
        PrintNumberType val;
        if (n < 0 && base == 10) {
 80a0264:	2d00      	cmp	r5, #0
 80a0266:	da05      	bge.n	80a0274 <_Z10displayCo2i+0x40>
            t = print('-');
 80a0268:	212d      	movs	r1, #45	; 0x2d
 80a026a:	4620      	mov	r0, r4
 80a026c:	f002 fb72 	bl	80a2954 <_ZN5Print5printEc>
            val = -n;
 80a0270:	4269      	negs	r1, r5
 80a0272:	e000      	b.n	80a0276 <_Z10displayCo2i+0x42>
        } else {
            val = n;
 80a0274:	4629      	mov	r1, r5
        }
        return printNumber(val, base) + t;
 80a0276:	220a      	movs	r2, #10
 80a0278:	480b      	ldr	r0, [pc, #44]	; (80a02a8 <_Z10displayCo2i+0x74>)
 80a027a:	f002 fb86 	bl	80a298a <_ZN5Print11printNumberEmh>
  display.print(ppm);
  display.println(F("ppm"));
 80a027e:	490c      	ldr	r1, [pc, #48]	; (80a02b0 <_Z10displayCo2i+0x7c>)
 80a0280:	4809      	ldr	r0, [pc, #36]	; (80a02a8 <_Z10displayCo2i+0x74>)
 80a0282:	f002 fb80 	bl	80a2986 <_ZN5Print7printlnEPK19__FlashStringHelper>
  display.display();
 80a0286:	4808      	ldr	r0, [pc, #32]	; (80a02a8 <_Z10displayCo2i+0x74>)
 80a0288:	f001 fcb6 	bl	80a1bf8 <_ZN16Adafruit_SSD13067displayEv>
 80a028c:	f002 f830 	bl	80a22f0 <HAL_Timer_Get_Milli_Seconds>
  prevTime = millis();
  while (currentTime - prevTime < tensecs)
 80a0290:	f242 750f 	movw	r5, #9999	; 0x270f
 80a0294:	4604      	mov	r4, r0
  }
}

void displayCo2(int ppm)
{
  int currentTime = 0;
 80a0296:	2000      	movs	r0, #0
  display.setTextSize(3);
  display.print(ppm);
  display.println(F("ppm"));
  display.display();
  prevTime = millis();
  while (currentTime - prevTime < tensecs)
 80a0298:	1b00      	subs	r0, r0, r4
 80a029a:	42a8      	cmp	r0, r5
 80a029c:	dc02      	bgt.n	80a02a4 <_Z10displayCo2i+0x70>
 80a029e:	f002 f827 	bl	80a22f0 <HAL_Timer_Get_Milli_Seconds>
 80a02a2:	e7f9      	b.n	80a0298 <_Z10displayCo2i+0x64>
 80a02a4:	bd38      	pop	{r3, r4, r5, pc}
 80a02a6:	bf00      	nop
 80a02a8:	20000090 	.word	0x20000090
 80a02ac:	080a4bfb 	.word	0x080a4bfb
 80a02b0:	080a4c02 	.word	0x080a4c02

080a02b4 <_Z9fadingLediii>:
    currentTime = millis();
  }
}

void fadingLed(int Led1, int Led2, int Led3)
{
 80a02b4:	e92d 43f8 	stmdb	sp!, {r3, r4, r5, r6, r7, r8, r9, lr}
  int i;
  int i1;
  int i2;
  int i3;
  int currentTime = 0;
 80a02b8:	2700      	movs	r7, #0
    currentTime = millis();
  }
}

void fadingLed(int Led1, int Led2, int Led3)
{
 80a02ba:	4680      	mov	r8, r0
 80a02bc:	460d      	mov	r5, r1
 80a02be:	4616      	mov	r6, r2
  int i3;
  int currentTime = 0;
  int prevTime;
  int twentymillis = 20;

  for (i = 0; i < 255; i += 5)
 80a02c0:	463c      	mov	r4, r7
  {
    if (Led1 == HIGH)
 80a02c2:	f1b8 0f01 	cmp.w	r8, #1
 80a02c6:	d104      	bne.n	80a02d2 <_Z9fadingLediii+0x1e>
    {
      i1 = i;
      analogWrite(redpin, i1);
 80a02c8:	4621      	mov	r1, r4
 80a02ca:	2002      	movs	r0, #2
 80a02cc:	f003 fbf7 	bl	80a3abe <_Z11analogWritetm>
 80a02d0:	e003      	b.n	80a02da <_Z9fadingLediii+0x26>
    }
    else
    {
      digitalWrite(redpin, LOW);
 80a02d2:	2100      	movs	r1, #0
 80a02d4:	2002      	movs	r0, #2
 80a02d6:	f003 fbc6 	bl	80a3a66 <digitalWrite>
    }
    if (Led2 == HIGH)
 80a02da:	2d01      	cmp	r5, #1
    {
      digitalWrite(bluepin, HIGH);
 80a02dc:	bf0c      	ite	eq
 80a02de:	4629      	moveq	r1, r5
    }
    else
    {
      digitalWrite(bluepin, LOW);
 80a02e0:	2100      	movne	r1, #0
 80a02e2:	2004      	movs	r0, #4
 80a02e4:	f003 fbbf 	bl	80a3a66 <digitalWrite>
    }
    if (Led3 == HIGH)
 80a02e8:	2e01      	cmp	r6, #1
    {
      digitalWrite(greenpin, HIGH);
 80a02ea:	bf0c      	ite	eq
 80a02ec:	4631      	moveq	r1, r6
    }
    else
    {
      digitalWrite(greenpin, LOW);
 80a02ee:	2100      	movne	r1, #0
 80a02f0:	2005      	movs	r0, #5
 80a02f2:	f003 fbb8 	bl	80a3a66 <digitalWrite>
 80a02f6:	f001 fffb 	bl	80a22f0 <HAL_Timer_Get_Milli_Seconds>
 80a02fa:	4681      	mov	r9, r0
    }
    prevTime = millis();
    while (currentTime - prevTime < twentymillis)
 80a02fc:	ebc9 0307 	rsb	r3, r9, r7
 80a0300:	2b13      	cmp	r3, #19
 80a0302:	dc03      	bgt.n	80a030c <_Z9fadingLediii+0x58>
 80a0304:	f001 fff4 	bl	80a22f0 <HAL_Timer_Get_Milli_Seconds>
 80a0308:	4607      	mov	r7, r0
 80a030a:	e7f7      	b.n	80a02fc <_Z9fadingLediii+0x48>
  int i3;
  int currentTime = 0;
  int prevTime;
  int twentymillis = 20;

  for (i = 0; i < 255; i += 5)
 80a030c:	3405      	adds	r4, #5
 80a030e:	2cff      	cmp	r4, #255	; 0xff
 80a0310:	d1d7      	bne.n	80a02c2 <_Z9fadingLediii+0xe>
 80a0312:	2700      	movs	r7, #0
    }
  }
  currentTime = 0;
  for (i = 255; i > 0; i -= 5)
  {
    if (Led1 == HIGH)
 80a0314:	f1b8 0f01 	cmp.w	r8, #1
 80a0318:	d104      	bne.n	80a0324 <_Z9fadingLediii+0x70>
    {
      i1 = i;
      analogWrite(redpin, i1);
 80a031a:	4621      	mov	r1, r4
 80a031c:	2002      	movs	r0, #2
 80a031e:	f003 fbce 	bl	80a3abe <_Z11analogWritetm>
 80a0322:	e003      	b.n	80a032c <_Z9fadingLediii+0x78>
    }
    else
    {
      digitalWrite(redpin, LOW);
 80a0324:	2100      	movs	r1, #0
 80a0326:	2002      	movs	r0, #2
 80a0328:	f003 fb9d 	bl	80a3a66 <digitalWrite>
    }
    if (Led2 == HIGH)
 80a032c:	2d01      	cmp	r5, #1
    {
      digitalWrite(bluepin, HIGH);
 80a032e:	bf0c      	ite	eq
 80a0330:	4629      	moveq	r1, r5
    }
    else
    {
      digitalWrite(bluepin, LOW);
 80a0332:	2100      	movne	r1, #0
 80a0334:	2004      	movs	r0, #4
 80a0336:	f003 fb96 	bl	80a3a66 <digitalWrite>
    }
    if (Led3 == HIGH)
 80a033a:	2e01      	cmp	r6, #1
    {
      digitalWrite(greenpin, HIGH);
 80a033c:	bf0c      	ite	eq
 80a033e:	4631      	moveq	r1, r6
    }
    else
    {
      digitalWrite(greenpin, LOW);
 80a0340:	2100      	movne	r1, #0
 80a0342:	2005      	movs	r0, #5
 80a0344:	f003 fb8f 	bl	80a3a66 <digitalWrite>
 80a0348:	f001 ffd2 	bl	80a22f0 <HAL_Timer_Get_Milli_Seconds>
 80a034c:	4681      	mov	r9, r0
    }
    prevTime = millis();
    while (currentTime - prevTime < twentymillis)
 80a034e:	ebc9 0307 	rsb	r3, r9, r7
 80a0352:	2b13      	cmp	r3, #19
 80a0354:	dc03      	bgt.n	80a035e <_Z9fadingLediii+0xaa>
 80a0356:	f001 ffcb 	bl	80a22f0 <HAL_Timer_Get_Milli_Seconds>
 80a035a:	4607      	mov	r7, r0
 80a035c:	e7f7      	b.n	80a034e <_Z9fadingLediii+0x9a>
    {
      currentTime = millis();
    }
  }
  currentTime = 0;
  for (i = 255; i > 0; i -= 5)
 80a035e:	3c05      	subs	r4, #5
 80a0360:	d1d8      	bne.n	80a0314 <_Z9fadingLediii+0x60>
    while (currentTime - prevTime < twentymillis)
    {
      currentTime = millis();
    }
  }
}
 80a0362:	e8bd 83f8 	ldmia.w	sp!, {r3, r4, r5, r6, r7, r8, r9, pc}

080a0366 <_ZNSt14__shared_countILN9__gnu_cxx12_Lock_policyE0EED1Ev>:
      explicit __shared_count(const __weak_count<_Lp>& __r);

      // Does not throw if __r._M_get_use_count() == 0, caller must check.
      explicit __shared_count(const __weak_count<_Lp>& __r, std::nothrow_t);

      ~__shared_count() noexcept
 80a0366:	b538      	push	{r3, r4, r5, lr}
      {
	if (_M_pi != nullptr)
 80a0368:	6804      	ldr	r4, [r0, #0]
      explicit __shared_count(const __weak_count<_Lp>& __r);

      // Does not throw if __r._M_get_use_count() == 0, caller must check.
      explicit __shared_count(const __weak_count<_Lp>& __r, std::nothrow_t);

      ~__shared_count() noexcept
 80a036a:	4605      	mov	r5, r0
      {
	if (_M_pi != nullptr)
 80a036c:	b17c      	cbz	r4, 80a038e <_ZNSt14__shared_countILN9__gnu_cxx12_Lock_policyE0EED1Ev+0x28>

  template<>
    inline void
    _Sp_counted_base<_S_single>::_M_release() noexcept
    {
      if (--_M_use_count == 0)
 80a036e:	6863      	ldr	r3, [r4, #4]
 80a0370:	3b01      	subs	r3, #1
 80a0372:	6063      	str	r3, [r4, #4]
 80a0374:	b95b      	cbnz	r3, 80a038e <_ZNSt14__shared_countILN9__gnu_cxx12_Lock_policyE0EED1Ev+0x28>
        {
          _M_dispose();
 80a0376:	6823      	ldr	r3, [r4, #0]
 80a0378:	4620      	mov	r0, r4
 80a037a:	689b      	ldr	r3, [r3, #8]
 80a037c:	4798      	blx	r3
          if (--_M_weak_count == 0)
 80a037e:	68a3      	ldr	r3, [r4, #8]
 80a0380:	3b01      	subs	r3, #1
 80a0382:	60a3      	str	r3, [r4, #8]
 80a0384:	b91b      	cbnz	r3, 80a038e <_ZNSt14__shared_countILN9__gnu_cxx12_Lock_policyE0EED1Ev+0x28>
            _M_destroy();
 80a0386:	6823      	ldr	r3, [r4, #0]
 80a0388:	4620      	mov	r0, r4
 80a038a:	68db      	ldr	r3, [r3, #12]
 80a038c:	4798      	blx	r3

      ~__shared_count() noexcept
      {
	if (_M_pi != nullptr)
	  _M_pi->_M_release();
      }
 80a038e:	4628      	mov	r0, r5
 80a0390:	bd38      	pop	{r3, r4, r5, pc}
	...

080a0394 <_ZN21MHZ19BCO2SensorSerialI11USARTSerialE4ReadEv>:
  /**
   * Reads the current CO2 level from the sensor.
   *
   * Returns -1 if either a timeout or checksum didn't match.
   */
  int Read() {
 80a0394:	e92d 43f0 	stmdb	sp!, {r4, r5, r6, r7, r8, r9, lr}
 80a0398:	b08d      	sub	sp, #52	; 0x34
 80a039a:	4607      	mov	r7, r0
 80a039c:	f001 ffa8 	bl	80a22f0 <HAL_Timer_Get_Milli_Seconds>
    unsigned long startTime = millis();

    int reading = -1;
    const uint8_t CMD86[9] = {0xFF,0x01,0x86,0,0,0,0,0,0x79};
 80a03a0:	466b      	mov	r3, sp
 80a03a2:	4a20      	ldr	r2, [pc, #128]	; (80a0424 <_ZN21MHZ19BCO2SensorSerialI11USARTSerialE4ReadEv+0x90>)
 80a03a4:	4680      	mov	r8, r0
 80a03a6:	6851      	ldr	r1, [r2, #4]
 80a03a8:	6810      	ldr	r0, [r2, #0]
 80a03aa:	7a12      	ldrb	r2, [r2, #8]
 80a03ac:	c303      	stmia	r3!, {r0, r1}
    uint8_t checksum = 0;
    int recieved[9] = {0};
 80a03ae:	f10d 090c 	add.w	r9, sp, #12
   */
  int Read() {
    unsigned long startTime = millis();

    int reading = -1;
    const uint8_t CMD86[9] = {0xFF,0x01,0x86,0,0,0,0,0,0x79};
 80a03b2:	701a      	strb	r2, [r3, #0]
    uint8_t checksum = 0;
    int recieved[9] = {0};
 80a03b4:	2100      	movs	r1, #0
 80a03b6:	2224      	movs	r2, #36	; 0x24
 80a03b8:	4648      	mov	r0, r9
 80a03ba:	f004 fbb2 	bl	80a4b22 <memset>
    int recieved_bytes = 0;

    m_serial.template write(CMD86, 9);
 80a03be:	6838      	ldr	r0, [r7, #0]
 80a03c0:	2209      	movs	r2, #9
 80a03c2:	6803      	ldr	r3, [r0, #0]
 80a03c4:	4669      	mov	r1, sp
 80a03c6:	68db      	ldr	r3, [r3, #12]

    int reading = -1;
    const uint8_t CMD86[9] = {0xFF,0x01,0x86,0,0,0,0,0,0x79};
    uint8_t checksum = 0;
    int recieved[9] = {0};
    int recieved_bytes = 0;
 80a03c8:	2500      	movs	r5, #0

    m_serial.template write(CMD86, 9);
 80a03ca:	4798      	blx	r3
  int Read() {
    unsigned long startTime = millis();

    int reading = -1;
    const uint8_t CMD86[9] = {0xFF,0x01,0x86,0,0,0,0,0,0x79};
    uint8_t checksum = 0;
 80a03cc:	462c      	mov	r4, r5
   * Returns -1 if either a timeout or checksum didn't match.
   */
  int Read() {
    unsigned long startTime = millis();

    int reading = -1;
 80a03ce:	f04f 36ff 	mov.w	r6, #4294967295
    int recieved[9] = {0};
    int recieved_bytes = 0;

    m_serial.template write(CMD86, 9);

    while ((recieved_bytes < 9) && ((millis() - startTime) < 500)) {
 80a03d2:	2d09      	cmp	r5, #9
 80a03d4:	d022      	beq.n	80a041c <_ZN21MHZ19BCO2SensorSerialI11USARTSerialE4ReadEv+0x88>
 80a03d6:	f001 ff8b 	bl	80a22f0 <HAL_Timer_Get_Milli_Seconds>
 80a03da:	ebc8 0000 	rsb	r0, r8, r0
 80a03de:	f5b0 7ffa 	cmp.w	r0, #500	; 0x1f4
 80a03e2:	d21b      	bcs.n	80a041c <_ZN21MHZ19BCO2SensorSerialI11USARTSerialE4ReadEv+0x88>
      if (m_serial.template available() > 0) {
 80a03e4:	6838      	ldr	r0, [r7, #0]
 80a03e6:	6803      	ldr	r3, [r0, #0]
 80a03e8:	691b      	ldr	r3, [r3, #16]
 80a03ea:	4798      	blx	r3
 80a03ec:	2800      	cmp	r0, #0
 80a03ee:	ddf0      	ble.n	80a03d2 <_ZN21MHZ19BCO2SensorSerialI11USARTSerialE4ReadEv+0x3e>
        recieved[recieved_bytes] = m_serial.template read();
 80a03f0:	6838      	ldr	r0, [r7, #0]
 80a03f2:	6803      	ldr	r3, [r0, #0]
 80a03f4:	695b      	ldr	r3, [r3, #20]
 80a03f6:	4798      	blx	r3
        if (recieved_bytes == 8) {
 80a03f8:	2d08      	cmp	r5, #8

    m_serial.template write(CMD86, 9);

    while ((recieved_bytes < 9) && ((millis() - startTime) < 500)) {
      if (m_serial.template available() > 0) {
        recieved[recieved_bytes] = m_serial.template read();
 80a03fa:	f849 0025 	str.w	r0, [r9, r5, lsl #2]
        if (recieved_bytes == 8) {
 80a03fe:	d108      	bne.n	80a0412 <_ZN21MHZ19BCO2SensorSerialI11USARTSerialE4ReadEv+0x7e>
          checksum = 0xFF - checksum;
          checksum += 1;
 80a0400:	4264      	negs	r4, r4
 80a0402:	b2e4      	uxtb	r4, r4
          if (checksum == recieved[recieved_bytes]) {
 80a0404:	42a0      	cmp	r0, r4
 80a0406:	d107      	bne.n	80a0418 <_ZN21MHZ19BCO2SensorSerialI11USARTSerialE4ReadEv+0x84>
            reading = ((recieved[2]*256) +recieved[3]);
 80a0408:	9b06      	ldr	r3, [sp, #24]
 80a040a:	9e05      	ldr	r6, [sp, #20]
 80a040c:	eb03 2606 	add.w	r6, r3, r6, lsl #8
 80a0410:	e002      	b.n	80a0418 <_ZN21MHZ19BCO2SensorSerialI11USARTSerialE4ReadEv+0x84>
          }
        } else if (recieved_bytes > 0){
 80a0412:	b10d      	cbz	r5, 80a0418 <_ZN21MHZ19BCO2SensorSerialI11USARTSerialE4ReadEv+0x84>
          checksum += recieved[recieved_bytes];
 80a0414:	4404      	add	r4, r0
 80a0416:	b2e4      	uxtb	r4, r4
        }
        recieved_bytes++;
 80a0418:	3501      	adds	r5, #1
 80a041a:	e7da      	b.n	80a03d2 <_ZN21MHZ19BCO2SensorSerialI11USARTSerialE4ReadEv+0x3e>
      }
    }

    return reading;
  }
 80a041c:	4630      	mov	r0, r6
 80a041e:	b00d      	add	sp, #52	; 0x34
 80a0420:	e8bd 83f0 	ldmia.w	sp!, {r4, r5, r6, r7, r8, r9, pc}
 80a0424:	080a4be0 	.word	0x080a4be0

080a0428 <_Z6getCo2v>:
    return result;
  }
}

int getCo2()
{
 80a0428:	b508      	push	{r3, lr}
  //Get CO2
  int readings = mhz19b.Read();
 80a042a:	4802      	ldr	r0, [pc, #8]	; (80a0434 <_Z6getCo2v+0xc>)
 80a042c:	f7ff ffb2 	bl	80a0394 <_ZN21MHZ19BCO2SensorSerialI11USARTSerialE4ReadEv>
  return readings;
}
 80a0430:	bd08      	pop	{r3, pc}
 80a0432:	bf00      	nop
 80a0434:	20000088 	.word	0x20000088

080a0438 <setup>:
unsigned long previousMillis = 0;
unsigned long currentMillis = 0;
unsigned int interval = 30000;

void setup()
{
 80a0438:	b5f8      	push	{r3, r4, r5, r6, r7, lr}
        return _variable(varKey, (const char*)userVar, userVarType);
    }

    template<typename T> static inline bool _variable(const char *varKey, typename T::PointerType userVar, const T& userVarType)
    {
        return spark_variable(varKey, (const void*)userVar, T::TYPE_ID, NULL);
 80a043a:	4f2c      	ldr	r7, [pc, #176]	; (80a04ec <setup+0xb4>)
 80a043c:	4e2c      	ldr	r6, [pc, #176]	; (80a04f0 <setup+0xb8>)
 80a043e:	2300      	movs	r3, #0
 80a0440:	2209      	movs	r2, #9
 80a0442:	4639      	mov	r1, r7
 80a0444:	4d2b      	ldr	r5, [pc, #172]	; (80a04f4 <setup+0xbc>)
 80a0446:	482c      	ldr	r0, [pc, #176]	; (80a04f8 <setup+0xc0>)
 80a0448:	f002 f900 	bl	80a264c <spark_variable>
 80a044c:	2300      	movs	r3, #0
 80a044e:	2209      	movs	r2, #9
 80a0450:	4631      	mov	r1, r6
 80a0452:	482a      	ldr	r0, [pc, #168]	; (80a04fc <setup+0xc4>)
 80a0454:	f002 f8fa 	bl	80a264c <spark_variable>
 80a0458:	2300      	movs	r3, #0
 80a045a:	2202      	movs	r2, #2
 80a045c:	4629      	mov	r1, r5
 80a045e:	4828      	ldr	r0, [pc, #160]	; (80a0500 <setup+0xc8>)
 80a0460:	f002 f8f4 	bl	80a264c <spark_variable>
 80a0464:	2300      	movs	r3, #0
 80a0466:	2202      	movs	r2, #2
 80a0468:	4926      	ldr	r1, [pc, #152]	; (80a0504 <setup+0xcc>)
 80a046a:	4827      	ldr	r0, [pc, #156]	; (80a0508 <setup+0xd0>)
 80a046c:	f002 f8ee 	bl	80a264c <spark_variable>
  Particle.variable("temp", t);
  Particle.variable("humidity", h);
  Particle.variable("CO2", co2);
  Particle.variable("presence", pirState);
  // Serial.begin(9600);
  pinMode(MOTOR_PIN, OUTPUT);
 80a0470:	2101      	movs	r1, #1
 80a0472:	2003      	movs	r0, #3
 80a0474:	f003 fae6 	bl	80a3a44 <pinMode>
  pinMode(redpin, OUTPUT);
 80a0478:	2101      	movs	r1, #1
 80a047a:	2002      	movs	r0, #2
 80a047c:	f003 fae2 	bl	80a3a44 <pinMode>
  pinMode(bluepin, OUTPUT);
 80a0480:	2101      	movs	r1, #1
 80a0482:	2004      	movs	r0, #4
 80a0484:	f003 fade 	bl	80a3a44 <pinMode>
  pinMode(greenpin, OUTPUT);
 80a0488:	2101      	movs	r1, #1
 80a048a:	2005      	movs	r0, #5
 80a048c:	f003 fada 	bl	80a3a44 <pinMode>
  pinMode(DHT22_PIN, INPUT);
  pinMode(PIR_PIN, INPUT_PULLUP);

  blinkLedTest();
  display.setup();
 80a0490:	4c1e      	ldr	r4, [pc, #120]	; (80a050c <setup+0xd4>)
  // Serial.begin(9600);
  pinMode(MOTOR_PIN, OUTPUT);
  pinMode(redpin, OUTPUT);
  pinMode(bluepin, OUTPUT);
  pinMode(greenpin, OUTPUT);
  pinMode(DHT22_PIN, INPUT);
 80a0492:	2100      	movs	r1, #0
 80a0494:	2006      	movs	r0, #6
 80a0496:	f003 fad5 	bl	80a3a44 <pinMode>
  pinMode(PIR_PIN, INPUT_PULLUP);
 80a049a:	2102      	movs	r1, #2
 80a049c:	2007      	movs	r0, #7
 80a049e:	f003 fad1 	bl	80a3a44 <pinMode>

  blinkLedTest();
 80a04a2:	f7ff fe6f 	bl	80a0184 <_Z12blinkLedTestv>
  display.setup();
 80a04a6:	4620      	mov	r0, r4
 80a04a8:	f000 ff9e 	bl	80a13e8 <_ZN16OledWingAdafruit5setupEv>
  display.clearDisplay();
 80a04ac:	4620      	mov	r0, r4
 80a04ae:	f001 f926 	bl	80a16fe <_ZN16Adafruit_SSD130612clearDisplayEv>
  display.display();
 80a04b2:	4620      	mov	r0, r4
 80a04b4:	f001 fba0 	bl	80a1bf8 <_ZN16Adafruit_SSD13067displayEv>

  dht.begin();
 80a04b8:	4815      	ldr	r0, [pc, #84]	; (80a0510 <setup+0xd8>)
 80a04ba:	f001 fd05 	bl	80a1ec8 <_ZN14PietteTech_DHT5beginEv>

  delay(100);
 80a04be:	2064      	movs	r0, #100	; 0x64
 80a04c0:	f002 fba4 	bl	80a2c0c <delay>

  t = getTemperature();
 80a04c4:	f7ff fe2e 	bl	80a0124 <_Z14getTemperaturev>
 80a04c8:	e9c7 0100 	strd	r0, r1, [r7]
  h = getHumidity();
 80a04cc:	f7ff fe42 	bl	80a0154 <_Z11getHumidityv>
 80a04d0:	e9c6 0100 	strd	r0, r1, [r6]
  co2 = getCo2();
 80a04d4:	f7ff ffa8 	bl	80a0428 <_Z6getCo2v>
 80a04d8:	6028      	str	r0, [r5, #0]

  delay(1000);
 80a04da:	f44f 707a 	mov.w	r0, #1000	; 0x3e8
 80a04de:	f002 fb95 	bl	80a2c0c <delay>
 80a04e2:	f001 ff05 	bl	80a22f0 <HAL_Timer_Get_Milli_Seconds>
  previousMillis = millis();
 80a04e6:	4b0b      	ldr	r3, [pc, #44]	; (80a0514 <setup+0xdc>)
 80a04e8:	6018      	str	r0, [r3, #0]
 80a04ea:	bdf8      	pop	{r3, r4, r5, r6, r7, pc}
 80a04ec:	20000100 	.word	0x20000100
 80a04f0:	200000f0 	.word	0x200000f0
 80a04f4:	20000164 	.word	0x20000164
 80a04f8:	080a4c06 	.word	0x080a4c06
 80a04fc:	080a4c0b 	.word	0x080a4c0b
 80a0500:	080a4c14 	.word	0x080a4c14
 80a0504:	200000f8 	.word	0x200000f8
 80a0508:	080a4c18 	.word	0x080a4c18
 80a050c:	20000090 	.word	0x20000090
 80a0510:	20000108 	.word	0x20000108
 80a0514:	2000008c 	.word	0x2000008c

080a0518 <_GLOBAL__sub_I_display>:
    while (currentTime - prevTime < twentymillis)
    {
      currentTime = millis();
    }
  }
}
 80a0518:	b538      	push	{r3, r4, r5, lr}
} // namespace particle

// particle::Flag<TagT, ValueT>
template<typename TagT, typename ValueT>
inline particle::Flag<TagT, ValueT>::Flag(ValueT val) :
        val_(val) {
 80a051a:	4b15      	ldr	r3, [pc, #84]	; (80a0570 <_GLOBAL__sub_I_display+0x58>)
 80a051c:	2401      	movs	r4, #1
 80a051e:	701c      	strb	r4, [r3, #0]
inline int32_t pinReadFast(pin_t _pin)
{
    return ((PIN_MAP[_pin].gpio_peripheral->IDR & PIN_MAP[_pin].gpio_pin) == 0 ? LOW : HIGH);
}
#elif defined(STM32F2XX)
static Hal_Pin_Info* PIN_MAP = HAL_Pin_Map();
 80a0520:	f001 fe4e 	bl	80a21c0 <HAL_Pin_Map>
#define INTER1_SPEED 95
#define INTER2_SPEED 170
//#define SCREEN_WIDTH 128 // OLED display width, in pixels
//#define SCREEN_HEIGHT 32 // OLED display height, in pixels

SYSTEM_THREAD(ENABLED);
 80a0524:	4620      	mov	r0, r4

OledWingAdafruit display;
 80a0526:	4c13      	ldr	r4, [pc, #76]	; (80a0574 <_GLOBAL__sub_I_display+0x5c>)
 80a0528:	4d13      	ldr	r5, [pc, #76]	; (80a0578 <_GLOBAL__sub_I_display+0x60>)
#define INTER1_SPEED 95
#define INTER2_SPEED 170
//#define SCREEN_WIDTH 128 // OLED display width, in pixels
//#define SCREEN_HEIGHT 32 // OLED display height, in pixels

SYSTEM_THREAD(ENABLED);
 80a052a:	2100      	movs	r1, #0
 80a052c:	f002 f812 	bl	80a2554 <system_thread_set_state>

OledWingAdafruit display;
 80a0530:	2107      	movs	r1, #7
 80a0532:	4620      	mov	r0, r4
 80a0534:	f000 ff38 	bl	80a13a8 <_ZN16OledWingAdafruitC1Ei>
 80a0538:	462a      	mov	r2, r5
 80a053a:	4910      	ldr	r1, [pc, #64]	; (80a057c <_GLOBAL__sub_I_display+0x64>)
 80a053c:	4620      	mov	r0, r4
 80a053e:	f003 fb5d 	bl	80a3bfc <__aeabi_atexit>

PietteTech_DHT dht(DHT22_PIN, DHT22);
 80a0542:	2300      	movs	r3, #0
 80a0544:	2216      	movs	r2, #22
 80a0546:	2106      	movs	r1, #6
 80a0548:	480d      	ldr	r0, [pc, #52]	; (80a0580 <_GLOBAL__sub_I_display+0x68>)
 80a054a:	f001 fcba 	bl	80a1ec2 <_ZN14PietteTech_DHTC1EhhPFvvE>

MHZ19BCO2SensorSerial<USARTSerial> mhz19b(Serial1);
 80a054e:	f003 f903 	bl	80a3758 <_Z22__fetch_global_Serial1v>
  /**
   * Construct the MHZ19BCO2SensorSerial with the Serial object you want to use.
   *
   * @param serial the Serial object you want to use.
   */
  MHZ19BCO2SensorSerial(MHZ19UARTSerial& serial) : m_serial(serial) {
 80a0552:	4c0c      	ldr	r4, [pc, #48]	; (80a0584 <_GLOBAL__sub_I_display+0x6c>)
    m_serial.template begin(9600,SERIAL_8N1);
 80a0554:	2200      	movs	r2, #0
 80a0556:	f44f 5116 	mov.w	r1, #9600	; 0x2580
  /**
   * Construct the MHZ19BCO2SensorSerial with the Serial object you want to use.
   *
   * @param serial the Serial object you want to use.
   */
  MHZ19BCO2SensorSerial(MHZ19UARTSerial& serial) : m_serial(serial) {
 80a055a:	6020      	str	r0, [r4, #0]
    m_serial.template begin(9600,SERIAL_8N1);
 80a055c:	f003 f8f2 	bl	80a3744 <_ZN11USARTSerial5beginEmm>
 80a0560:	462a      	mov	r2, r5
 80a0562:	4620      	mov	r0, r4
    while (currentTime - prevTime < twentymillis)
    {
      currentTime = millis();
    }
  }
}
 80a0564:	e8bd 4038 	ldmia.w	sp!, {r3, r4, r5, lr}

OledWingAdafruit display;

PietteTech_DHT dht(DHT22_PIN, DHT22);

MHZ19BCO2SensorSerial<USARTSerial> mhz19b(Serial1);
 80a0568:	4907      	ldr	r1, [pc, #28]	; (80a0588 <_GLOBAL__sub_I_display+0x70>)
 80a056a:	f003 bb47 	b.w	80a3bfc <__aeabi_atexit>
 80a056e:	bf00      	nop
 80a0570:	200000e8 	.word	0x200000e8
 80a0574:	20000090 	.word	0x20000090
 80a0578:	20000080 	.word	0x20000080
 80a057c:	080a1375 	.word	0x080a1375
 80a0580:	20000108 	.word	0x20000108
 80a0584:	20000088 	.word	0x20000088
 80a0588:	080a00cd 	.word	0x080a00cd

080a058c <_Z9displayHrf>:
    currentTime = millis();
  }
}

void displayHr(float hr)
{
 80a058c:	b5f7      	push	{r0, r1, r2, r4, r5, r6, r7, lr}
 80a058e:	4607      	mov	r7, r0
  int currentTime = 0;
  int prevTime;
  int tensecs = 10000;
  display.clearDisplay();
 80a0590:	4c28      	ldr	r4, [pc, #160]	; (80a0634 <_Z9displayHrf+0xa8>)
    @param   c   16-bit 5-6-5 Color to draw text with
    @note    For 'transparent' background, background and foreground
             are set to same color rather than using a separate flag.
  */
  /**********************************************************************/
  void setTextColor(uint16_t c) { textcolor = textbgcolor = c; }
 80a0592:	2601      	movs	r6, #1
 80a0594:	4620      	mov	r0, r4
 80a0596:	f001 f8b2 	bl	80a16fe <_ZN16Adafruit_SSD130612clearDisplayEv>
    @brief  Set text cursor location
    @param  x    X coordinate in pixels
    @param  y    Y coordinate in pixels
  */
  /**********************************************************************/
  void setCursor(int16_t x, int16_t y) { cursor_x = x; cursor_y = y; }
 80a059a:	2500      	movs	r5, #0

  display.setTextSize(1);
 80a059c:	4620      	mov	r0, r4
 80a059e:	2101      	movs	r1, #1
 80a05a0:	f000 fee2 	bl	80a1368 <_ZN12Adafruit_GFX11setTextSizeEh>
 80a05a4:	8225      	strh	r5, [r4, #16]
 80a05a6:	8265      	strh	r5, [r4, #18]
    @param   c   16-bit 5-6-5 Color to draw text with
    @note    For 'transparent' background, background and foreground
             are set to same color rather than using a separate flag.
  */
  /**********************************************************************/
  void setTextColor(uint16_t c) { textcolor = textbgcolor = c; }
 80a05a8:	82e6      	strh	r6, [r4, #22]
 80a05aa:	82a6      	strh	r6, [r4, #20]
  display.setTextColor(WHITE);
  display.setCursor(0, 0);
  display.println(F("Humidite : "));
 80a05ac:	4922      	ldr	r1, [pc, #136]	; (80a0638 <_Z9displayHrf+0xac>)
 80a05ae:	4620      	mov	r0, r4
 80a05b0:	f002 f9e9 	bl	80a2986 <_ZN5Print7printlnEPK19__FlashStringHelper>
  display.setTextSize(3);
 80a05b4:	4620      	mov	r0, r4
 80a05b6:	2103      	movs	r1, #3
 80a05b8:	f000 fed6 	bl	80a1368 <_ZN12Adafruit_GFX11setTextSizeEh>
  display.print(hr);
 80a05bc:	2202      	movs	r2, #2
 80a05be:	4639      	mov	r1, r7
 80a05c0:	4620      	mov	r0, r4
 80a05c2:	f002 fabb 	bl	80a2b3c <_ZN5Print5printEfi>
 80a05c6:	f9b4 200e 	ldrsh.w	r2, [r4, #14]
 80a05ca:	f9b4 300c 	ldrsh.w	r3, [r4, #12]

  display.drawLine(display.width() - 20, display.height(), display.width(),
                   display.height() - 20, WHITE);
 80a05ce:	f1a2 0014 	sub.w	r0, r2, #20
 80a05d2:	f1a3 0114 	sub.w	r1, r3, #20
 80a05d6:	b200      	sxth	r0, r0
 80a05d8:	9000      	str	r0, [sp, #0]
 80a05da:	b209      	sxth	r1, r1
 80a05dc:	4620      	mov	r0, r4
 80a05de:	9601      	str	r6, [sp, #4]
 80a05e0:	f000 faf6 	bl	80a0bd0 <_ZN12Adafruit_GFX8drawLineEsssst>

  display.drawCircle(display.width() - 16, display.height() - 16, 3, WHITE);
 80a05e4:	89e2      	ldrh	r2, [r4, #14]
 80a05e6:	89a1      	ldrh	r1, [r4, #12]
 80a05e8:	3a10      	subs	r2, #16
 80a05ea:	3910      	subs	r1, #16
 80a05ec:	4620      	mov	r0, r4
 80a05ee:	2303      	movs	r3, #3
 80a05f0:	b212      	sxth	r2, r2
 80a05f2:	b209      	sxth	r1, r1
 80a05f4:	9600      	str	r6, [sp, #0]
 80a05f6:	f000 fb95 	bl	80a0d24 <_ZN12Adafruit_GFX10drawCircleEssst>

  display.drawCircle(display.width() - 4, display.height() - 4, 3, WHITE);
 80a05fa:	89e2      	ldrh	r2, [r4, #14]
 80a05fc:	89a1      	ldrh	r1, [r4, #12]
 80a05fe:	3a04      	subs	r2, #4
 80a0600:	3904      	subs	r1, #4
 80a0602:	2303      	movs	r3, #3
 80a0604:	b212      	sxth	r2, r2
 80a0606:	b209      	sxth	r1, r1
 80a0608:	4620      	mov	r0, r4
 80a060a:	9600      	str	r6, [sp, #0]
 80a060c:	f000 fb8a 	bl	80a0d24 <_ZN12Adafruit_GFX10drawCircleEssst>
  display.display();
 80a0610:	4620      	mov	r0, r4
 80a0612:	f001 faf1 	bl	80a1bf8 <_ZN16Adafruit_SSD13067displayEv>
 80a0616:	f001 fe6b 	bl	80a22f0 <HAL_Timer_Get_Milli_Seconds>
 80a061a:	4604      	mov	r4, r0
  }
}

void displayHr(float hr)
{
  int currentTime = 0;
 80a061c:	4628      	mov	r0, r5
  display.drawCircle(display.width() - 16, display.height() - 16, 3, WHITE);

  display.drawCircle(display.width() - 4, display.height() - 4, 3, WHITE);
  display.display();
  prevTime = millis();
  while (currentTime - prevTime < tensecs)
 80a061e:	f242 750f 	movw	r5, #9999	; 0x270f
 80a0622:	1b00      	subs	r0, r0, r4
 80a0624:	42a8      	cmp	r0, r5
 80a0626:	dc02      	bgt.n	80a062e <_Z9displayHrf+0xa2>
 80a0628:	f001 fe62 	bl	80a22f0 <HAL_Timer_Get_Milli_Seconds>
 80a062c:	e7f9      	b.n	80a0622 <_Z9displayHrf+0x96>
  {
    currentTime = millis();
  }
}
 80a062e:	b003      	add	sp, #12
 80a0630:	bdf0      	pop	{r4, r5, r6, r7, pc}
 80a0632:	bf00      	nop
 80a0634:	20000090 	.word	0x20000090
 80a0638:	080a4c21 	.word	0x080a4c21
 80a063c:	00000000 	.word	0x00000000

080a0640 <loop>:
  delay(1000);
  previousMillis = millis();
}

void loop()
{
 80a0640:	e92d 47ff 	stmdb	sp!, {r0, r1, r2, r3, r4, r5, r6, r7, r8, r9, sl, lr}
 80a0644:	f001 fe54 	bl	80a22f0 <HAL_Timer_Get_Milli_Seconds>
  currentMillis = millis();
  if (currentMillis - previousMillis >= interval)
 80a0648:	4ba1      	ldr	r3, [pc, #644]	; (80a08d0 <loop+0x290>)
  previousMillis = millis();
}

void loop()
{
  currentMillis = millis();
 80a064a:	4aa2      	ldr	r2, [pc, #648]	; (80a08d4 <loop+0x294>)
  if (currentMillis - previousMillis >= interval)
 80a064c:	6819      	ldr	r1, [r3, #0]
  previousMillis = millis();
}

void loop()
{
  currentMillis = millis();
 80a064e:	6010      	str	r0, [r2, #0]
  if (currentMillis - previousMillis >= interval)
 80a0650:	1a40      	subs	r0, r0, r1
 80a0652:	49a1      	ldr	r1, [pc, #644]	; (80a08d8 <loop+0x298>)
 80a0654:	4692      	mov	sl, r2
 80a0656:	6809      	ldr	r1, [r1, #0]
 80a0658:	4699      	mov	r9, r3
 80a065a:	4288      	cmp	r0, r1
 80a065c:	f0c0 80f9 	bcc.w	80a0852 <loop+0x212>
  {
    /* -----||| GETTING DATA FROM SENSORS |||----- */
    t = getTemperature();
 80a0660:	f7ff fd60 	bl	80a0124 <_Z14getTemperaturev>
 80a0664:	4d9d      	ldr	r5, [pc, #628]	; (80a08dc <loop+0x29c>)
    h = getHumidity();
 80a0666:	4c9e      	ldr	r4, [pc, #632]	; (80a08e0 <loop+0x2a0>)
{
  currentMillis = millis();
  if (currentMillis - previousMillis >= interval)
  {
    /* -----||| GETTING DATA FROM SENSORS |||----- */
    t = getTemperature();
 80a0668:	e9c5 0100 	strd	r0, r1, [r5]
    h = getHumidity();
 80a066c:	f7ff fd72 	bl	80a0154 <_Z11getHumidityv>
 80a0670:	e9c4 0100 	strd	r0, r1, [r4]
    co2 = getCo2();
 80a0674:	f7ff fed8 	bl	80a0428 <_Z6getCo2v>
 80a0678:	4b9a      	ldr	r3, [pc, #616]	; (80a08e4 <loop+0x2a4>)

    if (co2 < 0 || t < 0 || h < 0)
 80a067a:	2800      	cmp	r0, #0
  if (currentMillis - previousMillis >= interval)
  {
    /* -----||| GETTING DATA FROM SENSORS |||----- */
    t = getTemperature();
    h = getHumidity();
    co2 = getCo2();
 80a067c:	4606      	mov	r6, r0
 80a067e:	6018      	str	r0, [r3, #0]
 80a0680:	f8df 82a4 	ldr.w	r8, [pc, #676]	; 80a0928 <loop+0x2e8>
 80a0684:	4f98      	ldr	r7, [pc, #608]	; (80a08e8 <loop+0x2a8>)

    if (co2 < 0 || t < 0 || h < 0)
 80a0686:	db0e      	blt.n	80a06a6 <loop+0x66>
 80a0688:	e9d5 0100 	ldrd	r0, r1, [r5]
 80a068c:	2200      	movs	r2, #0
 80a068e:	2300      	movs	r3, #0
 80a0690:	f004 f84a 	bl	80a4728 <__aeabi_dcmplt>
 80a0694:	b938      	cbnz	r0, 80a06a6 <loop+0x66>
 80a0696:	cc30      	ldmia	r4, {r4, r5}
 80a0698:	2200      	movs	r2, #0
 80a069a:	2300      	movs	r3, #0
 80a069c:	4620      	mov	r0, r4
 80a069e:	4629      	mov	r1, r5
 80a06a0:	f004 f842 	bl	80a4728 <__aeabi_dcmplt>
 80a06a4:	b1c0      	cbz	r0, 80a06d8 <loop+0x98>
    {
      g_value = LOW;
 80a06a6:	4b91      	ldr	r3, [pc, #580]	; (80a08ec <loop+0x2ac>)
 80a06a8:	2200      	movs	r2, #0
 80a06aa:	601a      	str	r2, [r3, #0]
      r_value, b_value = HIGH;
 80a06ac:	4b90      	ldr	r3, [pc, #576]	; (80a08f0 <loop+0x2b0>)
 80a06ae:	2101      	movs	r1, #1
 80a06b0:	6019      	str	r1, [r3, #0]
      stateIndicator = 0;
      if (stateIndicator != lastState)
 80a06b2:	783b      	ldrb	r3, [r7, #0]

    if (co2 < 0 || t < 0 || h < 0)
    {
      g_value = LOW;
      r_value, b_value = HIGH;
      stateIndicator = 0;
 80a06b4:	f888 2000 	strb.w	r2, [r8]
      if (stateIndicator != lastState)
 80a06b8:	2b00      	cmp	r3, #0
 80a06ba:	f000 80c3 	beq.w	80a0844 <loop+0x204>
 80a06be:	4b8d      	ldr	r3, [pc, #564]	; (80a08f4 <loop+0x2b4>)
      {
        Particle.publish("newState", "dataError", PRIVATE);
 80a06c0:	a802      	add	r0, sp, #8
        val_(0) {
}

template<typename TagT, typename ValueT>
inline particle::Flags<TagT, ValueT>::Flags(Flag<TagT, ValueT> flag) :
        val_(flag.value()) {
 80a06c2:	781b      	ldrb	r3, [r3, #0]
 80a06c4:	498c      	ldr	r1, [pc, #560]	; (80a08f8 <loop+0x2b8>)
 80a06c6:	f88d 2000 	strb.w	r2, [sp]
 80a06ca:	4a8c      	ldr	r2, [pc, #560]	; (80a08fc <loop+0x2bc>)
 80a06cc:	f7ff fd05 	bl	80a00da <_ZN10CloudClass7publishEPKcS1_N8particle5FlagsI15PublishFlagTypehEES5_.isra.7.constprop.10>
	: _M_ptr(__p), _M_refcount(__r._M_refcount) // never throws
	{ }

      __shared_ptr(const __shared_ptr&) noexcept = default;
      __shared_ptr& operator=(const __shared_ptr&) noexcept = default;
      ~__shared_ptr() = default;
 80a06d0:	a803      	add	r0, sp, #12
 80a06d2:	f7ff fe48 	bl	80a0366 <_ZNSt14__shared_countILN9__gnu_cxx12_Lock_policyE0EED1Ev>
 80a06d6:	e0b5      	b.n	80a0844 <loop+0x204>
      }
    }
    else
    {
      if ((h > 85) || (co2 > 2000))
 80a06d8:	2200      	movs	r2, #0
 80a06da:	4b89      	ldr	r3, [pc, #548]	; (80a0900 <loop+0x2c0>)
 80a06dc:	4620      	mov	r0, r4
 80a06de:	4629      	mov	r1, r5
 80a06e0:	f004 f840 	bl	80a4764 <__aeabi_dcmpgt>
 80a06e4:	b910      	cbnz	r0, 80a06ec <loop+0xac>
 80a06e6:	f5b6 6ffa 	cmp.w	r6, #2000	; 0x7d0
 80a06ea:	dd1c      	ble.n	80a0726 <loop+0xe6>
      {
        analogWrite(MOTOR_PIN, MAX_SPEED);
 80a06ec:	21d6      	movs	r1, #214	; 0xd6
 80a06ee:	2003      	movs	r0, #3
 80a06f0:	f003 f9e5 	bl	80a3abe <_Z11analogWritetm>
        stateIndicator = 4;
 80a06f4:	2304      	movs	r3, #4
 80a06f6:	f888 3000 	strb.w	r3, [r8]
        if (stateIndicator != lastState)
 80a06fa:	783b      	ldrb	r3, [r7, #0]
 80a06fc:	2b04      	cmp	r3, #4
 80a06fe:	d00c      	beq.n	80a071a <loop+0xda>
 80a0700:	4b7c      	ldr	r3, [pc, #496]	; (80a08f4 <loop+0x2b4>)
        {
          Particle.publish("newState", "red", PRIVATE);
 80a0702:	2200      	movs	r2, #0
 80a0704:	781b      	ldrb	r3, [r3, #0]
 80a0706:	a802      	add	r0, sp, #8
 80a0708:	f88d 2000 	strb.w	r2, [sp]
 80a070c:	497a      	ldr	r1, [pc, #488]	; (80a08f8 <loop+0x2b8>)
 80a070e:	4a7d      	ldr	r2, [pc, #500]	; (80a0904 <loop+0x2c4>)
 80a0710:	f7ff fce3 	bl	80a00da <_ZN10CloudClass7publishEPKcS1_N8particle5FlagsI15PublishFlagTypehEES5_.isra.7.constprop.10>
 80a0714:	a803      	add	r0, sp, #12
 80a0716:	f7ff fe26 	bl	80a0366 <_ZNSt14__shared_countILN9__gnu_cxx12_Lock_policyE0EED1Ev>
        }
        // Serial.println(F("Vitesse MAX"));
        r_value = HIGH;
 80a071a:	4b7b      	ldr	r3, [pc, #492]	; (80a0908 <loop+0x2c8>)
 80a071c:	2201      	movs	r2, #1
 80a071e:	601a      	str	r2, [r3, #0]
        g_value = LOW;
 80a0720:	2300      	movs	r3, #0
 80a0722:	4a72      	ldr	r2, [pc, #456]	; (80a08ec <loop+0x2ac>)
 80a0724:	e08b      	b.n	80a083e <loop+0x1fe>
        b_value = LOW;
      }
      else if (((h > 75) && (h <= 85)) || ((co2 > 1400) && (co2 <= 2000)))
 80a0726:	a368      	add	r3, pc, #416	; (adr r3, 80a08c8 <loop+0x288>)
 80a0728:	e9d3 2300 	ldrd	r2, r3, [r3]
 80a072c:	4620      	mov	r0, r4
 80a072e:	4629      	mov	r1, r5
 80a0730:	f004 f818 	bl	80a4764 <__aeabi_dcmpgt>
 80a0734:	b130      	cbz	r0, 80a0744 <loop+0x104>
 80a0736:	2200      	movs	r2, #0
 80a0738:	4b71      	ldr	r3, [pc, #452]	; (80a0900 <loop+0x2c0>)
 80a073a:	4620      	mov	r0, r4
 80a073c:	4629      	mov	r1, r5
 80a073e:	f003 fffd 	bl	80a473c <__aeabi_dcmple>
 80a0742:	b928      	cbnz	r0, 80a0750 <loop+0x110>
 80a0744:	f46f 62af 	mvn.w	r2, #1400	; 0x578
 80a0748:	18b3      	adds	r3, r6, r2
 80a074a:	f5b3 7f16 	cmp.w	r3, #600	; 0x258
 80a074e:	d21f      	bcs.n	80a0790 <loop+0x150>
      {
        analogWrite(MOTOR_PIN, INTER2_SPEED);
 80a0750:	21aa      	movs	r1, #170	; 0xaa
 80a0752:	2003      	movs	r0, #3
 80a0754:	f003 f9b3 	bl	80a3abe <_Z11analogWritetm>
        stateIndicator = 3;
 80a0758:	2303      	movs	r3, #3
 80a075a:	f888 3000 	strb.w	r3, [r8]
        if (stateIndicator != lastState)
 80a075e:	783b      	ldrb	r3, [r7, #0]
 80a0760:	2b03      	cmp	r3, #3
 80a0762:	d00c      	beq.n	80a077e <loop+0x13e>
 80a0764:	4b63      	ldr	r3, [pc, #396]	; (80a08f4 <loop+0x2b4>)
        {
          Particle.publish("newState", "blue", PRIVATE);
 80a0766:	2200      	movs	r2, #0
 80a0768:	781b      	ldrb	r3, [r3, #0]
 80a076a:	a802      	add	r0, sp, #8
 80a076c:	f88d 2000 	strb.w	r2, [sp]
 80a0770:	4961      	ldr	r1, [pc, #388]	; (80a08f8 <loop+0x2b8>)
 80a0772:	4a66      	ldr	r2, [pc, #408]	; (80a090c <loop+0x2cc>)
 80a0774:	f7ff fcb1 	bl	80a00da <_ZN10CloudClass7publishEPKcS1_N8particle5FlagsI15PublishFlagTypehEES5_.isra.7.constprop.10>
 80a0778:	a803      	add	r0, sp, #12
 80a077a:	f7ff fdf4 	bl	80a0366 <_ZNSt14__shared_countILN9__gnu_cxx12_Lock_policyE0EED1Ev>
        }
        // Serial.println(F("Vitesse 2"));
        r_value = LOW;
 80a077e:	4a62      	ldr	r2, [pc, #392]	; (80a0908 <loop+0x2c8>)
 80a0780:	2300      	movs	r3, #0
 80a0782:	6013      	str	r3, [r2, #0]
        g_value = LOW;
 80a0784:	4a59      	ldr	r2, [pc, #356]	; (80a08ec <loop+0x2ac>)
 80a0786:	6013      	str	r3, [r2, #0]
        b_value = HIGH;
 80a0788:	4b59      	ldr	r3, [pc, #356]	; (80a08f0 <loop+0x2b0>)
 80a078a:	2201      	movs	r2, #1
 80a078c:	601a      	str	r2, [r3, #0]
 80a078e:	e059      	b.n	80a0844 <loop+0x204>
      }
      else if (((h > 65) && (h <= 75)) || ((co2 > 700) && (co2 <= 1400)))
 80a0790:	2200      	movs	r2, #0
 80a0792:	4b5f      	ldr	r3, [pc, #380]	; (80a0910 <loop+0x2d0>)
 80a0794:	4620      	mov	r0, r4
 80a0796:	4629      	mov	r1, r5
 80a0798:	f003 ffe4 	bl	80a4764 <__aeabi_dcmpgt>
 80a079c:	b138      	cbz	r0, 80a07ae <loop+0x16e>
 80a079e:	a34a      	add	r3, pc, #296	; (adr r3, 80a08c8 <loop+0x288>)
 80a07a0:	e9d3 2300 	ldrd	r2, r3, [r3]
 80a07a4:	4620      	mov	r0, r4
 80a07a6:	4629      	mov	r1, r5
 80a07a8:	f003 ffc8 	bl	80a473c <__aeabi_dcmple>
 80a07ac:	b928      	cbnz	r0, 80a07ba <loop+0x17a>
 80a07ae:	f46f 732f 	mvn.w	r3, #700	; 0x2bc
 80a07b2:	441e      	add	r6, r3
 80a07b4:	f5b6 7f2f 	cmp.w	r6, #700	; 0x2bc
 80a07b8:	d21e      	bcs.n	80a07f8 <loop+0x1b8>
      {
        analogWrite(MOTOR_PIN, INTER1_SPEED);
 80a07ba:	215f      	movs	r1, #95	; 0x5f
 80a07bc:	2003      	movs	r0, #3
 80a07be:	f003 f97e 	bl	80a3abe <_Z11analogWritetm>
        stateIndicator = 2;
 80a07c2:	2302      	movs	r3, #2
 80a07c4:	f888 3000 	strb.w	r3, [r8]
        if (stateIndicator != lastState)
 80a07c8:	783b      	ldrb	r3, [r7, #0]
 80a07ca:	2b02      	cmp	r3, #2
 80a07cc:	d00c      	beq.n	80a07e8 <loop+0x1a8>
 80a07ce:	4b49      	ldr	r3, [pc, #292]	; (80a08f4 <loop+0x2b4>)
        {
          Particle.publish("newState", "lightBlue", PRIVATE);
 80a07d0:	2200      	movs	r2, #0
 80a07d2:	781b      	ldrb	r3, [r3, #0]
 80a07d4:	a802      	add	r0, sp, #8
 80a07d6:	f88d 2000 	strb.w	r2, [sp]
 80a07da:	4947      	ldr	r1, [pc, #284]	; (80a08f8 <loop+0x2b8>)
 80a07dc:	4a4d      	ldr	r2, [pc, #308]	; (80a0914 <loop+0x2d4>)
 80a07de:	f7ff fc7c 	bl	80a00da <_ZN10CloudClass7publishEPKcS1_N8particle5FlagsI15PublishFlagTypehEES5_.isra.7.constprop.10>
 80a07e2:	a803      	add	r0, sp, #12
 80a07e4:	f7ff fdbf 	bl	80a0366 <_ZNSt14__shared_countILN9__gnu_cxx12_Lock_policyE0EED1Ev>
        }
        // Serial.println(F("Vitesse 1"));
        b_value = HIGH;
 80a07e8:	4a41      	ldr	r2, [pc, #260]	; (80a08f0 <loop+0x2b0>)
 80a07ea:	2301      	movs	r3, #1
 80a07ec:	6013      	str	r3, [r2, #0]
        r_value = LOW;
 80a07ee:	4a46      	ldr	r2, [pc, #280]	; (80a0908 <loop+0x2c8>)
 80a07f0:	2100      	movs	r1, #0
 80a07f2:	6011      	str	r1, [r2, #0]
        g_value = HIGH;
 80a07f4:	4a3d      	ldr	r2, [pc, #244]	; (80a08ec <loop+0x2ac>)
 80a07f6:	e024      	b.n	80a0842 <loop+0x202>
      }
      else if ((h <= 65) && (co2 <= 700))
 80a07f8:	2200      	movs	r2, #0
 80a07fa:	4b45      	ldr	r3, [pc, #276]	; (80a0910 <loop+0x2d0>)
 80a07fc:	4620      	mov	r0, r4
 80a07fe:	4629      	mov	r1, r5
 80a0800:	f003 ff9c 	bl	80a473c <__aeabi_dcmple>
 80a0804:	b1f0      	cbz	r0, 80a0844 <loop+0x204>
      {
        analogWrite(MOTOR_PIN, MIN_SPEED);
 80a0806:	2114      	movs	r1, #20
 80a0808:	2003      	movs	r0, #3
 80a080a:	f003 f958 	bl	80a3abe <_Z11analogWritetm>
        stateIndicator = 1;
 80a080e:	2301      	movs	r3, #1
 80a0810:	f888 3000 	strb.w	r3, [r8]
        if (stateIndicator != lastState)
 80a0814:	783b      	ldrb	r3, [r7, #0]
 80a0816:	2b01      	cmp	r3, #1
 80a0818:	d00c      	beq.n	80a0834 <loop+0x1f4>
 80a081a:	4b36      	ldr	r3, [pc, #216]	; (80a08f4 <loop+0x2b4>)
        {
          Particle.publish("newState", "green", PRIVATE);
 80a081c:	2200      	movs	r2, #0
 80a081e:	781b      	ldrb	r3, [r3, #0]
 80a0820:	a802      	add	r0, sp, #8
 80a0822:	f88d 2000 	strb.w	r2, [sp]
 80a0826:	4934      	ldr	r1, [pc, #208]	; (80a08f8 <loop+0x2b8>)
 80a0828:	4a3b      	ldr	r2, [pc, #236]	; (80a0918 <loop+0x2d8>)
 80a082a:	f7ff fc56 	bl	80a00da <_ZN10CloudClass7publishEPKcS1_N8particle5FlagsI15PublishFlagTypehEES5_.isra.7.constprop.10>
 80a082e:	a803      	add	r0, sp, #12
 80a0830:	f7ff fd99 	bl	80a0366 <_ZNSt14__shared_countILN9__gnu_cxx12_Lock_policyE0EED1Ev>
        }
        // Serial.println(F("Vitesse MIN"));
        g_value = HIGH;
 80a0834:	4b2d      	ldr	r3, [pc, #180]	; (80a08ec <loop+0x2ac>)
 80a0836:	2201      	movs	r2, #1
 80a0838:	601a      	str	r2, [r3, #0]
        r_value = LOW;
 80a083a:	4a33      	ldr	r2, [pc, #204]	; (80a0908 <loop+0x2c8>)
 80a083c:	2300      	movs	r3, #0
 80a083e:	6013      	str	r3, [r2, #0]
        b_value = LOW;
 80a0840:	4a2b      	ldr	r2, [pc, #172]	; (80a08f0 <loop+0x2b0>)
 80a0842:	6013      	str	r3, [r2, #0]
      }
    }
    lastState = stateIndicator;
 80a0844:	f898 3000 	ldrb.w	r3, [r8]
 80a0848:	703b      	strb	r3, [r7, #0]
    previousMillis = currentMillis;
 80a084a:	f8da 3000 	ldr.w	r3, [sl]
 80a084e:	f8c9 3000 	str.w	r3, [r9]
  }
  // pirValue = digitalRead(PIR_PIN);
  if (digitalRead(PIR_PIN) == HIGH)
 80a0852:	2007      	movs	r0, #7
 80a0854:	f003 f920 	bl	80a3a98 <digitalRead>
 80a0858:	2801      	cmp	r0, #1
 80a085a:	4605      	mov	r5, r0
 80a085c:	4c2f      	ldr	r4, [pc, #188]	; (80a091c <loop+0x2dc>)
 80a085e:	d165      	bne.n	80a092c <loop+0x2ec>
  {
    digitalWrite(redpin, r_value);
 80a0860:	4b29      	ldr	r3, [pc, #164]	; (80a0908 <loop+0x2c8>)
 80a0862:	2002      	movs	r0, #2
 80a0864:	7819      	ldrb	r1, [r3, #0]
 80a0866:	f003 f8fe 	bl	80a3a66 <digitalWrite>
    digitalWrite(greenpin, g_value);
 80a086a:	4b20      	ldr	r3, [pc, #128]	; (80a08ec <loop+0x2ac>)
 80a086c:	2005      	movs	r0, #5
 80a086e:	7819      	ldrb	r1, [r3, #0]
 80a0870:	f003 f8f9 	bl	80a3a66 <digitalWrite>
    digitalWrite(bluepin, b_value);
 80a0874:	4b1e      	ldr	r3, [pc, #120]	; (80a08f0 <loop+0x2b0>)
 80a0876:	2004      	movs	r0, #4
 80a0878:	7819      	ldrb	r1, [r3, #0]
 80a087a:	f003 f8f4 	bl	80a3a66 <digitalWrite>

    if (pirState == LOW)
 80a087e:	6822      	ldr	r2, [r4, #0]
 80a0880:	b962      	cbnz	r2, 80a089c <loop+0x25c>
 80a0882:	4b1c      	ldr	r3, [pc, #112]	; (80a08f4 <loop+0x2b4>)
    {
      pirState = HIGH;
 80a0884:	6025      	str	r5, [r4, #0]
 80a0886:	781b      	ldrb	r3, [r3, #0]
      Particle.publish("Motion-Detection", "presence", PRIVATE);
 80a0888:	a802      	add	r0, sp, #8
 80a088a:	f88d 2000 	strb.w	r2, [sp]
 80a088e:	4924      	ldr	r1, [pc, #144]	; (80a0920 <loop+0x2e0>)
 80a0890:	4a24      	ldr	r2, [pc, #144]	; (80a0924 <loop+0x2e4>)
 80a0892:	f7ff fc22 	bl	80a00da <_ZN10CloudClass7publishEPKcS1_N8particle5FlagsI15PublishFlagTypehEES5_.isra.7.constprop.10>
 80a0896:	a803      	add	r0, sp, #12
 80a0898:	f7ff fd65 	bl	80a0366 <_ZNSt14__shared_countILN9__gnu_cxx12_Lock_policyE0EED1Ev>
    }
    displayTemp((float)t);
 80a089c:	4b0f      	ldr	r3, [pc, #60]	; (80a08dc <loop+0x29c>)
 80a089e:	e9d3 0100 	ldrd	r0, r1, [r3]
 80a08a2:	f003 ffc7 	bl	80a4834 <__aeabi_d2f>
 80a08a6:	f7ff fc8d 	bl	80a01c4 <_Z11displayTempf>
    displayHr((float)h);
 80a08aa:	4b0d      	ldr	r3, [pc, #52]	; (80a08e0 <loop+0x2a0>)
 80a08ac:	e9d3 0100 	ldrd	r0, r1, [r3]
 80a08b0:	f003 ffc0 	bl	80a4834 <__aeabi_d2f>
 80a08b4:	f7ff fe6a 	bl	80a058c <_Z9displayHrf>
    displayCo2((int)co2);
 80a08b8:	4b0a      	ldr	r3, [pc, #40]	; (80a08e4 <loop+0x2a4>)
 80a08ba:	6818      	ldr	r0, [r3, #0]
 80a08bc:	f7ff fcba 	bl	80a0234 <_Z10displayCo2i>
 80a08c0:	e05a      	b.n	80a0978 <loop+0x338>
 80a08c2:	bf00      	nop
 80a08c4:	f3af 8000 	nop.w
 80a08c8:	00000000 	.word	0x00000000
 80a08cc:	4052c000 	.word	0x4052c000
 80a08d0:	2000008c 	.word	0x2000008c
 80a08d4:	20000168 	.word	0x20000168
 80a08d8:	20000010 	.word	0x20000010
 80a08dc:	20000100 	.word	0x20000100
 80a08e0:	200000f0 	.word	0x200000f0
 80a08e4:	20000164 	.word	0x20000164
 80a08e8:	20000004 	.word	0x20000004
 80a08ec:	20000008 	.word	0x20000008
 80a08f0:	2000000c 	.word	0x2000000c
 80a08f4:	200000e8 	.word	0x200000e8
 80a08f8:	080a4c37 	.word	0x080a4c37
 80a08fc:	080a4c2d 	.word	0x080a4c2d
 80a0900:	40554000 	.word	0x40554000
 80a0904:	080a4c40 	.word	0x080a4c40
 80a0908:	20000000 	.word	0x20000000
 80a090c:	080a4c44 	.word	0x080a4c44
 80a0910:	40504000 	.word	0x40504000
 80a0914:	080a4c49 	.word	0x080a4c49
 80a0918:	080a4c53 	.word	0x080a4c53
 80a091c:	200000f8 	.word	0x200000f8
 80a0920:	080a4c59 	.word	0x080a4c59
 80a0924:	080a4c18 	.word	0x080a4c18
 80a0928:	20000084 	.word	0x20000084
  }
  else
  {
    display.clearDisplay();
 80a092c:	4814      	ldr	r0, [pc, #80]	; (80a0980 <loop+0x340>)
 80a092e:	f000 fee6 	bl	80a16fe <_ZN16Adafruit_SSD130612clearDisplayEv>
    display.display();
 80a0932:	4813      	ldr	r0, [pc, #76]	; (80a0980 <loop+0x340>)
 80a0934:	f001 f960 	bl	80a1bf8 <_ZN16Adafruit_SSD13067displayEv>

    if (pirState == HIGH)
 80a0938:	6823      	ldr	r3, [r4, #0]
 80a093a:	2b01      	cmp	r3, #1
 80a093c:	d10d      	bne.n	80a095a <loop+0x31a>
 80a093e:	4b11      	ldr	r3, [pc, #68]	; (80a0984 <loop+0x344>)
    {
      pirState = LOW;
 80a0940:	2200      	movs	r2, #0
 80a0942:	6022      	str	r2, [r4, #0]
 80a0944:	781b      	ldrb	r3, [r3, #0]
      Particle.publish("Motion-Detection", "absence", PRIVATE);
 80a0946:	a802      	add	r0, sp, #8
 80a0948:	f88d 2000 	strb.w	r2, [sp]
 80a094c:	490e      	ldr	r1, [pc, #56]	; (80a0988 <loop+0x348>)
 80a094e:	4a0f      	ldr	r2, [pc, #60]	; (80a098c <loop+0x34c>)
 80a0950:	f7ff fbc3 	bl	80a00da <_ZN10CloudClass7publishEPKcS1_N8particle5FlagsI15PublishFlagTypehEES5_.isra.7.constprop.10>
 80a0954:	a803      	add	r0, sp, #12
 80a0956:	f7ff fd06 	bl	80a0366 <_ZNSt14__shared_countILN9__gnu_cxx12_Lock_policyE0EED1Ev>
    }
    fadingLed(HIGH, HIGH, HIGH);
 80a095a:	2201      	movs	r2, #1
 80a095c:	4611      	mov	r1, r2
 80a095e:	4610      	mov	r0, r2
 80a0960:	f7ff fca8 	bl	80a02b4 <_Z9fadingLediii>
    fadingLed(HIGH, HIGH, LOW);
 80a0964:	2101      	movs	r1, #1
 80a0966:	4608      	mov	r0, r1
 80a0968:	2200      	movs	r2, #0
 80a096a:	f7ff fca3 	bl	80a02b4 <_Z9fadingLediii>
    fadingLed(HIGH, LOW, HIGH);
 80a096e:	2201      	movs	r2, #1
 80a0970:	2100      	movs	r1, #0
 80a0972:	4610      	mov	r0, r2
 80a0974:	f7ff fc9e 	bl	80a02b4 <_Z9fadingLediii>
  }
}
 80a0978:	b004      	add	sp, #16
 80a097a:	e8bd 87f0 	ldmia.w	sp!, {r4, r5, r6, r7, r8, r9, sl, pc}
 80a097e:	bf00      	nop
 80a0980:	20000090 	.word	0x20000090
 80a0984:	200000e8 	.word	0x200000e8
 80a0988:	080a4c59 	.word	0x080a4c59
 80a098c:	080a4c6a 	.word	0x080a4c6a

080a0990 <_ZNK8particle13__SPISettings7printToER5Print>:
  bool operator!=(const __SPISettings& other) const
  {
    return !(other == *this);
  }

  virtual size_t printTo(Print& p) const
 80a0990:	b57f      	push	{r0, r1, r2, r3, r4, r5, r6, lr}
 80a0992:	4602      	mov	r2, r0
  {
    if (default_ && clock_ == 0)
 80a0994:	7913      	ldrb	r3, [r2, #4]
  bool operator!=(const __SPISettings& other) const
  {
    return !(other == *this);
  }

  virtual size_t printTo(Print& p) const
 80a0996:	4608      	mov	r0, r1
 80a0998:	6895      	ldr	r5, [r2, #8]
  {
    if (default_ && clock_ == 0)
 80a099a:	b133      	cbz	r3, 80a09aa <_ZNK8particle13__SPISettings7printToER5Print+0x1a>
 80a099c:	b93d      	cbnz	r5, 80a09ae <_ZNK8particle13__SPISettings7printToER5Print+0x1e>
      return p.print("<SPISettings default>");
 80a099e:	490c      	ldr	r1, [pc, #48]	; (80a09d0 <_ZNK8particle13__SPISettings7printToER5Print+0x40>)
    else
      return p.printf("<SPISettings %s%lu %s MODE%d>", default_ ? "default " : "", clock_, bitOrder_ == MSBFIRST ? "MSB" : "LSB", dataMode_);
  }
 80a09a0:	b004      	add	sp, #16
 80a09a2:	e8bd 4070 	ldmia.w	sp!, {r4, r5, r6, lr}
  }

  virtual size_t printTo(Print& p) const
  {
    if (default_ && clock_ == 0)
      return p.print("<SPISettings default>");
 80a09a6:	f001 bfd1 	b.w	80a294c <_ZN5Print5printEPKc>
    else
      return p.printf("<SPISettings %s%lu %s MODE%d>", default_ ? "default " : "", clock_, bitOrder_ == MSBFIRST ? "MSB" : "LSB", dataMode_);
 80a09aa:	4b0a      	ldr	r3, [pc, #40]	; (80a09d4 <_ZNK8particle13__SPISettings7printToER5Print+0x44>)
 80a09ac:	e000      	b.n	80a09b0 <_ZNK8particle13__SPISettings7printToER5Print+0x20>
 80a09ae:	4b0a      	ldr	r3, [pc, #40]	; (80a09d8 <_ZNK8particle13__SPISettings7printToER5Print+0x48>)
 80a09b0:	7b16      	ldrb	r6, [r2, #12]
 80a09b2:	4c0a      	ldr	r4, [pc, #40]	; (80a09dc <_ZNK8particle13__SPISettings7printToER5Print+0x4c>)
 80a09b4:	490a      	ldr	r1, [pc, #40]	; (80a09e0 <_ZNK8particle13__SPISettings7printToER5Print+0x50>)
    size_t println(const __FlashStringHelper*);

    template <typename... Args>
    inline size_t printf(const char* format, Args... args)
    {
        return this->printf_impl(false, format, args...);
 80a09b6:	7b52      	ldrb	r2, [r2, #13]
 80a09b8:	2e01      	cmp	r6, #1
 80a09ba:	bf08      	it	eq
 80a09bc:	4621      	moveq	r1, r4
 80a09be:	9202      	str	r2, [sp, #8]
 80a09c0:	9101      	str	r1, [sp, #4]
 80a09c2:	9500      	str	r5, [sp, #0]
 80a09c4:	4a07      	ldr	r2, [pc, #28]	; (80a09e4 <_ZNK8particle13__SPISettings7printToER5Print+0x54>)
 80a09c6:	2100      	movs	r1, #0
 80a09c8:	f002 f8c7 	bl	80a2b5a <_ZN5Print11printf_implEbPKcz>
  }
 80a09cc:	b004      	add	sp, #16
 80a09ce:	bd70      	pop	{r4, r5, r6, pc}
 80a09d0:	080a4c83 	.word	0x080a4c83
 80a09d4:	080a5870 	.word	0x080a5870
 80a09d8:	080a4c72 	.word	0x080a4c72
 80a09dc:	080a4c7b 	.word	0x080a4c7b
 80a09e0:	080a4c7f 	.word	0x080a4c7f
 80a09e4:	080a4c99 	.word	0x080a4c99

080a09e8 <_GLOBAL__sub_I__ZN15Adafruit_SPITFTC2Ettaaaaaa>:
 80a09e8:	f001 bbea 	b.w	80a21c0 <HAL_Pin_Map>

080a09ec <_ZN12Adafruit_GFX9writeLineEsssst>:
    @param    y1  End point y coordinate
    @param    color 16-bit 5-6-5 Color to draw with
*/
/**************************************************************************/
void Adafruit_GFX::writeLine(int16_t x0, int16_t y0, int16_t x1, int16_t y1,
        uint16_t color) {
 80a09ec:	e92d 4ff0 	stmdb	sp!, {r4, r5, r6, r7, r8, r9, sl, fp, lr}
 80a09f0:	461e      	mov	r6, r3
 80a09f2:	b085      	sub	sp, #20
 80a09f4:	f9bd 3038 	ldrsh.w	r3, [sp, #56]	; 0x38
 80a09f8:	4615      	mov	r5, r2
#if defined(ESP8266)
    yield();
#endif
    int16_t steep = abs(y1 - y0) > abs(x1 - x0);
 80a09fa:	1a9a      	subs	r2, r3, r2
 80a09fc:	2a00      	cmp	r2, #0
 80a09fe:	bfb8      	it	lt
 80a0a00:	4252      	neglt	r2, r2
 80a0a02:	9200      	str	r2, [sp, #0]
 80a0a04:	1a72      	subs	r2, r6, r1
 80a0a06:	2a00      	cmp	r2, #0
 80a0a08:	bfb8      	it	lt
 80a0a0a:	4252      	neglt	r2, r2
 80a0a0c:	9201      	str	r2, [sp, #4]
    @param    y1  End point y coordinate
    @param    color 16-bit 5-6-5 Color to draw with
*/
/**************************************************************************/
void Adafruit_GFX::writeLine(int16_t x0, int16_t y0, int16_t x1, int16_t y1,
        uint16_t color) {
 80a0a0e:	460c      	mov	r4, r1
#if defined(ESP8266)
    yield();
#endif
    int16_t steep = abs(y1 - y0) > abs(x1 - x0);
    if (steep) {
 80a0a10:	9a00      	ldr	r2, [sp, #0]
 80a0a12:	9901      	ldr	r1, [sp, #4]
    @param    y1  End point y coordinate
    @param    color 16-bit 5-6-5 Color to draw with
*/
/**************************************************************************/
void Adafruit_GFX::writeLine(int16_t x0, int16_t y0, int16_t x1, int16_t y1,
        uint16_t color) {
 80a0a14:	4681      	mov	r9, r0
#if defined(ESP8266)
    yield();
#endif
    int16_t steep = abs(y1 - y0) > abs(x1 - x0);
    if (steep) {
 80a0a16:	428a      	cmp	r2, r1
    @param    y1  End point y coordinate
    @param    color 16-bit 5-6-5 Color to draw with
*/
/**************************************************************************/
void Adafruit_GFX::writeLine(int16_t x0, int16_t y0, int16_t x1, int16_t y1,
        uint16_t color) {
 80a0a18:	f8bd a03c 	ldrh.w	sl, [sp, #60]	; 0x3c
#if defined(ESP8266)
    yield();
#endif
    int16_t steep = abs(y1 - y0) > abs(x1 - x0);
    if (steep) {
 80a0a1c:	dd05      	ble.n	80a0a2a <_ZN12Adafruit_GFX9writeLineEsssst+0x3e>
 80a0a1e:	4632      	mov	r2, r6
        _swap_int16_t(x0, y0);
        _swap_int16_t(x1, y1);
 80a0a20:	461e      	mov	r6, r3
 80a0a22:	4613      	mov	r3, r2
        uint16_t color) {
#if defined(ESP8266)
    yield();
#endif
    int16_t steep = abs(y1 - y0) > abs(x1 - x0);
    if (steep) {
 80a0a24:	4622      	mov	r2, r4
        _swap_int16_t(x0, y0);
 80a0a26:	462c      	mov	r4, r5
 80a0a28:	4615      	mov	r5, r2
        _swap_int16_t(x1, y1);
    }

    if (x0 > x1) {
 80a0a2a:	42b4      	cmp	r4, r6
 80a0a2c:	dd05      	ble.n	80a0a3a <_ZN12Adafruit_GFX9writeLineEsssst+0x4e>
 80a0a2e:	462a      	mov	r2, r5
        _swap_int16_t(x0, x1);
        _swap_int16_t(y0, y1);
 80a0a30:	461d      	mov	r5, r3
 80a0a32:	4613      	mov	r3, r2
    if (steep) {
        _swap_int16_t(x0, y0);
        _swap_int16_t(x1, y1);
    }

    if (x0 > x1) {
 80a0a34:	4622      	mov	r2, r4
 80a0a36:	4634      	mov	r4, r6
 80a0a38:	4616      	mov	r6, r2
        _swap_int16_t(y0, y1);
    }

    int16_t dx, dy;
    dx = x1 - x0;
    dy = abs(y1 - y0);
 80a0a3a:	1b5a      	subs	r2, r3, r5
 80a0a3c:	2a00      	cmp	r2, #0
        _swap_int16_t(x0, x1);
        _swap_int16_t(y0, y1);
    }

    int16_t dx, dy;
    dx = x1 - x0;
 80a0a3e:	ebc4 0806 	rsb	r8, r4, r6
    dy = abs(y1 - y0);
 80a0a42:	bfb8      	it	lt
 80a0a44:	4252      	neglt	r2, r2
        _swap_int16_t(x0, x1);
        _swap_int16_t(y0, y1);
    }

    int16_t dx, dy;
    dx = x1 - x0;
 80a0a46:	fa1f f888 	uxth.w	r8, r8
    dy = abs(y1 - y0);
 80a0a4a:	9203      	str	r2, [sp, #12]

    int16_t err = dx / 2;
 80a0a4c:	fa0f f788 	sxth.w	r7, r8
 80a0a50:	2202      	movs	r2, #2
    int16_t ystep;

    if (y0 < y1) {
        ystep = 1;
    } else {
        ystep = -1;
 80a0a52:	429d      	cmp	r5, r3
 80a0a54:	bfb4      	ite	lt
 80a0a56:	2301      	movlt	r3, #1
 80a0a58:	f04f 33ff 	movge.w	r3, #4294967295

    int16_t dx, dy;
    dx = x1 - x0;
    dy = abs(y1 - y0);

    int16_t err = dx / 2;
 80a0a5c:	fb97 f7f2 	sdiv	r7, r7, r2
    int16_t ystep;

    if (y0 < y1) {
        ystep = 1;
    } else {
        ystep = -1;
 80a0a60:	9302      	str	r3, [sp, #8]
    }

    for (; x0<=x1; x0++) {
 80a0a62:	42b4      	cmp	r4, r6
 80a0a64:	dc1f      	bgt.n	80a0aa6 <_ZN12Adafruit_GFX9writeLineEsssst+0xba>
        if (steep) {
 80a0a66:	9a01      	ldr	r2, [sp, #4]
 80a0a68:	9b00      	ldr	r3, [sp, #0]
            writePixel(y0, x0, color);
        } else {
            writePixel(x0, y0, color);
 80a0a6a:	4648      	mov	r0, r9
    } else {
        ystep = -1;
    }

    for (; x0<=x1; x0++) {
        if (steep) {
 80a0a6c:	4293      	cmp	r3, r2
 80a0a6e:	f8d9 3000 	ldr.w	r3, [r9]
            writePixel(y0, x0, color);
 80a0a72:	bfc8      	it	gt
 80a0a74:	4622      	movgt	r2, r4
 80a0a76:	f8d3 b018 	ldr.w	fp, [r3, #24]
 80a0a7a:	bfc8      	it	gt
 80a0a7c:	4629      	movgt	r1, r5
 80a0a7e:	4653      	mov	r3, sl
        } else {
            writePixel(x0, y0, color);
 80a0a80:	bfdc      	itt	le
 80a0a82:	462a      	movle	r2, r5
 80a0a84:	4621      	movle	r1, r4
 80a0a86:	47d8      	blx	fp
        }
        err -= dy;
 80a0a88:	9b03      	ldr	r3, [sp, #12]
 80a0a8a:	1aff      	subs	r7, r7, r3
 80a0a8c:	b2bb      	uxth	r3, r7
 80a0a8e:	b21f      	sxth	r7, r3
        if (err < 0) {
 80a0a90:	2f00      	cmp	r7, #0
 80a0a92:	da05      	bge.n	80a0aa0 <_ZN12Adafruit_GFX9writeLineEsssst+0xb4>
            y0 += ystep;
 80a0a94:	9a02      	ldr	r2, [sp, #8]
            err += dx;
 80a0a96:	eb08 0703 	add.w	r7, r8, r3
        } else {
            writePixel(x0, y0, color);
        }
        err -= dy;
        if (err < 0) {
            y0 += ystep;
 80a0a9a:	4415      	add	r5, r2
 80a0a9c:	b22d      	sxth	r5, r5
            err += dx;
 80a0a9e:	b23f      	sxth	r7, r7
 80a0aa0:	3401      	adds	r4, #1
 80a0aa2:	b224      	sxth	r4, r4
        ystep = 1;
    } else {
        ystep = -1;
    }

    for (; x0<=x1; x0++) {
 80a0aa4:	e7dd      	b.n	80a0a62 <_ZN12Adafruit_GFX9writeLineEsssst+0x76>
        if (err < 0) {
            y0 += ystep;
            err += dx;
        }
    }
}
 80a0aa6:	b005      	add	sp, #20
 80a0aa8:	e8bd 8ff0 	ldmia.w	sp!, {r4, r5, r6, r7, r8, r9, sl, fp, pc}

080a0aac <_ZN12Adafruit_GFX10writePixelEsst>:
    @param   x   x coordinate
    @param   y   y coordinate
   @param    color 16-bit 5-6-5 Color to fill with
*/
/**************************************************************************/
void Adafruit_GFX::writePixel(int16_t x, int16_t y, uint16_t color){
 80a0aac:	b410      	push	{r4}
    drawPixel(x, y, color);
 80a0aae:	6804      	ldr	r4, [r0, #0]
 80a0ab0:	6924      	ldr	r4, [r4, #16]
 80a0ab2:	46a4      	mov	ip, r4
}
 80a0ab4:	bc10      	pop	{r4}
    @param   y   y coordinate
   @param    color 16-bit 5-6-5 Color to fill with
*/
/**************************************************************************/
void Adafruit_GFX::writePixel(int16_t x, int16_t y, uint16_t color){
    drawPixel(x, y, color);
 80a0ab6:	4760      	bx	ip

080a0ab8 <_ZN12Adafruit_GFX14writeFastVLineEssst>:
    @param    h   Height in pixels
   @param    color 16-bit 5-6-5 Color to fill with
*/
/**************************************************************************/
void Adafruit_GFX::writeFastVLine(int16_t x, int16_t y,
        int16_t h, uint16_t color) {
 80a0ab8:	b430      	push	{r4, r5}
 80a0aba:	f8bd 5008 	ldrh.w	r5, [sp, #8]
    // Overwrite in subclasses if startWrite is defined!
    // Can be just writeLine(x, y, x, y+h-1, color);
    // or writeFillRect(x, y, 1, h, color);
    drawFastVLine(x, y, h, color);
 80a0abe:	6804      	ldr	r4, [r0, #0]
 80a0ac0:	9502      	str	r5, [sp, #8]
 80a0ac2:	6ba4      	ldr	r4, [r4, #56]	; 0x38
 80a0ac4:	46a4      	mov	ip, r4
}
 80a0ac6:	bc30      	pop	{r4, r5}
void Adafruit_GFX::writeFastVLine(int16_t x, int16_t y,
        int16_t h, uint16_t color) {
    // Overwrite in subclasses if startWrite is defined!
    // Can be just writeLine(x, y, x, y+h-1, color);
    // or writeFillRect(x, y, 1, h, color);
    drawFastVLine(x, y, h, color);
 80a0ac8:	4760      	bx	ip

080a0aca <_ZN12Adafruit_GFX14writeFastHLineEssst>:
    @param    w   Width in pixels
   @param    color 16-bit 5-6-5 Color to fill with
*/
/**************************************************************************/
void Adafruit_GFX::writeFastHLine(int16_t x, int16_t y,
        int16_t w, uint16_t color) {
 80a0aca:	b430      	push	{r4, r5}
 80a0acc:	f8bd 5008 	ldrh.w	r5, [sp, #8]
    // Overwrite in subclasses if startWrite is defined!
    // Example: writeLine(x, y, x+w-1, y, color);
    // or writeFillRect(x, y, w, 1, color);
    drawFastHLine(x, y, w, color);
 80a0ad0:	6804      	ldr	r4, [r0, #0]
 80a0ad2:	9502      	str	r5, [sp, #8]
 80a0ad4:	6be4      	ldr	r4, [r4, #60]	; 0x3c
 80a0ad6:	46a4      	mov	ip, r4
}
 80a0ad8:	bc30      	pop	{r4, r5}
void Adafruit_GFX::writeFastHLine(int16_t x, int16_t y,
        int16_t w, uint16_t color) {
    // Overwrite in subclasses if startWrite is defined!
    // Example: writeLine(x, y, x+w-1, y, color);
    // or writeFillRect(x, y, w, 1, color);
    drawFastHLine(x, y, w, color);
 80a0ada:	4760      	bx	ip

080a0adc <_ZN12Adafruit_GFX13writeFillRectEsssst>:
    @param    h   Height in pixels
   @param    color 16-bit 5-6-5 Color to fill with
*/
/**************************************************************************/
void Adafruit_GFX::writeFillRect(int16_t x, int16_t y, int16_t w, int16_t h,
        uint16_t color) {
 80a0adc:	b470      	push	{r4, r5, r6}
 80a0ade:	f9bd 500c 	ldrsh.w	r5, [sp, #12]
 80a0ae2:	f8bd 6010 	ldrh.w	r6, [sp, #16]
    // Overwrite in subclasses if desired!
    fillRect(x,y,w,h,color);
 80a0ae6:	6804      	ldr	r4, [r0, #0]
 80a0ae8:	9604      	str	r6, [sp, #16]
 80a0aea:	9503      	str	r5, [sp, #12]
 80a0aec:	6c24      	ldr	r4, [r4, #64]	; 0x40
 80a0aee:	46a4      	mov	ip, r4
}
 80a0af0:	bc70      	pop	{r4, r5, r6}
*/
/**************************************************************************/
void Adafruit_GFX::writeFillRect(int16_t x, int16_t y, int16_t w, int16_t h,
        uint16_t color) {
    // Overwrite in subclasses if desired!
    fillRect(x,y,w,h,color);
 80a0af2:	4760      	bx	ip

080a0af4 <_ZN12Adafruit_GFX10startWriteEv>:
/**************************************************************************/
/*!
   @brief    End a display-writing routine, overwrite in subclasses if startWrite is defined!
*/
/**************************************************************************/
void Adafruit_GFX::endWrite(){
 80a0af4:	4770      	bx	lr

080a0af6 <_ZN12Adafruit_GFX13drawFastVLineEssst>:
    @param    h   Height in pixels
   @param    color 16-bit 5-6-5 Color to fill with
*/
/**************************************************************************/
void Adafruit_GFX::drawFastVLine(int16_t x, int16_t y,
        int16_t h, uint16_t color) {
 80a0af6:	e92d 41f3 	stmdb	sp!, {r0, r1, r4, r5, r6, r7, r8, lr}
 80a0afa:	461c      	mov	r4, r3
 80a0afc:	4616      	mov	r6, r2
 80a0afe:	4605      	mov	r5, r0
 80a0b00:	460f      	mov	r7, r1
    startWrite();
 80a0b02:	6803      	ldr	r3, [r0, #0]
    writeLine(x, y, x, y+h-1, color);
 80a0b04:	3c01      	subs	r4, #1
    @param    h   Height in pixels
   @param    color 16-bit 5-6-5 Color to fill with
*/
/**************************************************************************/
void Adafruit_GFX::drawFastVLine(int16_t x, int16_t y,
        int16_t h, uint16_t color) {
 80a0b06:	f8bd 8020 	ldrh.w	r8, [sp, #32]
    startWrite();
 80a0b0a:	695b      	ldr	r3, [r3, #20]
    writeLine(x, y, x, y+h-1, color);
 80a0b0c:	4434      	add	r4, r6
   @param    color 16-bit 5-6-5 Color to fill with
*/
/**************************************************************************/
void Adafruit_GFX::drawFastVLine(int16_t x, int16_t y,
        int16_t h, uint16_t color) {
    startWrite();
 80a0b0e:	4798      	blx	r3
    writeLine(x, y, x, y+h-1, color);
 80a0b10:	b224      	sxth	r4, r4
 80a0b12:	682b      	ldr	r3, [r5, #0]
 80a0b14:	f8cd 8004 	str.w	r8, [sp, #4]
 80a0b18:	9400      	str	r4, [sp, #0]
 80a0b1a:	6a9c      	ldr	r4, [r3, #40]	; 0x28
 80a0b1c:	4628      	mov	r0, r5
 80a0b1e:	463b      	mov	r3, r7
 80a0b20:	4632      	mov	r2, r6
 80a0b22:	4639      	mov	r1, r7
 80a0b24:	47a0      	blx	r4
    endWrite();
 80a0b26:	4628      	mov	r0, r5
 80a0b28:	682b      	ldr	r3, [r5, #0]
 80a0b2a:	6adb      	ldr	r3, [r3, #44]	; 0x2c
}
 80a0b2c:	b002      	add	sp, #8
 80a0b2e:	e8bd 41f0 	ldmia.w	sp!, {r4, r5, r6, r7, r8, lr}
/**************************************************************************/
void Adafruit_GFX::drawFastVLine(int16_t x, int16_t y,
        int16_t h, uint16_t color) {
    startWrite();
    writeLine(x, y, x, y+h-1, color);
    endWrite();
 80a0b32:	4718      	bx	r3

080a0b34 <_ZN12Adafruit_GFX13drawFastHLineEssst>:
    @param    w   Width in pixels
   @param    color 16-bit 5-6-5 Color to fill with
*/
/**************************************************************************/
void Adafruit_GFX::drawFastHLine(int16_t x, int16_t y,
        int16_t w, uint16_t color) {
 80a0b34:	e92d 41f3 	stmdb	sp!, {r0, r1, r4, r5, r6, r7, r8, lr}
 80a0b38:	4617      	mov	r7, r2
 80a0b3a:	4604      	mov	r4, r0
 80a0b3c:	461d      	mov	r5, r3
 80a0b3e:	460e      	mov	r6, r1
    startWrite();
 80a0b40:	6803      	ldr	r3, [r0, #0]
    @param    w   Width in pixels
   @param    color 16-bit 5-6-5 Color to fill with
*/
/**************************************************************************/
void Adafruit_GFX::drawFastHLine(int16_t x, int16_t y,
        int16_t w, uint16_t color) {
 80a0b42:	f8bd 8020 	ldrh.w	r8, [sp, #32]
    startWrite();
 80a0b46:	695b      	ldr	r3, [r3, #20]
 80a0b48:	4798      	blx	r3
    writeLine(x, y, x+w-1, y, color);
 80a0b4a:	e88d 0180 	stmia.w	sp, {r7, r8}
 80a0b4e:	6822      	ldr	r2, [r4, #0]
 80a0b50:	1e6b      	subs	r3, r5, #1
 80a0b52:	4433      	add	r3, r6
 80a0b54:	6a95      	ldr	r5, [r2, #40]	; 0x28
 80a0b56:	4620      	mov	r0, r4
 80a0b58:	b21b      	sxth	r3, r3
 80a0b5a:	463a      	mov	r2, r7
 80a0b5c:	4631      	mov	r1, r6
 80a0b5e:	47a8      	blx	r5
    endWrite();
 80a0b60:	4620      	mov	r0, r4
 80a0b62:	6823      	ldr	r3, [r4, #0]
 80a0b64:	6adb      	ldr	r3, [r3, #44]	; 0x2c
}
 80a0b66:	b002      	add	sp, #8
 80a0b68:	e8bd 41f0 	ldmia.w	sp!, {r4, r5, r6, r7, r8, lr}
/**************************************************************************/
void Adafruit_GFX::drawFastHLine(int16_t x, int16_t y,
        int16_t w, uint16_t color) {
    startWrite();
    writeLine(x, y, x+w-1, y, color);
    endWrite();
 80a0b6c:	4718      	bx	r3

080a0b6e <_ZN12Adafruit_GFX8fillRectEsssst>:
    @param    h   Height in pixels
   @param    color 16-bit 5-6-5 Color to fill with
*/
/**************************************************************************/
void Adafruit_GFX::fillRect(int16_t x, int16_t y, int16_t w, int16_t h,
        uint16_t color) {
 80a0b6e:	e92d 47f3 	stmdb	sp!, {r0, r1, r4, r5, r6, r7, r8, r9, sl, lr}
 80a0b72:	461e      	mov	r6, r3
    startWrite();
 80a0b74:	6803      	ldr	r3, [r0, #0]
    @param    h   Height in pixels
   @param    color 16-bit 5-6-5 Color to fill with
*/
/**************************************************************************/
void Adafruit_GFX::fillRect(int16_t x, int16_t y, int16_t w, int16_t h,
        uint16_t color) {
 80a0b76:	460c      	mov	r4, r1
    startWrite();
 80a0b78:	695b      	ldr	r3, [r3, #20]
    @param    h   Height in pixels
   @param    color 16-bit 5-6-5 Color to fill with
*/
/**************************************************************************/
void Adafruit_GFX::fillRect(int16_t x, int16_t y, int16_t w, int16_t h,
        uint16_t color) {
 80a0b7a:	4605      	mov	r5, r0
 80a0b7c:	4617      	mov	r7, r2
 80a0b7e:	f9bd 8028 	ldrsh.w	r8, [sp, #40]	; 0x28
 80a0b82:	f8bd 902c 	ldrh.w	r9, [sp, #44]	; 0x2c
    startWrite();
 80a0b86:	4798      	blx	r3
    for (int16_t i=x; i<x+w; i++) {
 80a0b88:	4426      	add	r6, r4
 80a0b8a:	42b4      	cmp	r4, r6
 80a0b8c:	682a      	ldr	r2, [r5, #0]
 80a0b8e:	da0b      	bge.n	80a0ba8 <_ZN12Adafruit_GFX8fillRectEsssst+0x3a>
        writeFastVLine(i, y, h, color);
 80a0b90:	f8cd 9000 	str.w	r9, [sp]
 80a0b94:	f8d2 a020 	ldr.w	sl, [r2, #32]
 80a0b98:	4621      	mov	r1, r4
 80a0b9a:	4643      	mov	r3, r8
 80a0b9c:	463a      	mov	r2, r7
 80a0b9e:	4628      	mov	r0, r5
 80a0ba0:	3401      	adds	r4, #1
 80a0ba2:	47d0      	blx	sl
 80a0ba4:	b224      	sxth	r4, r4
*/
/**************************************************************************/
void Adafruit_GFX::fillRect(int16_t x, int16_t y, int16_t w, int16_t h,
        uint16_t color) {
    startWrite();
    for (int16_t i=x; i<x+w; i++) {
 80a0ba6:	e7f0      	b.n	80a0b8a <_ZN12Adafruit_GFX8fillRectEsssst+0x1c>
        writeFastVLine(i, y, h, color);
    }
    endWrite();
 80a0ba8:	4628      	mov	r0, r5
 80a0baa:	6ad3      	ldr	r3, [r2, #44]	; 0x2c
}
 80a0bac:	b002      	add	sp, #8
 80a0bae:	e8bd 47f0 	ldmia.w	sp!, {r4, r5, r6, r7, r8, r9, sl, lr}
        uint16_t color) {
    startWrite();
    for (int16_t i=x; i<x+w; i++) {
        writeFastVLine(i, y, h, color);
    }
    endWrite();
 80a0bb2:	4718      	bx	r3

080a0bb4 <_ZN12Adafruit_GFX10fillScreenEt>:
/*!
   @brief    Fill the screen completely with one color. Update in subclasses if desired!
    @param    color 16-bit 5-6-5 Color to fill with
*/
/**************************************************************************/
void Adafruit_GFX::fillScreen(uint16_t color) {
 80a0bb4:	b513      	push	{r0, r1, r4, lr}
    fillRect(0, 0, _width, _height, color);
 80a0bb6:	f9b0 200e 	ldrsh.w	r2, [r0, #14]
 80a0bba:	6804      	ldr	r4, [r0, #0]
 80a0bbc:	9101      	str	r1, [sp, #4]
 80a0bbe:	9200      	str	r2, [sp, #0]
 80a0bc0:	2200      	movs	r2, #0
 80a0bc2:	f9b0 300c 	ldrsh.w	r3, [r0, #12]
 80a0bc6:	6c24      	ldr	r4, [r4, #64]	; 0x40
 80a0bc8:	4611      	mov	r1, r2
 80a0bca:	47a0      	blx	r4
}
 80a0bcc:	b002      	add	sp, #8
 80a0bce:	bd10      	pop	{r4, pc}

080a0bd0 <_ZN12Adafruit_GFX8drawLineEsssst>:
    @param    y1  End point y coordinate
    @param    color 16-bit 5-6-5 Color to draw with
*/
/**************************************************************************/
void Adafruit_GFX::drawLine(int16_t x0, int16_t y0, int16_t x1, int16_t y1,
        uint16_t color) {
 80a0bd0:	e92d 43f7 	stmdb	sp!, {r0, r1, r2, r4, r5, r6, r7, r8, r9, lr}
    // Update in subclasses if desired!
    if(x0 == x1){
 80a0bd4:	4299      	cmp	r1, r3
    @param    y1  End point y coordinate
    @param    color 16-bit 5-6-5 Color to draw with
*/
/**************************************************************************/
void Adafruit_GFX::drawLine(int16_t x0, int16_t y0, int16_t x1, int16_t y1,
        uint16_t color) {
 80a0bd6:	4690      	mov	r8, r2
 80a0bd8:	4607      	mov	r7, r0
 80a0bda:	460e      	mov	r6, r1
 80a0bdc:	461c      	mov	r4, r3
 80a0bde:	f9bd 5028 	ldrsh.w	r5, [sp, #40]	; 0x28
 80a0be2:	f8bd 902c 	ldrh.w	r9, [sp, #44]	; 0x2c
 80a0be6:	6802      	ldr	r2, [r0, #0]
    // Update in subclasses if desired!
    if(x0 == x1){
 80a0be8:	d10b      	bne.n	80a0c02 <_ZN12Adafruit_GFX8drawLineEsssst+0x32>
        if(y0 > y1) _swap_int16_t(y0, y1);
 80a0bea:	45a8      	cmp	r8, r5
 80a0bec:	bfc2      	ittt	gt
 80a0bee:	4643      	movgt	r3, r8
 80a0bf0:	46a8      	movgt	r8, r5
 80a0bf2:	461d      	movgt	r5, r3
        drawFastVLine(x0, y0, y1 - y0 + 1, color);
 80a0bf4:	f8cd 9028 	str.w	r9, [sp, #40]	; 0x28
 80a0bf8:	1c6b      	adds	r3, r5, #1
 80a0bfa:	ebc8 0303 	rsb	r3, r8, r3
 80a0bfe:	6b94      	ldr	r4, [r2, #56]	; 0x38
 80a0c00:	e00b      	b.n	80a0c1a <_ZN12Adafruit_GFX8drawLineEsssst+0x4a>
    } else if(y0 == y1){
 80a0c02:	45a8      	cmp	r8, r5
 80a0c04:	d112      	bne.n	80a0c2c <_ZN12Adafruit_GFX8drawLineEsssst+0x5c>
        if(x0 > x1) _swap_int16_t(x0, x1);
 80a0c06:	4299      	cmp	r1, r3
 80a0c08:	bfc2      	ittt	gt
 80a0c0a:	460b      	movgt	r3, r1
 80a0c0c:	4626      	movgt	r6, r4
 80a0c0e:	461c      	movgt	r4, r3
        drawFastHLine(x0, y0, x1 - x0 + 1, color);
 80a0c10:	f8cd 9028 	str.w	r9, [sp, #40]	; 0x28
 80a0c14:	1c63      	adds	r3, r4, #1
 80a0c16:	6bd4      	ldr	r4, [r2, #60]	; 0x3c
 80a0c18:	1b9b      	subs	r3, r3, r6
 80a0c1a:	4642      	mov	r2, r8
 80a0c1c:	4631      	mov	r1, r6
 80a0c1e:	4638      	mov	r0, r7
 80a0c20:	46a4      	mov	ip, r4
 80a0c22:	b21b      	sxth	r3, r3
    } else {
        startWrite();
        writeLine(x0, y0, x1, y1, color);
        endWrite();
    }
}
 80a0c24:	b003      	add	sp, #12
 80a0c26:	e8bd 43f0 	ldmia.w	sp!, {r4, r5, r6, r7, r8, r9, lr}
    if(x0 == x1){
        if(y0 > y1) _swap_int16_t(y0, y1);
        drawFastVLine(x0, y0, y1 - y0 + 1, color);
    } else if(y0 == y1){
        if(x0 > x1) _swap_int16_t(x0, x1);
        drawFastHLine(x0, y0, x1 - x0 + 1, color);
 80a0c2a:	4760      	bx	ip
    } else {
        startWrite();
 80a0c2c:	6953      	ldr	r3, [r2, #20]
 80a0c2e:	4798      	blx	r3
        writeLine(x0, y0, x1, y1, color);
 80a0c30:	683b      	ldr	r3, [r7, #0]
 80a0c32:	e88d 0220 	stmia.w	sp, {r5, r9}
 80a0c36:	4638      	mov	r0, r7
 80a0c38:	6a9d      	ldr	r5, [r3, #40]	; 0x28
 80a0c3a:	4642      	mov	r2, r8
 80a0c3c:	4623      	mov	r3, r4
 80a0c3e:	4631      	mov	r1, r6
 80a0c40:	47a8      	blx	r5
        endWrite();
 80a0c42:	4638      	mov	r0, r7
 80a0c44:	683b      	ldr	r3, [r7, #0]
 80a0c46:	6adb      	ldr	r3, [r3, #44]	; 0x2c
    }
}
 80a0c48:	b003      	add	sp, #12
 80a0c4a:	e8bd 43f0 	ldmia.w	sp!, {r4, r5, r6, r7, r8, r9, lr}
        if(x0 > x1) _swap_int16_t(x0, x1);
        drawFastHLine(x0, y0, x1 - x0 + 1, color);
    } else {
        startWrite();
        writeLine(x0, y0, x1, y1, color);
        endWrite();
 80a0c4e:	4718      	bx	r3

080a0c50 <_ZN12Adafruit_GFX8drawRectEsssst>:
    @param    h   Height in pixels
    @param    color 16-bit 5-6-5 Color to draw with
*/
/**************************************************************************/
void Adafruit_GFX::drawRect(int16_t x, int16_t y, int16_t w, int16_t h,
        uint16_t color) {
 80a0c50:	e92d 47f3 	stmdb	sp!, {r0, r1, r4, r5, r6, r7, r8, r9, sl, lr}
 80a0c54:	4604      	mov	r4, r0
 80a0c56:	460d      	mov	r5, r1
 80a0c58:	4617      	mov	r7, r2
 80a0c5a:	461e      	mov	r6, r3
    startWrite();
 80a0c5c:	6803      	ldr	r3, [r0, #0]
    @param    h   Height in pixels
    @param    color 16-bit 5-6-5 Color to draw with
*/
/**************************************************************************/
void Adafruit_GFX::drawRect(int16_t x, int16_t y, int16_t w, int16_t h,
        uint16_t color) {
 80a0c5e:	f8bd 802c 	ldrh.w	r8, [sp, #44]	; 0x2c
    startWrite();
 80a0c62:	695b      	ldr	r3, [r3, #20]
    @param    h   Height in pixels
    @param    color 16-bit 5-6-5 Color to draw with
*/
/**************************************************************************/
void Adafruit_GFX::drawRect(int16_t x, int16_t y, int16_t w, int16_t h,
        uint16_t color) {
 80a0c64:	f9bd 9028 	ldrsh.w	r9, [sp, #40]	; 0x28
    startWrite();
 80a0c68:	4798      	blx	r3
    writeFastHLine(x, y, w, color);
 80a0c6a:	6823      	ldr	r3, [r4, #0]
 80a0c6c:	f8cd 8000 	str.w	r8, [sp]
 80a0c70:	f8d3 a024 	ldr.w	sl, [r3, #36]	; 0x24
 80a0c74:	463a      	mov	r2, r7
 80a0c76:	4633      	mov	r3, r6
 80a0c78:	4629      	mov	r1, r5
 80a0c7a:	4620      	mov	r0, r4
 80a0c7c:	47d0      	blx	sl
    writeFastHLine(x, y+h-1, w, color);
 80a0c7e:	6823      	ldr	r3, [r4, #0]
 80a0c80:	f109 32ff 	add.w	r2, r9, #4294967295
 80a0c84:	f8cd 8000 	str.w	r8, [sp]
 80a0c88:	443a      	add	r2, r7
 80a0c8a:	f8d3 a024 	ldr.w	sl, [r3, #36]	; 0x24
 80a0c8e:	4629      	mov	r1, r5
 80a0c90:	4633      	mov	r3, r6
 80a0c92:	4620      	mov	r0, r4
 80a0c94:	b212      	sxth	r2, r2
 80a0c96:	47d0      	blx	sl
    writeFastVLine(x, y, h, color);
 80a0c98:	6823      	ldr	r3, [r4, #0]
 80a0c9a:	f8cd 8000 	str.w	r8, [sp]
 80a0c9e:	f8d3 a020 	ldr.w	sl, [r3, #32]
 80a0ca2:	463a      	mov	r2, r7
 80a0ca4:	464b      	mov	r3, r9
 80a0ca6:	4629      	mov	r1, r5
 80a0ca8:	4620      	mov	r0, r4
 80a0caa:	47d0      	blx	sl
    writeFastVLine(x+w-1, y, h, color);
 80a0cac:	6823      	ldr	r3, [r4, #0]
 80a0cae:	1e71      	subs	r1, r6, #1
 80a0cb0:	f8cd 8000 	str.w	r8, [sp]
 80a0cb4:	4429      	add	r1, r5
 80a0cb6:	4620      	mov	r0, r4
 80a0cb8:	6a1d      	ldr	r5, [r3, #32]
 80a0cba:	463a      	mov	r2, r7
 80a0cbc:	464b      	mov	r3, r9
 80a0cbe:	b209      	sxth	r1, r1
 80a0cc0:	47a8      	blx	r5
    endWrite();
 80a0cc2:	4620      	mov	r0, r4
 80a0cc4:	6823      	ldr	r3, [r4, #0]
 80a0cc6:	6adb      	ldr	r3, [r3, #44]	; 0x2c
}
 80a0cc8:	b002      	add	sp, #8
 80a0cca:	e8bd 47f0 	ldmia.w	sp!, {r4, r5, r6, r7, r8, r9, sl, lr}
    startWrite();
    writeFastHLine(x, y, w, color);
    writeFastHLine(x, y+h-1, w, color);
    writeFastVLine(x, y, h, color);
    writeFastVLine(x+w-1, y, h, color);
    endWrite();
 80a0cce:	4718      	bx	r3

080a0cd0 <_ZN12Adafruit_GFX13invertDisplayEb>:
/*!
    @brief      Invert the display (ideally using built-in hardware command)
    @param   i  True if you want to invert, false to make 'normal'
*/
/**************************************************************************/
void Adafruit_GFX::invertDisplay(boolean i) {
 80a0cd0:	4770      	bx	lr

080a0cd2 <_ZN12Adafruit_GFX11setRotationEh>:
    @brief      Set rotation setting for display
    @param  x   0 thru 3 corresponding to 4 cardinal rotations
*/
/**************************************************************************/
void Adafruit_GFX::setRotation(uint8_t x) {
    rotation = (x & 3);
 80a0cd2:	f001 0103 	and.w	r1, r1, #3
    switch(rotation) {
 80a0cd6:	2901      	cmp	r1, #1
    @brief      Set rotation setting for display
    @param  x   0 thru 3 corresponding to 4 cardinal rotations
*/
/**************************************************************************/
void Adafruit_GFX::setRotation(uint8_t x) {
    rotation = (x & 3);
 80a0cd8:	7681      	strb	r1, [r0, #26]
 80a0cda:	8903      	ldrh	r3, [r0, #8]
 80a0cdc:	8942      	ldrh	r2, [r0, #10]
    switch(rotation) {
 80a0cde:	d004      	beq.n	80a0cea <_ZN12Adafruit_GFX11setRotationEh+0x18>
 80a0ce0:	2903      	cmp	r1, #3
 80a0ce2:	d002      	beq.n	80a0cea <_ZN12Adafruit_GFX11setRotationEh+0x18>
        case 0:
        case 2:
            _width  = WIDTH;
 80a0ce4:	8183      	strh	r3, [r0, #12]
            _height = HEIGHT;
 80a0ce6:	81c2      	strh	r2, [r0, #14]
 80a0ce8:	4770      	bx	lr
            break;
        case 1:
        case 3:
            _width  = HEIGHT;
 80a0cea:	8182      	strh	r2, [r0, #12]
            _height = WIDTH;
 80a0cec:	81c3      	strh	r3, [r0, #14]
 80a0cee:	4770      	bx	lr

080a0cf0 <_ZN12Adafruit_GFXC1Ess>:
   @param    w   Display width, in pixels
   @param    h   Display height, in pixels
*/
/**************************************************************************/
Adafruit_GFX::Adafruit_GFX(int16_t w, int16_t h):
WIDTH(w), HEIGHT(h)
 80a0cf0:	8101      	strh	r1, [r0, #8]
{
    _width    = WIDTH;
 80a0cf2:	8181      	strh	r1, [r0, #12]
    _height   = HEIGHT;
    rotation  = 0;
    cursor_y  = cursor_x    = 0;
    textsize_x = textsize_y  = 1;
    textcolor = textbgcolor = 0xFFFF;
 80a0cf4:	f64f 71ff 	movw	r1, #65535	; 0xffff
   @brief    Instatiate a GFX context for graphics! Can only be done by a superclass
   @param    w   Display width, in pixels
   @param    h   Display height, in pixels
*/
/**************************************************************************/
Adafruit_GFX::Adafruit_GFX(int16_t w, int16_t h):
 80a0cf8:	b530      	push	{r4, r5, lr}
WIDTH(w), HEIGHT(h)
 80a0cfa:	4d09      	ldr	r5, [pc, #36]	; (80a0d20 <_ZN12Adafruit_GFXC1Ess+0x30>)
  protected:
    void setWriteError(int err = 1) { write_error = err; }
    size_t printf_impl(bool newline, const char* format, ...);

  public:
    Print() : write_error(0) {}
 80a0cfc:	2400      	movs	r4, #0
 80a0cfe:	8142      	strh	r2, [r0, #10]
{
    _width    = WIDTH;
    _height   = HEIGHT;
 80a0d00:	81c2      	strh	r2, [r0, #14]
    rotation  = 0;
    cursor_y  = cursor_x    = 0;
    textsize_x = textsize_y  = 1;
 80a0d02:	2201      	movs	r2, #1
 80a0d04:	6044      	str	r4, [r0, #4]
   @param    w   Display width, in pixels
   @param    h   Display height, in pixels
*/
/**************************************************************************/
Adafruit_GFX::Adafruit_GFX(int16_t w, int16_t h):
WIDTH(w), HEIGHT(h)
 80a0d06:	6005      	str	r5, [r0, #0]
{
    _width    = WIDTH;
    _height   = HEIGHT;
    rotation  = 0;
 80a0d08:	7684      	strb	r4, [r0, #26]
    cursor_y  = cursor_x    = 0;
 80a0d0a:	8204      	strh	r4, [r0, #16]
 80a0d0c:	8244      	strh	r4, [r0, #18]
    textsize_x = textsize_y  = 1;
 80a0d0e:	7642      	strb	r2, [r0, #25]
 80a0d10:	7602      	strb	r2, [r0, #24]
    textcolor = textbgcolor = 0xFFFF;
 80a0d12:	82c1      	strh	r1, [r0, #22]
 80a0d14:	8281      	strh	r1, [r0, #20]
    wrap      = true;
 80a0d16:	76c2      	strb	r2, [r0, #27]
    _cp437    = false;
 80a0d18:	7704      	strb	r4, [r0, #28]
    gfxFont   = NULL;
 80a0d1a:	6204      	str	r4, [r0, #32]
}
 80a0d1c:	bd30      	pop	{r4, r5, pc}
 80a0d1e:	bf00      	nop
 80a0d20:	080a4cc0 	.word	0x080a4cc0

080a0d24 <_ZN12Adafruit_GFX10drawCircleEssst>:
    @param    r   Radius of circle
    @param    color 16-bit 5-6-5 Color to draw with
*/
/**************************************************************************/
void Adafruit_GFX::drawCircle(int16_t x0, int16_t y0, int16_t r,
        uint16_t color) {
 80a0d24:	e92d 4ff0 	stmdb	sp!, {r4, r5, r6, r7, r8, r9, sl, fp, lr}
 80a0d28:	4604      	mov	r4, r0
 80a0d2a:	4617      	mov	r7, r2
 80a0d2c:	4688      	mov	r8, r1
 80a0d2e:	b08b      	sub	sp, #44	; 0x2c
 80a0d30:	9303      	str	r3, [sp, #12]
#if defined(ESP8266)
    yield();
#endif
    int16_t f = 1 - r;
 80a0d32:	f8bd 600c 	ldrh.w	r6, [sp, #12]
    @param    r   Radius of circle
    @param    color 16-bit 5-6-5 Color to draw with
*/
/**************************************************************************/
void Adafruit_GFX::drawCircle(int16_t x0, int16_t y0, int16_t r,
        uint16_t color) {
 80a0d36:	f8bd 5050 	ldrh.w	r5, [sp, #80]	; 0x50
#if defined(ESP8266)
    yield();
#endif
    int16_t f = 1 - r;
 80a0d3a:	f1c6 0301 	rsb	r3, r6, #1
 80a0d3e:	b21b      	sxth	r3, r3
 80a0d40:	9302      	str	r3, [sp, #8]
    int16_t ddF_x = 1;
    int16_t ddF_y = -2 * r;
 80a0d42:	ebc6 33c6 	rsb	r3, r6, r6, lsl #15
 80a0d46:	005b      	lsls	r3, r3, #1
 80a0d48:	b21b      	sxth	r3, r3
 80a0d4a:	9306      	str	r3, [sp, #24]
    int16_t x = 0;
    int16_t y = r;

    startWrite();
 80a0d4c:	6803      	ldr	r3, [r0, #0]
    writePixel(x0  , y0+r, color);
 80a0d4e:	fa1f fb87 	uxth.w	fp, r7
    int16_t ddF_x = 1;
    int16_t ddF_y = -2 * r;
    int16_t x = 0;
    int16_t y = r;

    startWrite();
 80a0d52:	695b      	ldr	r3, [r3, #20]
 80a0d54:	4798      	blx	r3
    writePixel(x0  , y0+r, color);
 80a0d56:	6823      	ldr	r3, [r4, #0]
 80a0d58:	eb06 020b 	add.w	r2, r6, fp
 80a0d5c:	f8d3 9018 	ldr.w	r9, [r3, #24]
 80a0d60:	4641      	mov	r1, r8
 80a0d62:	462b      	mov	r3, r5
 80a0d64:	b212      	sxth	r2, r2
 80a0d66:	4620      	mov	r0, r4
 80a0d68:	47c8      	blx	r9
    writePixel(x0  , y0-r, color);
 80a0d6a:	6823      	ldr	r3, [r4, #0]
 80a0d6c:	ebc6 020b 	rsb	r2, r6, fp
 80a0d70:	4641      	mov	r1, r8
 80a0d72:	f8d3 9018 	ldr.w	r9, [r3, #24]
 80a0d76:	b212      	sxth	r2, r2
 80a0d78:	462b      	mov	r3, r5
 80a0d7a:	4620      	mov	r0, r4
 80a0d7c:	47c8      	blx	r9
    writePixel(x0+r, y0  , color);
 80a0d7e:	fa1f f388 	uxth.w	r3, r8
 80a0d82:	18f1      	adds	r1, r6, r3
 80a0d84:	9301      	str	r3, [sp, #4]
 80a0d86:	6823      	ldr	r3, [r4, #0]
 80a0d88:	463a      	mov	r2, r7
 80a0d8a:	f8d3 8018 	ldr.w	r8, [r3, #24]
 80a0d8e:	b209      	sxth	r1, r1
 80a0d90:	462b      	mov	r3, r5
 80a0d92:	4620      	mov	r0, r4
 80a0d94:	47c0      	blx	r8
    writePixel(x0-r, y0  , color);
 80a0d96:	9b01      	ldr	r3, [sp, #4]
 80a0d98:	463a      	mov	r2, r7
 80a0d9a:	1b99      	subs	r1, r3, r6
 80a0d9c:	6823      	ldr	r3, [r4, #0]
 80a0d9e:	b209      	sxth	r1, r1
 80a0da0:	699e      	ldr	r6, [r3, #24]
 80a0da2:	4620      	mov	r0, r4
 80a0da4:	462b      	mov	r3, r5
 80a0da6:	47b0      	blx	r6
 80a0da8:	2300      	movs	r3, #0
 80a0daa:	9305      	str	r3, [sp, #20]
 80a0dac:	9b01      	ldr	r3, [sp, #4]
 80a0dae:	3301      	adds	r3, #1
 80a0db0:	9307      	str	r3, [sp, #28]
 80a0db2:	9b01      	ldr	r3, [sp, #4]
 80a0db4:	3b01      	subs	r3, #1
 80a0db6:	9308      	str	r3, [sp, #32]
 80a0db8:	f10b 0301 	add.w	r3, fp, #1
 80a0dbc:	9309      	str	r3, [sp, #36]	; 0x24

    while (x<y) {
 80a0dbe:	f9bd 3014 	ldrsh.w	r3, [sp, #20]
 80a0dc2:	9a03      	ldr	r2, [sp, #12]
 80a0dc4:	4293      	cmp	r3, r2
 80a0dc6:	f280 8084 	bge.w	80a0ed2 <_ZN12Adafruit_GFX10drawCircleEssst+0x1ae>
        if (f >= 0) {
 80a0dca:	9b02      	ldr	r3, [sp, #8]
 80a0dcc:	2b00      	cmp	r3, #0
 80a0dce:	db0b      	blt.n	80a0de8 <_ZN12Adafruit_GFX10drawCircleEssst+0xc4>
            y--;
 80a0dd0:	1e53      	subs	r3, r2, #1
 80a0dd2:	b21b      	sxth	r3, r3
 80a0dd4:	9303      	str	r3, [sp, #12]
            ddF_y += 2;
 80a0dd6:	9b06      	ldr	r3, [sp, #24]
 80a0dd8:	3302      	adds	r3, #2
 80a0dda:	b29b      	uxth	r3, r3
 80a0ddc:	b21a      	sxth	r2, r3
 80a0dde:	9206      	str	r2, [sp, #24]
            f += ddF_y;
 80a0de0:	9a02      	ldr	r2, [sp, #8]
 80a0de2:	4413      	add	r3, r2
 80a0de4:	b21b      	sxth	r3, r3
 80a0de6:	9302      	str	r3, [sp, #8]
 80a0de8:	f8bd 7014 	ldrh.w	r7, [sp, #20]
        }
        x++;
        ddF_x += 2;
        f += ddF_x;
 80a0dec:	9b02      	ldr	r3, [sp, #8]

        writePixel(x0 + x, y0 + y, color);
 80a0dee:	4620      	mov	r0, r4
            ddF_y += 2;
            f += ddF_y;
        }
        x++;
        ddF_x += 2;
        f += ddF_x;
 80a0df0:	eb03 0347 	add.w	r3, r3, r7, lsl #1
 80a0df4:	3303      	adds	r3, #3
 80a0df6:	b21b      	sxth	r3, r3
 80a0df8:	9302      	str	r3, [sp, #8]
 80a0dfa:	9b07      	ldr	r3, [sp, #28]
 80a0dfc:	eb07 0a03 	add.w	sl, r7, r3

        writePixel(x0 + x, y0 + y, color);
 80a0e00:	f8bd 300c 	ldrh.w	r3, [sp, #12]
 80a0e04:	fa0f fa8a 	sxth.w	sl, sl
 80a0e08:	9304      	str	r3, [sp, #16]
 80a0e0a:	eb0b 0903 	add.w	r9, fp, r3
 80a0e0e:	6823      	ldr	r3, [r4, #0]
 80a0e10:	fa0f f989 	sxth.w	r9, r9
 80a0e14:	f8d3 8018 	ldr.w	r8, [r3, #24]
 80a0e18:	464a      	mov	r2, r9
 80a0e1a:	4651      	mov	r1, sl
 80a0e1c:	462b      	mov	r3, r5
 80a0e1e:	47c0      	blx	r8
 80a0e20:	9b08      	ldr	r3, [sp, #32]
        writePixel(x0 - x, y0 + y, color);
 80a0e22:	464a      	mov	r2, r9
 80a0e24:	ebc7 0803 	rsb	r8, r7, r3
 80a0e28:	6823      	ldr	r3, [r4, #0]
 80a0e2a:	fa0f f888 	sxth.w	r8, r8
 80a0e2e:	699b      	ldr	r3, [r3, #24]
 80a0e30:	4641      	mov	r1, r8
 80a0e32:	461e      	mov	r6, r3
 80a0e34:	4620      	mov	r0, r4
 80a0e36:	462b      	mov	r3, r5
 80a0e38:	47b0      	blx	r6
        writePixel(x0 + x, y0 - y, color);
 80a0e3a:	9b04      	ldr	r3, [sp, #16]
 80a0e3c:	4651      	mov	r1, sl
 80a0e3e:	ebc3 090b 	rsb	r9, r3, fp
 80a0e42:	6823      	ldr	r3, [r4, #0]
 80a0e44:	fa0f f989 	sxth.w	r9, r9
 80a0e48:	699b      	ldr	r3, [r3, #24]
 80a0e4a:	464a      	mov	r2, r9
 80a0e4c:	461e      	mov	r6, r3
 80a0e4e:	4620      	mov	r0, r4
 80a0e50:	462b      	mov	r3, r5
 80a0e52:	47b0      	blx	r6
        writePixel(x0 - x, y0 - y, color);
 80a0e54:	6823      	ldr	r3, [r4, #0]
 80a0e56:	464a      	mov	r2, r9
 80a0e58:	f8d3 a018 	ldr.w	sl, [r3, #24]
 80a0e5c:	4641      	mov	r1, r8
 80a0e5e:	462b      	mov	r3, r5
 80a0e60:	4620      	mov	r0, r4
 80a0e62:	47d0      	blx	sl
        writePixel(x0 + y, y0 + x, color);
 80a0e64:	9b01      	ldr	r3, [sp, #4]
 80a0e66:	9a04      	ldr	r2, [sp, #16]
 80a0e68:	4620      	mov	r0, r4
 80a0e6a:	eb03 0802 	add.w	r8, r3, r2
 80a0e6e:	9b09      	ldr	r3, [sp, #36]	; 0x24
 80a0e70:	fa0f f888 	sxth.w	r8, r8
 80a0e74:	eb07 0903 	add.w	r9, r7, r3
 80a0e78:	6823      	ldr	r3, [r4, #0]
 80a0e7a:	fa0f f989 	sxth.w	r9, r9
 80a0e7e:	f8d3 a018 	ldr.w	sl, [r3, #24]
 80a0e82:	464a      	mov	r2, r9
 80a0e84:	4641      	mov	r1, r8
 80a0e86:	462b      	mov	r3, r5
 80a0e88:	47d0      	blx	sl
        writePixel(x0 - y, y0 + x, color);
 80a0e8a:	9b01      	ldr	r3, [sp, #4]
 80a0e8c:	9a04      	ldr	r2, [sp, #16]
 80a0e8e:	4620      	mov	r0, r4
 80a0e90:	1a9e      	subs	r6, r3, r2
 80a0e92:	6823      	ldr	r3, [r4, #0]
 80a0e94:	b236      	sxth	r6, r6
 80a0e96:	464a      	mov	r2, r9
 80a0e98:	f8d3 a018 	ldr.w	sl, [r3, #24]
 80a0e9c:	4631      	mov	r1, r6
 80a0e9e:	462b      	mov	r3, r5
 80a0ea0:	47d0      	blx	sl
 80a0ea2:	f10b 33ff 	add.w	r3, fp, #4294967295
 80a0ea6:	1bdf      	subs	r7, r3, r7
        writePixel(x0 + y, y0 - x, color);
 80a0ea8:	6823      	ldr	r3, [r4, #0]
 80a0eaa:	b23f      	sxth	r7, r7
 80a0eac:	4641      	mov	r1, r8
 80a0eae:	f8d3 9018 	ldr.w	r9, [r3, #24]
 80a0eb2:	463a      	mov	r2, r7
 80a0eb4:	462b      	mov	r3, r5
 80a0eb6:	4620      	mov	r0, r4
 80a0eb8:	47c8      	blx	r9
        writePixel(x0 - y, y0 - x, color);
 80a0eba:	6823      	ldr	r3, [r4, #0]
 80a0ebc:	463a      	mov	r2, r7
 80a0ebe:	f8d3 8018 	ldr.w	r8, [r3, #24]
 80a0ec2:	4631      	mov	r1, r6
 80a0ec4:	462b      	mov	r3, r5
 80a0ec6:	4620      	mov	r0, r4
 80a0ec8:	47c0      	blx	r8
 80a0eca:	9b05      	ldr	r3, [sp, #20]
 80a0ecc:	3301      	adds	r3, #1
 80a0ece:	9305      	str	r3, [sp, #20]
    writePixel(x0  , y0+r, color);
    writePixel(x0  , y0-r, color);
    writePixel(x0+r, y0  , color);
    writePixel(x0-r, y0  , color);

    while (x<y) {
 80a0ed0:	e775      	b.n	80a0dbe <_ZN12Adafruit_GFX10drawCircleEssst+0x9a>
        writePixel(x0 + y, y0 + x, color);
        writePixel(x0 - y, y0 + x, color);
        writePixel(x0 + y, y0 - x, color);
        writePixel(x0 - y, y0 - x, color);
    }
    endWrite();
 80a0ed2:	4620      	mov	r0, r4
 80a0ed4:	6823      	ldr	r3, [r4, #0]
 80a0ed6:	6adb      	ldr	r3, [r3, #44]	; 0x2c
}
 80a0ed8:	b00b      	add	sp, #44	; 0x2c
 80a0eda:	e8bd 4ff0 	ldmia.w	sp!, {r4, r5, r6, r7, r8, r9, sl, fp, lr}
        writePixel(x0 + y, y0 + x, color);
        writePixel(x0 - y, y0 + x, color);
        writePixel(x0 + y, y0 - x, color);
        writePixel(x0 - y, y0 - x, color);
    }
    endWrite();
 80a0ede:	4718      	bx	r3

080a0ee0 <_ZN12Adafruit_GFX10drawBitmapEssPhsst>:
    @param    h   Height of bitmap in pixels
    @param    color 16-bit 5-6-5 Color to draw with
*/
/**************************************************************************/
void Adafruit_GFX::drawBitmap(int16_t x, int16_t y,
  uint8_t *bitmap, int16_t w, int16_t h, uint16_t color) {
 80a0ee0:	e92d 4ff0 	stmdb	sp!, {r4, r5, r6, r7, r8, r9, sl, fp, lr}
 80a0ee4:	b089      	sub	sp, #36	; 0x24
 80a0ee6:	469a      	mov	sl, r3
 80a0ee8:	f9bd 304c 	ldrsh.w	r3, [sp, #76]	; 0x4c
 80a0eec:	f9bd 9048 	ldrsh.w	r9, [sp, #72]	; 0x48
 80a0ef0:	9304      	str	r3, [sp, #16]
 80a0ef2:	f8bd 3050 	ldrh.w	r3, [sp, #80]	; 0x50
 80a0ef6:	9203      	str	r2, [sp, #12]
 80a0ef8:	9305      	str	r3, [sp, #20]

    int16_t byteWidth = (w + 7) / 8; // Bitmap scanline pad = whole byte
    uint8_t byte = 0;

    startWrite();
 80a0efa:	6803      	ldr	r3, [r0, #0]
    @param    h   Height of bitmap in pixels
    @param    color 16-bit 5-6-5 Color to draw with
*/
/**************************************************************************/
void Adafruit_GFX::drawBitmap(int16_t x, int16_t y,
  uint8_t *bitmap, int16_t w, int16_t h, uint16_t color) {
 80a0efc:	9102      	str	r1, [sp, #8]

    int16_t byteWidth = (w + 7) / 8; // Bitmap scanline pad = whole byte
    uint8_t byte = 0;

    startWrite();
 80a0efe:	695b      	ldr	r3, [r3, #20]
 80a0f00:	2600      	movs	r6, #0
    @param    h   Height of bitmap in pixels
    @param    color 16-bit 5-6-5 Color to draw with
*/
/**************************************************************************/
void Adafruit_GFX::drawBitmap(int16_t x, int16_t y,
  uint8_t *bitmap, int16_t w, int16_t h, uint16_t color) {
 80a0f02:	4605      	mov	r5, r0

    int16_t byteWidth = (w + 7) / 8; // Bitmap scanline pad = whole byte
    uint8_t byte = 0;

    startWrite();
 80a0f04:	4798      	blx	r3
 80a0f06:	2308      	movs	r3, #8
 80a0f08:	f109 0207 	add.w	r2, r9, #7
 80a0f0c:	fb92 fbf3 	sdiv	fp, r2, r3
/**************************************************************************/
void Adafruit_GFX::drawBitmap(int16_t x, int16_t y,
  uint8_t *bitmap, int16_t w, int16_t h, uint16_t color) {

    int16_t byteWidth = (w + 7) / 8; // Bitmap scanline pad = whole byte
    uint8_t byte = 0;
 80a0f10:	4634      	mov	r4, r6

    startWrite();
 80a0f12:	9600      	str	r6, [sp, #0]
    for(int16_t j=0; j<h; j++, y++) {
        for(int16_t i=0; i<w; i++ ) {
            if(i & 7) byte <<= 1;
            else      byte   = bitmap[j * byteWidth + i / 8];
 80a0f14:	9307      	str	r3, [sp, #28]
 80a0f16:	9a00      	ldr	r2, [sp, #0]
 80a0f18:	9b03      	ldr	r3, [sp, #12]
 80a0f1a:	4413      	add	r3, r2
 80a0f1c:	b21b      	sxth	r3, r3
 80a0f1e:	9301      	str	r3, [sp, #4]

    int16_t byteWidth = (w + 7) / 8; // Bitmap scanline pad = whole byte
    uint8_t byte = 0;

    startWrite();
    for(int16_t j=0; j<h; j++, y++) {
 80a0f20:	9a04      	ldr	r2, [sp, #16]
 80a0f22:	f9bd 3000 	ldrsh.w	r3, [sp]
 80a0f26:	429a      	cmp	r2, r3
 80a0f28:	dd28      	ble.n	80a0f7c <_ZN12Adafruit_GFX10drawBitmapEssPhsst+0x9c>
        for(int16_t i=0; i<w; i++ ) {
            if(i & 7) byte <<= 1;
            else      byte   = bitmap[j * byteWidth + i / 8];
 80a0f2a:	eb0a 0306 	add.w	r3, sl, r6

    int16_t byteWidth = (w + 7) / 8; // Bitmap scanline pad = whole byte
    uint8_t byte = 0;

    startWrite();
    for(int16_t j=0; j<h; j++, y++) {
 80a0f2e:	f04f 0800 	mov.w	r8, #0
        for(int16_t i=0; i<w; i++ ) {
            if(i & 7) byte <<= 1;
            else      byte   = bitmap[j * byteWidth + i / 8];
 80a0f32:	9306      	str	r3, [sp, #24]
 80a0f34:	fa0f f388 	sxth.w	r3, r8
    int16_t byteWidth = (w + 7) / 8; // Bitmap scanline pad = whole byte
    uint8_t byte = 0;

    startWrite();
    for(int16_t j=0; j<h; j++, y++) {
        for(int16_t i=0; i<w; i++ ) {
 80a0f38:	454b      	cmp	r3, r9
 80a0f3a:	da1a      	bge.n	80a0f72 <_ZN12Adafruit_GFX10drawBitmapEssPhsst+0x92>
            if(i & 7) byte <<= 1;
 80a0f3c:	fa1f f188 	uxth.w	r1, r8
 80a0f40:	074a      	lsls	r2, r1, #29
            else      byte   = bitmap[j * byteWidth + i / 8];
 80a0f42:	bf09      	itett	eq
 80a0f44:	9a07      	ldreq	r2, [sp, #28]
    uint8_t byte = 0;

    startWrite();
    for(int16_t j=0; j<h; j++, y++) {
        for(int16_t i=0; i<w; i++ ) {
            if(i & 7) byte <<= 1;
 80a0f46:	0064      	lslne	r4, r4, #1
            else      byte   = bitmap[j * byteWidth + i / 8];
 80a0f48:	fb93 f3f2 	sdiveq	r3, r3, r2
 80a0f4c:	9a06      	ldreq	r2, [sp, #24]
    uint8_t byte = 0;

    startWrite();
    for(int16_t j=0; j<h; j++, y++) {
        for(int16_t i=0; i<w; i++ ) {
            if(i & 7) byte <<= 1;
 80a0f4e:	bf14      	ite	ne
 80a0f50:	b2e4      	uxtbne	r4, r4
            else      byte   = bitmap[j * byteWidth + i / 8];
 80a0f52:	5cd4      	ldrbeq	r4, [r2, r3]
            if(byte & 0x80) writePixel(x+i, y, color);
 80a0f54:	0623      	lsls	r3, r4, #24
 80a0f56:	d509      	bpl.n	80a0f6c <_ZN12Adafruit_GFX10drawBitmapEssPhsst+0x8c>
 80a0f58:	9b02      	ldr	r3, [sp, #8]
 80a0f5a:	9a01      	ldr	r2, [sp, #4]
 80a0f5c:	4419      	add	r1, r3
 80a0f5e:	682b      	ldr	r3, [r5, #0]
 80a0f60:	b209      	sxth	r1, r1
 80a0f62:	699b      	ldr	r3, [r3, #24]
 80a0f64:	4628      	mov	r0, r5
 80a0f66:	461f      	mov	r7, r3
 80a0f68:	9b05      	ldr	r3, [sp, #20]
 80a0f6a:	47b8      	blx	r7
 80a0f6c:	f108 0801 	add.w	r8, r8, #1
    int16_t byteWidth = (w + 7) / 8; // Bitmap scanline pad = whole byte
    uint8_t byte = 0;

    startWrite();
    for(int16_t j=0; j<h; j++, y++) {
        for(int16_t i=0; i<w; i++ ) {
 80a0f70:	e7e0      	b.n	80a0f34 <_ZN12Adafruit_GFX10drawBitmapEssPhsst+0x54>
 80a0f72:	9b00      	ldr	r3, [sp, #0]
 80a0f74:	445e      	add	r6, fp
 80a0f76:	3301      	adds	r3, #1
 80a0f78:	9300      	str	r3, [sp, #0]

    int16_t byteWidth = (w + 7) / 8; // Bitmap scanline pad = whole byte
    uint8_t byte = 0;

    startWrite();
    for(int16_t j=0; j<h; j++, y++) {
 80a0f7a:	e7cc      	b.n	80a0f16 <_ZN12Adafruit_GFX10drawBitmapEssPhsst+0x36>
            if(i & 7) byte <<= 1;
            else      byte   = bitmap[j * byteWidth + i / 8];
            if(byte & 0x80) writePixel(x+i, y, color);
        }
    }
    endWrite();
 80a0f7c:	4628      	mov	r0, r5
 80a0f7e:	682b      	ldr	r3, [r5, #0]
 80a0f80:	6adb      	ldr	r3, [r3, #44]	; 0x2c
}
 80a0f82:	b009      	add	sp, #36	; 0x24
 80a0f84:	e8bd 4ff0 	ldmia.w	sp!, {r4, r5, r6, r7, r8, r9, sl, fp, lr}
            if(i & 7) byte <<= 1;
            else      byte   = bitmap[j * byteWidth + i / 8];
            if(byte & 0x80) writePixel(x+i, y, color);
        }
    }
    endWrite();
 80a0f88:	4718      	bx	r3

080a0f8a <_ZN12Adafruit_GFX10drawBitmapEssPKhsst>:
 80a0f8a:	b470      	push	{r4, r5, r6}
 80a0f8c:	f9bd 400c 	ldrsh.w	r4, [sp, #12]
 80a0f90:	f9bd 5010 	ldrsh.w	r5, [sp, #16]
 80a0f94:	f8bd 6014 	ldrh.w	r6, [sp, #20]
 80a0f98:	9504      	str	r5, [sp, #16]
 80a0f9a:	9605      	str	r6, [sp, #20]
 80a0f9c:	9403      	str	r4, [sp, #12]
 80a0f9e:	bc70      	pop	{r4, r5, r6}
 80a0fa0:	f7ff bf9e 	b.w	80a0ee0 <_ZN12Adafruit_GFX10drawBitmapEssPhsst>

080a0fa4 <_ZN12Adafruit_GFX8drawCharEsshtthh>:
    @param    size_x  Font magnification level in X-axis, 1 is 'original' size
    @param    size_y  Font magnification level in Y-axis, 1 is 'original' size
*/
/**************************************************************************/
void Adafruit_GFX::drawChar(int16_t x, int16_t y, unsigned char c,
  uint16_t color, uint16_t bg, uint8_t size_x, uint8_t size_y) {
 80a0fa4:	e92d 4ff0 	stmdb	sp!, {r4, r5, r6, r7, r8, r9, sl, fp, lr}
 80a0fa8:	b091      	sub	sp, #68	; 0x44
 80a0faa:	4617      	mov	r7, r2
 80a0fac:	4698      	mov	r8, r3

    if(!gfxFont) { // 'Classic' built-in font
 80a0fae:	6a02      	ldr	r2, [r0, #32]
    @param    size_x  Font magnification level in X-axis, 1 is 'original' size
    @param    size_y  Font magnification level in Y-axis, 1 is 'original' size
*/
/**************************************************************************/
void Adafruit_GFX::drawChar(int16_t x, int16_t y, unsigned char c,
  uint16_t color, uint16_t bg, uint8_t size_x, uint8_t size_y) {
 80a0fb0:	f8bd 3068 	ldrh.w	r3, [sp, #104]	; 0x68
 80a0fb4:	4604      	mov	r4, r0
 80a0fb6:	9103      	str	r1, [sp, #12]
 80a0fb8:	9302      	str	r3, [sp, #8]
 80a0fba:	f8bd 906c 	ldrh.w	r9, [sp, #108]	; 0x6c
 80a0fbe:	f89d 6070 	ldrb.w	r6, [sp, #112]	; 0x70
 80a0fc2:	f89d 5074 	ldrb.w	r5, [sp, #116]	; 0x74

    if(!gfxFont) { // 'Classic' built-in font
 80a0fc6:	2a00      	cmp	r2, #0
 80a0fc8:	f040 80b4 	bne.w	80a1134 <_ZN12Adafruit_GFX8drawCharEsshtthh+0x190>

        if((x >= _width)            || // Clip right
 80a0fcc:	f9b0 300c 	ldrsh.w	r3, [r0, #12]
 80a0fd0:	428b      	cmp	r3, r1
 80a0fd2:	f340 813b 	ble.w	80a124c <_ZN12Adafruit_GFX8drawCharEsshtthh+0x2a8>
 80a0fd6:	f9b0 300e 	ldrsh.w	r3, [r0, #14]
 80a0fda:	42bb      	cmp	r3, r7
 80a0fdc:	f340 8136 	ble.w	80a124c <_ZN12Adafruit_GFX8drawCharEsshtthh+0x2a8>
           (y >= _height)           || // Clip bottom
 80a0fe0:	2306      	movs	r3, #6
 80a0fe2:	fb03 1306 	mla	r3, r3, r6, r1
 80a0fe6:	2b00      	cmp	r3, #0
 80a0fe8:	f340 8130 	ble.w	80a124c <_ZN12Adafruit_GFX8drawCharEsshtthh+0x2a8>
           ((x + 6 * size_x - 1) < 0) || // Clip left
 80a0fec:	eb07 03c5 	add.w	r3, r7, r5, lsl #3
 80a0ff0:	2b00      	cmp	r3, #0
 80a0ff2:	f340 812b 	ble.w	80a124c <_ZN12Adafruit_GFX8drawCharEsshtthh+0x2a8>
           ((y + 8 * size_y - 1) < 0))   // Clip top
            return;

        if(!_cp437 && (c >= 176)) c++; // Handle 'classic' charset behavior
 80a0ff6:	7f03      	ldrb	r3, [r0, #28]
 80a0ff8:	b933      	cbnz	r3, 80a1008 <_ZN12Adafruit_GFX8drawCharEsshtthh+0x64>
 80a0ffa:	f1b8 0faf 	cmp.w	r8, #175	; 0xaf
 80a0ffe:	bf84      	itt	hi
 80a1000:	f108 0801 	addhi.w	r8, r8, #1
 80a1004:	fa5f f888 	uxtbhi.w	r8, r8

        startWrite();
 80a1008:	6823      	ldr	r3, [r4, #0]
 80a100a:	4620      	mov	r0, r4
 80a100c:	695b      	ldr	r3, [r3, #20]
 80a100e:	4798      	blx	r3
        for(int8_t i=0; i<5; i++ ) { // Char bitmap = 5 columns
            uint8_t line = pgm_read_byte(&font[c * 5 + i]);
 80a1010:	2305      	movs	r3, #5
 80a1012:	9308      	str	r3, [sp, #32]
 80a1014:	4b8f      	ldr	r3, [pc, #572]	; (80a1254 <_ZN12Adafruit_GFX8drawCharEsshtthh+0x2b0>)
 80a1016:	eb08 0888 	add.w	r8, r8, r8, lsl #2
 80a101a:	4443      	add	r3, r8
 80a101c:	930c      	str	r3, [sp, #48]	; 0x30
                        writeFillRect(x+i*size_x, y+j*size_y, size_x, size_y, color);
                } else if(bg != color) {
                    if(size_x == 1 && size_y == 1)
                        writePixel(x+i, y+j, bg);
                    else
                        writeFillRect(x+i*size_x, y+j*size_y, size_x, size_y, bg);
 80a101e:	b233      	sxth	r3, r6
            return;

        if(!_cp437 && (c >= 176)) c++; // Handle 'classic' charset behavior

        startWrite();
        for(int8_t i=0; i<5; i++ ) { // Char bitmap = 5 columns
 80a1020:	f04f 0a00 	mov.w	sl, #0
                        writeFillRect(x+i*size_x, y+j*size_y, size_x, size_y, color);
                } else if(bg != color) {
                    if(size_x == 1 && size_y == 1)
                        writePixel(x+i, y+j, bg);
                    else
                        writeFillRect(x+i*size_x, y+j*size_y, size_x, size_y, bg);
 80a1024:	930b      	str	r3, [sp, #44]	; 0x2c
            for(int8_t j=0; j<8; j++, line >>= 1) {
                if(line & 1) {
                    if(size_x == 1 && size_y == 1)
                        writePixel(x+i, y+j, color);
                    else
                        writeFillRect(x+i*size_x, y+j*size_y, size_x, size_y, color);
 80a1026:	b2b2      	uxth	r2, r6
 80a1028:	9206      	str	r2, [sp, #24]

        if(!_cp437 && (c >= 176)) c++; // Handle 'classic' charset behavior

        startWrite();
        for(int8_t i=0; i<5; i++ ) { // Char bitmap = 5 columns
            uint8_t line = pgm_read_byte(&font[c * 5 + i]);
 80a102a:	9b0c      	ldr	r3, [sp, #48]	; 0x30
            for(int8_t j=0; j<8; j++, line >>= 1) {
                if(line & 1) {
                    if(size_x == 1 && size_y == 1)
                        writePixel(x+i, y+j, color);
                    else
                        writeFillRect(x+i*size_x, y+j*size_y, size_x, size_y, color);
 80a102c:	f8bd 200c 	ldrh.w	r2, [sp, #12]

        if(!_cp437 && (c >= 176)) c++; // Handle 'classic' charset behavior

        startWrite();
        for(int8_t i=0; i<5; i++ ) { // Char bitmap = 5 columns
            uint8_t line = pgm_read_byte(&font[c * 5 + i]);
 80a1030:	f813 300a 	ldrb.w	r3, [r3, sl]
            for(int8_t j=0; j<8; j++, line >>= 1) {
                if(line & 1) {
                    if(size_x == 1 && size_y == 1)
                        writePixel(x+i, y+j, color);
                    else
                        writeFillRect(x+i*size_x, y+j*size_y, size_x, size_y, color);
 80a1034:	9204      	str	r2, [sp, #16]
 80a1036:	9904      	ldr	r1, [sp, #16]
 80a1038:	9a06      	ldr	r2, [sp, #24]

        if(!_cp437 && (c >= 176)) c++; // Handle 'classic' charset behavior

        startWrite();
        for(int8_t i=0; i<5; i++ ) { // Char bitmap = 5 columns
            uint8_t line = pgm_read_byte(&font[c * 5 + i]);
 80a103a:	9305      	str	r3, [sp, #20]
            for(int8_t j=0; j<8; j++, line >>= 1) {
                if(line & 1) {
                    if(size_x == 1 && size_y == 1)
                        writePixel(x+i, y+j, color);
                    else
                        writeFillRect(x+i*size_x, y+j*size_y, size_x, size_y, color);
 80a103c:	fa1f f38a 	uxth.w	r3, sl
 80a1040:	fb02 1203 	mla	r2, r2, r3, r1
                } else if(bg != color) {
                    if(size_x == 1 && size_y == 1)
                        writePixel(x+i, y+j, bg);
 80a1044:	440b      	add	r3, r1
            for(int8_t j=0; j<8; j++, line >>= 1) {
                if(line & 1) {
                    if(size_x == 1 && size_y == 1)
                        writePixel(x+i, y+j, color);
                    else
                        writeFillRect(x+i*size_x, y+j*size_y, size_x, size_y, color);
 80a1046:	b212      	sxth	r2, r2
 80a1048:	9207      	str	r2, [sp, #28]
                } else if(bg != color) {
                    if(size_x == 1 && size_y == 1)
                        writePixel(x+i, y+j, bg);
 80a104a:	b21b      	sxth	r3, r3
            for(int8_t j=0; j<8; j++, line >>= 1) {
                if(line & 1) {
                    if(size_x == 1 && size_y == 1)
                        writePixel(x+i, y+j, color);
                    else
                        writeFillRect(x+i*size_x, y+j*size_y, size_x, size_y, color);
 80a104c:	2208      	movs	r2, #8
 80a104e:	9209      	str	r2, [sp, #36]	; 0x24
        if(!_cp437 && (c >= 176)) c++; // Handle 'classic' charset behavior

        startWrite();
        for(int8_t i=0; i<5; i++ ) { // Char bitmap = 5 columns
            uint8_t line = pgm_read_byte(&font[c * 5 + i]);
            for(int8_t j=0; j<8; j++, line >>= 1) {
 80a1050:	f04f 0800 	mov.w	r8, #0
                        writePixel(x+i, y+j, color);
                    else
                        writeFillRect(x+i*size_x, y+j*size_y, size_x, size_y, color);
                } else if(bg != color) {
                    if(size_x == 1 && size_y == 1)
                        writePixel(x+i, y+j, bg);
 80a1054:	930a      	str	r3, [sp, #40]	; 0x28

        startWrite();
        for(int8_t i=0; i<5; i++ ) { // Char bitmap = 5 columns
            uint8_t line = pgm_read_byte(&font[c * 5 + i]);
            for(int8_t j=0; j<8; j++, line >>= 1) {
                if(line & 1) {
 80a1056:	9b05      	ldr	r3, [sp, #20]
 80a1058:	07da      	lsls	r2, r3, #31
 80a105a:	d510      	bpl.n	80a107e <_ZN12Adafruit_GFX8drawCharEsshtthh+0xda>
                    if(size_x == 1 && size_y == 1)
 80a105c:	2e01      	cmp	r6, #1
 80a105e:	d108      	bne.n	80a1072 <_ZN12Adafruit_GFX8drawCharEsshtthh+0xce>
 80a1060:	2d01      	cmp	r5, #1
 80a1062:	d106      	bne.n	80a1072 <_ZN12Adafruit_GFX8drawCharEsshtthh+0xce>
                        writePixel(x+i, y+j, color);
 80a1064:	6823      	ldr	r3, [r4, #0]
 80a1066:	eb08 0207 	add.w	r2, r8, r7
 80a106a:	f8d3 b018 	ldr.w	fp, [r3, #24]
 80a106e:	9b02      	ldr	r3, [sp, #8]
 80a1070:	e012      	b.n	80a1098 <_ZN12Adafruit_GFX8drawCharEsshtthh+0xf4>
                    else
                        writeFillRect(x+i*size_x, y+j*size_y, size_x, size_y, color);
 80a1072:	9902      	ldr	r1, [sp, #8]
 80a1074:	fb08 7205 	mla	r2, r8, r5, r7
 80a1078:	6823      	ldr	r3, [r4, #0]
 80a107a:	9101      	str	r1, [sp, #4]
 80a107c:	e016      	b.n	80a10ac <_ZN12Adafruit_GFX8drawCharEsshtthh+0x108>
                } else if(bg != color) {
 80a107e:	9b02      	ldr	r3, [sp, #8]
 80a1080:	454b      	cmp	r3, r9
 80a1082:	d01b      	beq.n	80a10bc <_ZN12Adafruit_GFX8drawCharEsshtthh+0x118>
                    if(size_x == 1 && size_y == 1)
 80a1084:	2e01      	cmp	r6, #1
 80a1086:	d10c      	bne.n	80a10a2 <_ZN12Adafruit_GFX8drawCharEsshtthh+0xfe>
 80a1088:	2d01      	cmp	r5, #1
 80a108a:	d10a      	bne.n	80a10a2 <_ZN12Adafruit_GFX8drawCharEsshtthh+0xfe>
                        writePixel(x+i, y+j, bg);
 80a108c:	6823      	ldr	r3, [r4, #0]
 80a108e:	eb08 0207 	add.w	r2, r8, r7
 80a1092:	f8d3 b018 	ldr.w	fp, [r3, #24]
 80a1096:	464b      	mov	r3, r9
 80a1098:	b212      	sxth	r2, r2
 80a109a:	990a      	ldr	r1, [sp, #40]	; 0x28
 80a109c:	4620      	mov	r0, r4
 80a109e:	47d8      	blx	fp
 80a10a0:	e00c      	b.n	80a10bc <_ZN12Adafruit_GFX8drawCharEsshtthh+0x118>
                    else
                        writeFillRect(x+i*size_x, y+j*size_y, size_x, size_y, bg);
 80a10a2:	fb08 7205 	mla	r2, r8, r5, r7
 80a10a6:	6823      	ldr	r3, [r4, #0]
 80a10a8:	f8cd 9004 	str.w	r9, [sp, #4]
 80a10ac:	9500      	str	r5, [sp, #0]
 80a10ae:	f8d3 b01c 	ldr.w	fp, [r3, #28]
 80a10b2:	b212      	sxth	r2, r2
 80a10b4:	9b0b      	ldr	r3, [sp, #44]	; 0x2c
 80a10b6:	9907      	ldr	r1, [sp, #28]
 80a10b8:	4620      	mov	r0, r4
 80a10ba:	47d8      	blx	fp
        if(!_cp437 && (c >= 176)) c++; // Handle 'classic' charset behavior

        startWrite();
        for(int8_t i=0; i<5; i++ ) { // Char bitmap = 5 columns
            uint8_t line = pgm_read_byte(&font[c * 5 + i]);
            for(int8_t j=0; j<8; j++, line >>= 1) {
 80a10bc:	9b05      	ldr	r3, [sp, #20]
 80a10be:	f108 0801 	add.w	r8, r8, #1
 80a10c2:	085b      	lsrs	r3, r3, #1
 80a10c4:	9305      	str	r3, [sp, #20]
 80a10c6:	9b09      	ldr	r3, [sp, #36]	; 0x24
 80a10c8:	fa4f f888 	sxtb.w	r8, r8
 80a10cc:	3b01      	subs	r3, #1
 80a10ce:	f013 03ff 	ands.w	r3, r3, #255	; 0xff
 80a10d2:	9309      	str	r3, [sp, #36]	; 0x24
 80a10d4:	d1bf      	bne.n	80a1056 <_ZN12Adafruit_GFX8drawCharEsshtthh+0xb2>
 80a10d6:	9b08      	ldr	r3, [sp, #32]
            return;

        if(!_cp437 && (c >= 176)) c++; // Handle 'classic' charset behavior

        startWrite();
        for(int8_t i=0; i<5; i++ ) { // Char bitmap = 5 columns
 80a10d8:	f10a 0a01 	add.w	sl, sl, #1
 80a10dc:	3b01      	subs	r3, #1
 80a10de:	f013 03ff 	ands.w	r3, r3, #255	; 0xff
 80a10e2:	fa4f fa8a 	sxtb.w	sl, sl
 80a10e6:	9308      	str	r3, [sp, #32]
 80a10e8:	d19d      	bne.n	80a1026 <_ZN12Adafruit_GFX8drawCharEsshtthh+0x82>
                    else
                        writeFillRect(x+i*size_x, y+j*size_y, size_x, size_y, bg);
                }
            }
        }
        if(bg != color) { // If opaque, draw vertical line for last column
 80a10ea:	9b02      	ldr	r3, [sp, #8]
 80a10ec:	454b      	cmp	r3, r9
 80a10ee:	f000 80a6 	beq.w	80a123e <_ZN12Adafruit_GFX8drawCharEsshtthh+0x29a>
            if(size_x == 1 && size_y == 1) writeFastVLine(x+5, y, 8, bg);
 80a10f2:	2e01      	cmp	r6, #1
 80a10f4:	6823      	ldr	r3, [r4, #0]
 80a10f6:	d10c      	bne.n	80a1112 <_ZN12Adafruit_GFX8drawCharEsshtthh+0x16e>
 80a10f8:	2d01      	cmp	r5, #1
 80a10fa:	d10a      	bne.n	80a1112 <_ZN12Adafruit_GFX8drawCharEsshtthh+0x16e>
 80a10fc:	9904      	ldr	r1, [sp, #16]
 80a10fe:	f8cd 9000 	str.w	r9, [sp]
 80a1102:	3105      	adds	r1, #5
 80a1104:	6a1d      	ldr	r5, [r3, #32]
 80a1106:	463a      	mov	r2, r7
 80a1108:	2308      	movs	r3, #8
 80a110a:	b209      	sxth	r1, r1
 80a110c:	4620      	mov	r0, r4
 80a110e:	47a8      	blx	r5
 80a1110:	e095      	b.n	80a123e <_ZN12Adafruit_GFX8drawCharEsshtthh+0x29a>
            else          writeFillRect(x+5*size_x, y, size_x, 8*size_y, bg);
 80a1112:	9a06      	ldr	r2, [sp, #24]
 80a1114:	00ed      	lsls	r5, r5, #3
 80a1116:	eb02 0182 	add.w	r1, r2, r2, lsl #2
 80a111a:	9a04      	ldr	r2, [sp, #16]
 80a111c:	f8cd 9004 	str.w	r9, [sp, #4]
 80a1120:	440a      	add	r2, r1
 80a1122:	4611      	mov	r1, r2
 80a1124:	9500      	str	r5, [sp, #0]
 80a1126:	69dd      	ldr	r5, [r3, #28]
 80a1128:	463a      	mov	r2, r7
 80a112a:	4633      	mov	r3, r6
 80a112c:	b209      	sxth	r1, r1
 80a112e:	4620      	mov	r0, r4
 80a1130:	47a8      	blx	r5
 80a1132:	e084      	b.n	80a123e <_ZN12Adafruit_GFX8drawCharEsshtthh+0x29a>
    return &(((GFXglyph *)pgm_read_pointer(&gfxFont->glyph))[c]);
#else
    // expression in __AVR__ section may generate "dereferencing type-punned pointer will break strict-aliasing rules" warning
    // In fact, on other platforms (such as STM32) there is no need to do this pointer magic as program memory may be read in a usual way
    // So expression may be simplified
    return gfxFont->glyph + c;
 80a1134:	7a13      	ldrb	r3, [r2, #8]
 80a1136:	6851      	ldr	r1, [r2, #4]
 80a1138:	ebc3 0808 	rsb	r8, r3, r8
 80a113c:	6812      	ldr	r2, [r2, #0]
 80a113e:	fa5f f888 	uxtb.w	r8, r8
 80a1142:	920d      	str	r2, [sp, #52]	; 0x34

        c -= (uint8_t)pgm_read_byte(&gfxFont->first);
        GFXglyph *glyph  = pgm_read_glyph_ptr(gfxFont, c);
        uint8_t  *bitmap = pgm_read_bitmap_ptr(gfxFont);

        uint16_t bo = pgm_read_word(&glyph->bitmapOffset);
 80a1144:	f831 2038 	ldrh.w	r2, [r1, r8, lsl #3]
    return &(((GFXglyph *)pgm_read_pointer(&gfxFont->glyph))[c]);
#else
    // expression in __AVR__ section may generate "dereferencing type-punned pointer will break strict-aliasing rules" warning
    // In fact, on other platforms (such as STM32) there is no need to do this pointer magic as program memory may be read in a usual way
    // So expression may be simplified
    return gfxFont->glyph + c;
 80a1148:	eb01 03c8 	add.w	r3, r1, r8, lsl #3

        c -= (uint8_t)pgm_read_byte(&gfxFont->first);
        GFXglyph *glyph  = pgm_read_glyph_ptr(gfxFont, c);
        uint8_t  *bitmap = pgm_read_bitmap_ptr(gfxFont);

        uint16_t bo = pgm_read_word(&glyph->bitmapOffset);
 80a114c:	9204      	str	r2, [sp, #16]
        uint8_t  w  = pgm_read_byte(&glyph->width),
 80a114e:	789a      	ldrb	r2, [r3, #2]
        int8_t   xo = pgm_read_byte(&glyph->xOffset),
                 yo = pgm_read_byte(&glyph->yOffset);
        uint8_t  xx, yy, bits = 0, bit = 0;
        int16_t  xo16 = 0, yo16 = 0;

        if(size_x > 1 || size_y > 1) {
 80a1150:	2e01      	cmp	r6, #1
        c -= (uint8_t)pgm_read_byte(&gfxFont->first);
        GFXglyph *glyph  = pgm_read_glyph_ptr(gfxFont, c);
        uint8_t  *bitmap = pgm_read_bitmap_ptr(gfxFont);

        uint16_t bo = pgm_read_word(&glyph->bitmapOffset);
        uint8_t  w  = pgm_read_byte(&glyph->width),
 80a1152:	9207      	str	r2, [sp, #28]
                 h  = pgm_read_byte(&glyph->height);
 80a1154:	78da      	ldrb	r2, [r3, #3]
        int8_t   xo = pgm_read_byte(&glyph->xOffset),
                 yo = pgm_read_byte(&glyph->yOffset);
 80a1156:	f993 b006 	ldrsb.w	fp, [r3, #6]
        GFXglyph *glyph  = pgm_read_glyph_ptr(gfxFont, c);
        uint8_t  *bitmap = pgm_read_bitmap_ptr(gfxFont);

        uint16_t bo = pgm_read_word(&glyph->bitmapOffset);
        uint8_t  w  = pgm_read_byte(&glyph->width),
                 h  = pgm_read_byte(&glyph->height);
 80a115a:	920a      	str	r2, [sp, #40]	; 0x28
        int8_t   xo = pgm_read_byte(&glyph->xOffset),
 80a115c:	f993 2005 	ldrsb.w	r2, [r3, #5]
 80a1160:	9208      	str	r2, [sp, #32]
                 yo = pgm_read_byte(&glyph->yOffset);
        uint8_t  xx, yy, bits = 0, bit = 0;
        int16_t  xo16 = 0, yo16 = 0;

        if(size_x > 1 || size_y > 1) {
 80a1162:	d801      	bhi.n	80a1168 <_ZN12Adafruit_GFX8drawCharEsshtthh+0x1c4>
 80a1164:	2d01      	cmp	r5, #1
 80a1166:	d906      	bls.n	80a1176 <_ZN12Adafruit_GFX8drawCharEsshtthh+0x1d2>
            xo16 = xo;
 80a1168:	f9bd 3020 	ldrsh.w	r3, [sp, #32]
 80a116c:	9306      	str	r3, [sp, #24]
            yo16 = yo;
 80a116e:	fa0f f38b 	sxth.w	r3, fp
 80a1172:	9305      	str	r3, [sp, #20]
 80a1174:	e002      	b.n	80a117c <_ZN12Adafruit_GFX8drawCharEsshtthh+0x1d8>
        uint8_t  w  = pgm_read_byte(&glyph->width),
                 h  = pgm_read_byte(&glyph->height);
        int8_t   xo = pgm_read_byte(&glyph->xOffset),
                 yo = pgm_read_byte(&glyph->yOffset);
        uint8_t  xx, yy, bits = 0, bit = 0;
        int16_t  xo16 = 0, yo16 = 0;
 80a1176:	2300      	movs	r3, #0
 80a1178:	9305      	str	r3, [sp, #20]
 80a117a:	9306      	str	r3, [sp, #24]
        // only creates a new set of problems.  Have an idea to work around
        // this (a canvas object type for MCUs that can afford the RAM and
        // displays supporting setAddrWindow() and pushColors()), but haven't
        // implemented this yet.

        startWrite();
 80a117c:	f04f 0800 	mov.w	r8, #0
        uint16_t bo = pgm_read_word(&glyph->bitmapOffset);
        uint8_t  w  = pgm_read_byte(&glyph->width),
                 h  = pgm_read_byte(&glyph->height);
        int8_t   xo = pgm_read_byte(&glyph->xOffset),
                 yo = pgm_read_byte(&glyph->yOffset);
        uint8_t  xx, yy, bits = 0, bit = 0;
 80a1180:	46c2      	mov	sl, r8
 80a1182:	46c1      	mov	r9, r8
        // only creates a new set of problems.  Have an idea to work around
        // this (a canvas object type for MCUs that can afford the RAM and
        // displays supporting setAddrWindow() and pushColors()), but haven't
        // implemented this yet.

        startWrite();
 80a1184:	6823      	ldr	r3, [r4, #0]
 80a1186:	4620      	mov	r0, r4
 80a1188:	695b      	ldr	r3, [r3, #20]
 80a118a:	4798      	blx	r3
                }
                if(bits & 0x80) {
                    if(size_x == 1 && size_y == 1) {
                        writePixel(x+xo+xx, y+yo+yy, color);
                    } else {
                        writeFillRect(x+(xo16+xx)*size_x, y+(yo16+yy)*size_y,
 80a118c:	b2bb      	uxth	r3, r7
 80a118e:	9309      	str	r3, [sp, #36]	; 0x24
                if(!(bit++ & 7)) {
                    bits = pgm_read_byte(&bitmap[bo++]);
                }
                if(bits & 0x80) {
                    if(size_x == 1 && size_y == 1) {
                        writePixel(x+xo+xx, y+yo+yy, color);
 80a1190:	445b      	add	r3, fp
 80a1192:	930f      	str	r3, [sp, #60]	; 0x3c
        // this (a canvas object type for MCUs that can afford the RAM and
        // displays supporting setAddrWindow() and pushColors()), but haven't
        // implemented this yet.

        startWrite();
        for(yy=0; yy<h; yy++) {
 80a1194:	9a0a      	ldr	r2, [sp, #40]	; 0x28
 80a1196:	fa5f f388 	uxtb.w	r3, r8
 80a119a:	4293      	cmp	r3, r2
 80a119c:	d24f      	bcs.n	80a123e <_ZN12Adafruit_GFX8drawCharEsshtthh+0x29a>
                }
                if(bits & 0x80) {
                    if(size_x == 1 && size_y == 1) {
                        writePixel(x+xo+xx, y+yo+yy, color);
                    } else {
                        writeFillRect(x+(xo16+xx)*size_x, y+(yo16+yy)*size_y,
 80a119e:	9a05      	ldr	r2, [sp, #20]
 80a11a0:	9909      	ldr	r1, [sp, #36]	; 0x24
 80a11a2:	4442      	add	r2, r8
 80a11a4:	fb02 1205 	mla	r2, r2, r5, r1
 80a11a8:	b212      	sxth	r2, r2
 80a11aa:	920c      	str	r2, [sp, #48]	; 0x30
 80a11ac:	4652      	mov	r2, sl
                if(!(bit++ & 7)) {
                    bits = pgm_read_byte(&bitmap[bo++]);
                }
                if(bits & 0x80) {
                    if(size_x == 1 && size_y == 1) {
                        writePixel(x+xo+xx, y+yo+yy, color);
 80a11ae:	990f      	ldr	r1, [sp, #60]	; 0x3c
                    } else {
                        writeFillRect(x+(xo16+xx)*size_x, y+(yo16+yy)*size_y,
 80a11b0:	2700      	movs	r7, #0
                if(!(bit++ & 7)) {
                    bits = pgm_read_byte(&bitmap[bo++]);
                }
                if(bits & 0x80) {
                    if(size_x == 1 && size_y == 1) {
                        writePixel(x+xo+xx, y+yo+yy, color);
 80a11b2:	440b      	add	r3, r1
 80a11b4:	b21b      	sxth	r3, r3
 80a11b6:	930e      	str	r3, [sp, #56]	; 0x38
        // displays supporting setAddrWindow() and pushColors()), but haven't
        // implemented this yet.

        startWrite();
        for(yy=0; yy<h; yy++) {
            for(xx=0; xx<w; xx++) {
 80a11b8:	9b07      	ldr	r3, [sp, #28]
 80a11ba:	429f      	cmp	r7, r3
 80a11bc:	d238      	bcs.n	80a1230 <_ZN12Adafruit_GFX8drawCharEsshtthh+0x28c>
                if(!(bit++ & 7)) {
 80a11be:	1c53      	adds	r3, r2, #1
 80a11c0:	b2db      	uxtb	r3, r3
 80a11c2:	930b      	str	r3, [sp, #44]	; 0x2c
 80a11c4:	0753      	lsls	r3, r2, #29
 80a11c6:	d107      	bne.n	80a11d8 <_ZN12Adafruit_GFX8drawCharEsshtthh+0x234>
                    bits = pgm_read_byte(&bitmap[bo++]);
 80a11c8:	9b04      	ldr	r3, [sp, #16]
 80a11ca:	9904      	ldr	r1, [sp, #16]
 80a11cc:	9a0d      	ldr	r2, [sp, #52]	; 0x34
 80a11ce:	3301      	adds	r3, #1
 80a11d0:	b29b      	uxth	r3, r3
 80a11d2:	f812 9001 	ldrb.w	r9, [r2, r1]
 80a11d6:	9304      	str	r3, [sp, #16]
                }
                if(bits & 0x80) {
 80a11d8:	f019 0f80 	tst.w	r9, #128	; 0x80
 80a11dc:	d020      	beq.n	80a1220 <_ZN12Adafruit_GFX8drawCharEsshtthh+0x27c>
                    if(size_x == 1 && size_y == 1) {
 80a11de:	2e01      	cmp	r6, #1
 80a11e0:	d10e      	bne.n	80a1200 <_ZN12Adafruit_GFX8drawCharEsshtthh+0x25c>
 80a11e2:	2d01      	cmp	r5, #1
 80a11e4:	d10c      	bne.n	80a1200 <_ZN12Adafruit_GFX8drawCharEsshtthh+0x25c>
                        writePixel(x+xo+xx, y+yo+yy, color);
 80a11e6:	9b08      	ldr	r3, [sp, #32]
 80a11e8:	9a03      	ldr	r2, [sp, #12]
 80a11ea:	4620      	mov	r0, r4
 80a11ec:	1899      	adds	r1, r3, r2
 80a11ee:	6823      	ldr	r3, [r4, #0]
 80a11f0:	4439      	add	r1, r7
 80a11f2:	f8d3 b018 	ldr.w	fp, [r3, #24]
 80a11f6:	9a0e      	ldr	r2, [sp, #56]	; 0x38
 80a11f8:	9b02      	ldr	r3, [sp, #8]
 80a11fa:	b209      	sxth	r1, r1
 80a11fc:	47d8      	blx	fp
 80a11fe:	e00f      	b.n	80a1220 <_ZN12Adafruit_GFX8drawCharEsshtthh+0x27c>
                    } else {
                        writeFillRect(x+(xo16+xx)*size_x, y+(yo16+yy)*size_y,
                          size_x, size_y, color);
 80a1200:	9b06      	ldr	r3, [sp, #24]
 80a1202:	9a02      	ldr	r2, [sp, #8]
 80a1204:	19d9      	adds	r1, r3, r7
 80a1206:	9b03      	ldr	r3, [sp, #12]
 80a1208:	9201      	str	r2, [sp, #4]
 80a120a:	fb01 3106 	mla	r1, r1, r6, r3
 80a120e:	6823      	ldr	r3, [r4, #0]
 80a1210:	9500      	str	r5, [sp, #0]
 80a1212:	f8d3 b01c 	ldr.w	fp, [r3, #28]
 80a1216:	9a0c      	ldr	r2, [sp, #48]	; 0x30
 80a1218:	4633      	mov	r3, r6
 80a121a:	b209      	sxth	r1, r1
 80a121c:	4620      	mov	r0, r4
 80a121e:	47d8      	blx	fp
                    }
                }
                bits <<= 1;
 80a1220:	ea4f 0949 	mov.w	r9, r9, lsl #1
        // displays supporting setAddrWindow() and pushColors()), but haven't
        // implemented this yet.

        startWrite();
        for(yy=0; yy<h; yy++) {
            for(xx=0; xx<w; xx++) {
 80a1224:	3701      	adds	r7, #1
                    } else {
                        writeFillRect(x+(xo16+xx)*size_x, y+(yo16+yy)*size_y,
                          size_x, size_y, color);
                    }
                }
                bits <<= 1;
 80a1226:	fa5f f989 	uxtb.w	r9, r9
        // displays supporting setAddrWindow() and pushColors()), but haven't
        // implemented this yet.

        startWrite();
        for(yy=0; yy<h; yy++) {
            for(xx=0; xx<w; xx++) {
 80a122a:	b2ff      	uxtb	r7, r7
                if(!(bit++ & 7)) {
 80a122c:	9a0b      	ldr	r2, [sp, #44]	; 0x2c
        // displays supporting setAddrWindow() and pushColors()), but haven't
        // implemented this yet.

        startWrite();
        for(yy=0; yy<h; yy++) {
            for(xx=0; xx<w; xx++) {
 80a122e:	e7c3      	b.n	80a11b8 <_ZN12Adafruit_GFX8drawCharEsshtthh+0x214>
 80a1230:	9b07      	ldr	r3, [sp, #28]
 80a1232:	f108 0801 	add.w	r8, r8, #1
 80a1236:	449a      	add	sl, r3
 80a1238:	fa5f fa8a 	uxtb.w	sl, sl
        // this (a canvas object type for MCUs that can afford the RAM and
        // displays supporting setAddrWindow() and pushColors()), but haven't
        // implemented this yet.

        startWrite();
        for(yy=0; yy<h; yy++) {
 80a123c:	e7aa      	b.n	80a1194 <_ZN12Adafruit_GFX8drawCharEsshtthh+0x1f0>
                    }
                }
                bits <<= 1;
            }
        }
        endWrite();
 80a123e:	4620      	mov	r0, r4
 80a1240:	6823      	ldr	r3, [r4, #0]
 80a1242:	6adb      	ldr	r3, [r3, #44]	; 0x2c

    } // End classic vs custom font
}
 80a1244:	b011      	add	sp, #68	; 0x44
 80a1246:	e8bd 4ff0 	ldmia.w	sp!, {r4, r5, r6, r7, r8, r9, sl, fp, lr}
                    }
                }
                bits <<= 1;
            }
        }
        endWrite();
 80a124a:	4718      	bx	r3

    } // End classic vs custom font
}
 80a124c:	b011      	add	sp, #68	; 0x44
 80a124e:	e8bd 8ff0 	ldmia.w	sp!, {r4, r5, r6, r7, r8, r9, sl, fp, pc}
 80a1252:	bf00      	nop
 80a1254:	080a4d10 	.word	0x080a4d10

080a1258 <_ZN12Adafruit_GFX5writeEh>:
/*!
    @brief  Print one byte/character of data, used to support print()
    @param  c  The 8-bit ascii character to write
*/
/**************************************************************************/
size_t Adafruit_GFX::write(uint8_t c) {
 80a1258:	b5f0      	push	{r4, r5, r6, r7, lr}
    if(!gfxFont) { // 'Classic' built-in font
 80a125a:	6a02      	ldr	r2, [r0, #32]
/*!
    @brief  Print one byte/character of data, used to support print()
    @param  c  The 8-bit ascii character to write
*/
/**************************************************************************/
size_t Adafruit_GFX::write(uint8_t c) {
 80a125c:	b085      	sub	sp, #20
 80a125e:	4604      	mov	r4, r0
 80a1260:	460b      	mov	r3, r1
    if(!gfxFont) { // 'Classic' built-in font
 80a1262:	2a00      	cmp	r2, #0
 80a1264:	d12f      	bne.n	80a12c6 <_ZN12Adafruit_GFX5writeEh+0x6e>

        if(c == '\n') {                        // Newline?
 80a1266:	290a      	cmp	r1, #10
 80a1268:	d105      	bne.n	80a1276 <_ZN12Adafruit_GFX5writeEh+0x1e>
            cursor_x  = 0;                     // Reset x to zero,
 80a126a:	8202      	strh	r2, [r0, #16]
            cursor_y += textsize_y * 8;        // advance y one line
 80a126c:	8a43      	ldrh	r3, [r0, #18]
 80a126e:	7e42      	ldrb	r2, [r0, #25]
 80a1270:	eb03 03c2 	add.w	r3, r3, r2, lsl #3
 80a1274:	e030      	b.n	80a12d8 <_ZN12Adafruit_GFX5writeEh+0x80>
        } else if(c != '\r') {                 // Ignore carriage returns
 80a1276:	290d      	cmp	r1, #13
 80a1278:	d06a      	beq.n	80a1350 <_ZN12Adafruit_GFX5writeEh+0xf8>
            if(wrap && ((cursor_x + textsize_x * 6) > _width)) { // Off right?
 80a127a:	7ec1      	ldrb	r1, [r0, #27]
 80a127c:	7e45      	ldrb	r5, [r0, #25]
 80a127e:	7e00      	ldrb	r0, [r0, #24]
 80a1280:	b169      	cbz	r1, 80a129e <_ZN12Adafruit_GFX5writeEh+0x46>
 80a1282:	f9b4 6010 	ldrsh.w	r6, [r4, #16]
 80a1286:	2106      	movs	r1, #6
 80a1288:	fb01 6100 	mla	r1, r1, r0, r6
 80a128c:	f9b4 600c 	ldrsh.w	r6, [r4, #12]
 80a1290:	42b1      	cmp	r1, r6
                cursor_x  = 0;                 // Reset x to zero,
 80a1292:	bfc1      	itttt	gt
 80a1294:	8222      	strhgt	r2, [r4, #16]
                cursor_y += textsize_y * 8;    // advance y one line
 80a1296:	8a62      	ldrhgt	r2, [r4, #18]
 80a1298:	eb02 02c5 	addgt.w	r2, r2, r5, lsl #3
 80a129c:	8262      	strhgt	r2, [r4, #18]
            }
            drawChar(cursor_x, cursor_y, c, textcolor, textbgcolor, textsize_x, textsize_y);
 80a129e:	9002      	str	r0, [sp, #8]
 80a12a0:	8ae0      	ldrh	r0, [r4, #22]
 80a12a2:	f9b4 2012 	ldrsh.w	r2, [r4, #18]
 80a12a6:	9001      	str	r0, [sp, #4]
 80a12a8:	8aa0      	ldrh	r0, [r4, #20]
 80a12aa:	f9b4 1010 	ldrsh.w	r1, [r4, #16]
 80a12ae:	9000      	str	r0, [sp, #0]
 80a12b0:	9503      	str	r5, [sp, #12]
 80a12b2:	4620      	mov	r0, r4
 80a12b4:	f7ff fe76 	bl	80a0fa4 <_ZN12Adafruit_GFX8drawCharEsshtthh>
            cursor_x += textsize_x * 6;          // Advance x one char
 80a12b8:	7e23      	ldrb	r3, [r4, #24]
 80a12ba:	8a22      	ldrh	r2, [r4, #16]
 80a12bc:	eb03 0343 	add.w	r3, r3, r3, lsl #1
 80a12c0:	eb02 0343 	add.w	r3, r2, r3, lsl #1
 80a12c4:	e043      	b.n	80a134e <_ZN12Adafruit_GFX5writeEh+0xf6>
        }

    } else { // Custom font

        if(c == '\n') {
 80a12c6:	290a      	cmp	r1, #10
 80a12c8:	d108      	bne.n	80a12dc <_ZN12Adafruit_GFX5writeEh+0x84>
            cursor_x  = 0;
 80a12ca:	2300      	movs	r3, #0
 80a12cc:	8203      	strh	r3, [r0, #16]
            cursor_y += (int16_t)textsize_y *
                        (uint8_t)pgm_read_byte(&gfxFont->yAdvance);
 80a12ce:	7e41      	ldrb	r1, [r0, #25]
 80a12d0:	7a92      	ldrb	r2, [r2, #10]
 80a12d2:	8a43      	ldrh	r3, [r0, #18]
 80a12d4:	fb01 3302 	mla	r3, r1, r2, r3
 80a12d8:	8263      	strh	r3, [r4, #18]
 80a12da:	e039      	b.n	80a1350 <_ZN12Adafruit_GFX5writeEh+0xf8>
        } else if(c != '\r') {
 80a12dc:	290d      	cmp	r1, #13
 80a12de:	d037      	beq.n	80a1350 <_ZN12Adafruit_GFX5writeEh+0xf8>
            uint8_t first = pgm_read_byte(&gfxFont->first);
 80a12e0:	7a15      	ldrb	r5, [r2, #8]
            if((c >= first) && (c <= (uint8_t)pgm_read_byte(&gfxFont->last))) {
 80a12e2:	42a9      	cmp	r1, r5
 80a12e4:	d334      	bcc.n	80a1350 <_ZN12Adafruit_GFX5writeEh+0xf8>
 80a12e6:	7a51      	ldrb	r1, [r2, #9]
 80a12e8:	4299      	cmp	r1, r3
 80a12ea:	d331      	bcc.n	80a1350 <_ZN12Adafruit_GFX5writeEh+0xf8>
    return &(((GFXglyph *)pgm_read_pointer(&gfxFont->glyph))[c]);
#else
    // expression in __AVR__ section may generate "dereferencing type-punned pointer will break strict-aliasing rules" warning
    // In fact, on other platforms (such as STM32) there is no need to do this pointer magic as program memory may be read in a usual way
    // So expression may be simplified
    return gfxFont->glyph + c;
 80a12ec:	6851      	ldr	r1, [r2, #4]
 80a12ee:	1b5d      	subs	r5, r3, r5
 80a12f0:	b2ed      	uxtb	r5, r5
 80a12f2:	eb01 05c5 	add.w	r5, r1, r5, lsl #3
                        (uint8_t)pgm_read_byte(&gfxFont->yAdvance);
        } else if(c != '\r') {
            uint8_t first = pgm_read_byte(&gfxFont->first);
            if((c >= first) && (c <= (uint8_t)pgm_read_byte(&gfxFont->last))) {
                GFXglyph *glyph  = pgm_read_glyph_ptr(gfxFont, c - first);
                uint8_t   w     = pgm_read_byte(&glyph->width),
 80a12f6:	78a9      	ldrb	r1, [r5, #2]
                          h     = pgm_read_byte(&glyph->height);
                if((w > 0) && (h > 0)) { // Is there an associated bitmap?
 80a12f8:	b321      	cbz	r1, 80a1344 <_ZN12Adafruit_GFX5writeEh+0xec>
 80a12fa:	78e8      	ldrb	r0, [r5, #3]
 80a12fc:	b310      	cbz	r0, 80a1344 <_ZN12Adafruit_GFX5writeEh+0xec>
                    int16_t xo = (int8_t)pgm_read_byte(&glyph->xOffset); // sic
                    if(wrap && ((cursor_x + textsize_x * (xo + w)) > _width)) {
 80a12fe:	7ee7      	ldrb	r7, [r4, #27]
 80a1300:	7e66      	ldrb	r6, [r4, #25]
 80a1302:	7e20      	ldrb	r0, [r4, #24]
 80a1304:	b18f      	cbz	r7, 80a132a <_ZN12Adafruit_GFX5writeEh+0xd2>
 80a1306:	f995 7005 	ldrsb.w	r7, [r5, #5]
 80a130a:	4439      	add	r1, r7
 80a130c:	f9b4 7010 	ldrsh.w	r7, [r4, #16]
 80a1310:	fb00 7101 	mla	r1, r0, r1, r7
 80a1314:	f9b4 700c 	ldrsh.w	r7, [r4, #12]
 80a1318:	42b9      	cmp	r1, r7
 80a131a:	dd06      	ble.n	80a132a <_ZN12Adafruit_GFX5writeEh+0xd2>
                        cursor_x  = 0;
 80a131c:	2100      	movs	r1, #0
 80a131e:	8221      	strh	r1, [r4, #16]
                        cursor_y += (int16_t)textsize_y *
                          (uint8_t)pgm_read_byte(&gfxFont->yAdvance);
 80a1320:	7a92      	ldrb	r2, [r2, #10]
 80a1322:	8a61      	ldrh	r1, [r4, #18]
 80a1324:	fb06 1202 	mla	r2, r6, r2, r1
 80a1328:	8262      	strh	r2, [r4, #18]
                    }
                    drawChar(cursor_x, cursor_y, c, textcolor, textbgcolor, textsize_x, textsize_y);
 80a132a:	9002      	str	r0, [sp, #8]
 80a132c:	8ae0      	ldrh	r0, [r4, #22]
 80a132e:	f9b4 2012 	ldrsh.w	r2, [r4, #18]
 80a1332:	9001      	str	r0, [sp, #4]
 80a1334:	8aa0      	ldrh	r0, [r4, #20]
 80a1336:	f9b4 1010 	ldrsh.w	r1, [r4, #16]
 80a133a:	9000      	str	r0, [sp, #0]
 80a133c:	9603      	str	r6, [sp, #12]
 80a133e:	4620      	mov	r0, r4
 80a1340:	f7ff fe30 	bl	80a0fa4 <_ZN12Adafruit_GFX8drawCharEsshtthh>
                }
                cursor_x += (uint8_t)pgm_read_byte(&glyph->xAdvance) * (int16_t)textsize_x;
 80a1344:	7929      	ldrb	r1, [r5, #4]
 80a1346:	7e22      	ldrb	r2, [r4, #24]
 80a1348:	8a23      	ldrh	r3, [r4, #16]
 80a134a:	fb01 3302 	mla	r3, r1, r2, r3
 80a134e:	8223      	strh	r3, [r4, #16]
            }
        }

    }
    return 1;
}
 80a1350:	2001      	movs	r0, #1
 80a1352:	b005      	add	sp, #20
 80a1354:	bdf0      	pop	{r4, r5, r6, r7, pc}

080a1356 <_ZN12Adafruit_GFX11setTextSizeEhh>:
    @param  s_x  Desired text width magnification level in X-axis. 1 is default
    @param  s_y  Desired text width magnification level in Y-axis. 1 is default
*/
/**************************************************************************/
void Adafruit_GFX::setTextSize(uint8_t s_x, uint8_t s_y) {
    textsize_x = (s_x > 0) ? s_x : 1;
 80a1356:	2900      	cmp	r1, #0
 80a1358:	bf08      	it	eq
 80a135a:	2101      	moveq	r1, #1
    textsize_y = (s_y > 0) ? s_y : 1;
 80a135c:	2a00      	cmp	r2, #0
 80a135e:	bf08      	it	eq
 80a1360:	2201      	moveq	r2, #1
    @param  s_x  Desired text width magnification level in X-axis. 1 is default
    @param  s_y  Desired text width magnification level in Y-axis. 1 is default
*/
/**************************************************************************/
void Adafruit_GFX::setTextSize(uint8_t s_x, uint8_t s_y) {
    textsize_x = (s_x > 0) ? s_x : 1;
 80a1362:	7601      	strb	r1, [r0, #24]
    textsize_y = (s_y > 0) ? s_y : 1;
 80a1364:	7642      	strb	r2, [r0, #25]
 80a1366:	4770      	bx	lr

080a1368 <_ZN12Adafruit_GFX11setTextSizeEh>:
    @brief   Set text 'magnification' size. Each increase in s makes 1 pixel that much bigger.
    @param  s  Desired text size. 1 is default 6x8, 2 is 12x16, 3 is 18x24, etc
*/
/**************************************************************************/
void Adafruit_GFX::setTextSize(uint8_t s) {
    setTextSize(s, s);
 80a1368:	460a      	mov	r2, r1
 80a136a:	f7ff bff4 	b.w	80a1356 <_ZN12Adafruit_GFX11setTextSizeEhh>

080a136e <_GLOBAL__sub_I__ZN12Adafruit_GFXC2Ess>:
 80a136e:	f000 bf27 	b.w	80a21c0 <HAL_Pin_Map>
	...

080a1374 <_ZN16OledWingAdafruitD1Ev>:


OledWingAdafruit::OledWingAdafruit(int useButtons) : Adafruit_SSD1306(128, 32), useButtons(useButtons) {

}
OledWingAdafruit::~OledWingAdafruit() {
 80a1374:	b510      	push	{r4, lr}
 80a1376:	4b06      	ldr	r3, [pc, #24]	; (80a1390 <_ZN16OledWingAdafruitD1Ev+0x1c>)
 80a1378:	4604      	mov	r4, r0
 80a137a:	6003      	str	r3, [r0, #0]
	if (mutex) {
 80a137c:	6d00      	ldr	r0, [r0, #80]	; 0x50
 80a137e:	b108      	cbz	r0, 80a1384 <_ZN16OledWingAdafruitD1Ev+0x10>
		os_mutex_destroy(mutex);
 80a1380:	f000 ffc6 	bl	80a2310 <os_mutex_destroy>


OledWingAdafruit::OledWingAdafruit(int useButtons) : Adafruit_SSD1306(128, 32), useButtons(useButtons) {

}
OledWingAdafruit::~OledWingAdafruit() {
 80a1384:	4620      	mov	r0, r4
 80a1386:	f000 f841 	bl	80a140c <_ZN16Adafruit_SSD1306D1Ev>
	if (mutex) {
		os_mutex_destroy(mutex);
	}
}
 80a138a:	4620      	mov	r0, r4
 80a138c:	bd10      	pop	{r4, pc}
 80a138e:	bf00      	nop
 80a1390:	080a5218 	.word	0x080a5218

080a1394 <_ZN16OledWingAdafruitD0Ev>:


OledWingAdafruit::OledWingAdafruit(int useButtons) : Adafruit_SSD1306(128, 32), useButtons(useButtons) {

}
OledWingAdafruit::~OledWingAdafruit() {
 80a1394:	b510      	push	{r4, lr}
 80a1396:	4604      	mov	r4, r0
	if (mutex) {
		os_mutex_destroy(mutex);
	}
}
 80a1398:	f7ff ffec 	bl	80a1374 <_ZN16OledWingAdafruitD1Ev>
 80a139c:	4620      	mov	r0, r4
 80a139e:	2158      	movs	r1, #88	; 0x58
 80a13a0:	f002 fc3a 	bl	80a3c18 <_ZdlPvj>
 80a13a4:	4620      	mov	r0, r4
 80a13a6:	bd10      	pop	{r4, pc}

080a13a8 <_ZN16OledWingAdafruitC1Ei>:
#include "oled-wing-adafruit.h"


OledWingAdafruit::OledWingAdafruit(int useButtons) : Adafruit_SSD1306(128, 32), useButtons(useButtons) {
 80a13a8:	b530      	push	{r4, r5, lr}
 80a13aa:	b085      	sub	sp, #20
 80a13ac:	4604      	mov	r4, r0
 80a13ae:	460d      	mov	r5, r1
            SSD1306 OLED displays.
*/
class Adafruit_SSD1306 : public Adafruit_GFX {
 public:
  // NEW CONSTRUCTORS -- recommended for new projects
  Adafruit_SSD1306(uint8_t w, uint8_t h, TwoWire *twi=&Wire, int8_t rst_pin=-1,
 80a13b0:	f002 fbfe 	bl	80a3bb0 <_Z19__fetch_global_Wirev>
 80a13b4:	4a09      	ldr	r2, [pc, #36]	; (80a13dc <_ZN16OledWingAdafruitC1Ei+0x34>)
 80a13b6:	4b0a      	ldr	r3, [pc, #40]	; (80a13e0 <_ZN16OledWingAdafruitC1Ei+0x38>)
 80a13b8:	f04f 31ff 	mov.w	r1, #4294967295
 80a13bc:	e88d 000e 	stmia.w	sp, {r1, r2, r3}
 80a13c0:	4603      	mov	r3, r0
 80a13c2:	2220      	movs	r2, #32
 80a13c4:	2180      	movs	r1, #128	; 0x80
 80a13c6:	4620      	mov	r0, r4
 80a13c8:	f000 f89a 	bl	80a1500 <_ZN16Adafruit_SSD1306C1EhhP7TwoWireamm>

}
 80a13cc:	4620      	mov	r0, r4
#include "oled-wing-adafruit.h"


OledWingAdafruit::OledWingAdafruit(int useButtons) : Adafruit_SSD1306(128, 32), useButtons(useButtons) {
 80a13ce:	4b05      	ldr	r3, [pc, #20]	; (80a13e4 <_ZN16OledWingAdafruitC1Ei+0x3c>)
 80a13d0:	6565      	str	r5, [r4, #84]	; 0x54
 80a13d2:	6023      	str	r3, [r4, #0]
 80a13d4:	2300      	movs	r3, #0
 80a13d6:	6523      	str	r3, [r4, #80]	; 0x50

}
 80a13d8:	b005      	add	sp, #20
 80a13da:	bd30      	pop	{r4, r5, pc}
 80a13dc:	00061a80 	.word	0x00061a80
 80a13e0:	000186a0 	.word	0x000186a0
 80a13e4:	080a5218 	.word	0x080a5218

080a13e8 <_ZN16OledWingAdafruit5setupEv>:
	if (mutex) {
		os_mutex_destroy(mutex);
	}
}

void OledWingAdafruit::setup() {
 80a13e8:	b513      	push	{r0, r1, r4, lr}
 80a13ea:	4604      	mov	r4, r0
	os_mutex_create(&mutex);
 80a13ec:	3050      	adds	r0, #80	; 0x50
 80a13ee:	f000 ff87 	bl	80a2300 <os_mutex_create>
	if (useButtons & USE_BUTTON_C) {
		buttonC.attach(BUTTON_C_PIN, INPUT_PULLUP);
	}
*/
	// 128x32 = I2C addr 0x3C. Method inherited from Adafruit_SSD1306.
	begin(SSD1306_SWITCHCAPVCC, 0x3C);
 80a13f2:	2301      	movs	r3, #1
 80a13f4:	9300      	str	r3, [sp, #0]
 80a13f6:	223c      	movs	r2, #60	; 0x3c
 80a13f8:	2102      	movs	r1, #2
 80a13fa:	4620      	mov	r0, r4
 80a13fc:	f000 f98c 	bl	80a1718 <_ZN16Adafruit_SSD13065beginEhhbb>
}
 80a1400:	b002      	add	sp, #8
 80a1402:	bd10      	pop	{r4, pc}

080a1404 <_GLOBAL__sub_I__ZN16OledWingAdafruitC2Ei>:
 80a1404:	f000 bedc 	b.w	80a21c0 <HAL_Pin_Map>

080a1408 <_GLOBAL__sub_I__ZN8DebounceC2Ev>:
 80a1408:	f000 beda 	b.w	80a21c0 <HAL_Pin_Map>

080a140c <_ZN16Adafruit_SSD1306D1Ev>:
}

/*!
    @brief  Destructor for Adafruit_SSD1306 object.
*/
Adafruit_SSD1306::~Adafruit_SSD1306(void) {
 80a140c:	b510      	push	{r4, lr}
 80a140e:	4b04      	ldr	r3, [pc, #16]	; (80a1420 <_ZN16Adafruit_SSD1306D1Ev+0x14>)
 80a1410:	4604      	mov	r4, r0
 80a1412:	6003      	str	r3, [r0, #0]
  if(buffer) {
 80a1414:	6ac0      	ldr	r0, [r0, #44]	; 0x2c
 80a1416:	b108      	cbz	r0, 80a141c <_ZN16Adafruit_SSD1306D1Ev+0x10>
    free(buffer);
 80a1418:	f001 f948 	bl	80a26ac <free>
    buffer = NULL;
  }
}
 80a141c:	4620      	mov	r0, r4
 80a141e:	bd10      	pop	{r4, pc}
 80a1420:	080a52b0 	.word	0x080a52b0

080a1424 <_ZN16Adafruit_SSD1306D0Ev>:
}

/*!
    @brief  Destructor for Adafruit_SSD1306 object.
*/
Adafruit_SSD1306::~Adafruit_SSD1306(void) {
 80a1424:	b510      	push	{r4, lr}
 80a1426:	4604      	mov	r4, r0
  if(buffer) {
    free(buffer);
    buffer = NULL;
  }
}
 80a1428:	f7ff fff0 	bl	80a140c <_ZN16Adafruit_SSD1306D1Ev>
 80a142c:	4620      	mov	r0, r4
 80a142e:	2150      	movs	r1, #80	; 0x50
 80a1430:	f002 fbf2 	bl	80a3c18 <_ZdlPvj>
 80a1434:	4620      	mov	r0, r4
 80a1436:	bd10      	pop	{r4, pc}

080a1438 <_ZN16Adafruit_SSD13069drawPixelEsst>:
    @note   Changes buffer contents only, no immediate effect on display.
            Follow up with a call to display(), or with other graphics
            commands as needed by one's own application.
*/
void Adafruit_SSD1306::drawPixel(int16_t x, int16_t y, uint16_t color) {
  if((x >= 0) && (x < width()) && (y >= 0) && (y < height())) {
 80a1438:	2900      	cmp	r1, #0
    @return None (void).
    @note   Changes buffer contents only, no immediate effect on display.
            Follow up with a call to display(), or with other graphics
            commands as needed by one's own application.
*/
void Adafruit_SSD1306::drawPixel(int16_t x, int16_t y, uint16_t color) {
 80a143a:	b530      	push	{r4, r5, lr}
  if((x >= 0) && (x < width()) && (y >= 0) && (y < height())) {
 80a143c:	db5e      	blt.n	80a14fc <_ZN16Adafruit_SSD13069drawPixelEsst+0xc4>
 80a143e:	f9b0 400c 	ldrsh.w	r4, [r0, #12]
 80a1442:	428c      	cmp	r4, r1
 80a1444:	dd5a      	ble.n	80a14fc <_ZN16Adafruit_SSD13069drawPixelEsst+0xc4>
 80a1446:	2a00      	cmp	r2, #0
 80a1448:	db58      	blt.n	80a14fc <_ZN16Adafruit_SSD13069drawPixelEsst+0xc4>
 80a144a:	f9b0 400e 	ldrsh.w	r4, [r0, #14]
 80a144e:	4294      	cmp	r4, r2
 80a1450:	dc00      	bgt.n	80a1454 <_ZN16Adafruit_SSD13069drawPixelEsst+0x1c>
 80a1452:	bd30      	pop	{r4, r5, pc}
    // Pixel is in-bounds. Rotate coordinates if needed.
    switch(getRotation()) {
 80a1454:	7e84      	ldrb	r4, [r0, #26]
 80a1456:	2c02      	cmp	r4, #2
 80a1458:	d107      	bne.n	80a146a <_ZN16Adafruit_SSD13069drawPixelEsst+0x32>
     case 1:
      ssd1306_swap(x, y);
      x = WIDTH - x - 1;
      break;
     case 2:
      x = WIDTH  - x - 1;
 80a145a:	8904      	ldrh	r4, [r0, #8]
 80a145c:	3c01      	subs	r4, #1
 80a145e:	1a61      	subs	r1, r4, r1
      y = HEIGHT - y - 1;
 80a1460:	8944      	ldrh	r4, [r0, #10]
     case 1:
      ssd1306_swap(x, y);
      x = WIDTH - x - 1;
      break;
     case 2:
      x = WIDTH  - x - 1;
 80a1462:	b209      	sxth	r1, r1
      y = HEIGHT - y - 1;
 80a1464:	3c01      	subs	r4, #1
 80a1466:	1aa2      	subs	r2, r4, r2
 80a1468:	e006      	b.n	80a1478 <_ZN16Adafruit_SSD13069drawPixelEsst+0x40>
            commands as needed by one's own application.
*/
void Adafruit_SSD1306::drawPixel(int16_t x, int16_t y, uint16_t color) {
  if((x >= 0) && (x < width()) && (y >= 0) && (y < height())) {
    // Pixel is in-bounds. Rotate coordinates if needed.
    switch(getRotation()) {
 80a146a:	2c03      	cmp	r4, #3
 80a146c:	d13c      	bne.n	80a14e8 <_ZN16Adafruit_SSD13069drawPixelEsst+0xb0>
     case 2:
      x = WIDTH  - x - 1;
      y = HEIGHT - y - 1;
      break;
     case 3:
      ssd1306_swap(x, y);
 80a146e:	460d      	mov	r5, r1
      y = HEIGHT - y - 1;
 80a1470:	8944      	ldrh	r4, [r0, #10]
     case 2:
      x = WIDTH  - x - 1;
      y = HEIGHT - y - 1;
      break;
     case 3:
      ssd1306_swap(x, y);
 80a1472:	4611      	mov	r1, r2
      y = HEIGHT - y - 1;
 80a1474:	3c01      	subs	r4, #1
 80a1476:	1b62      	subs	r2, r4, r5
 80a1478:	b212      	sxth	r2, r2
      break;
    }
    switch(color) {
 80a147a:	2b01      	cmp	r3, #1
 80a147c:	d003      	beq.n	80a1486 <_ZN16Adafruit_SSD13069drawPixelEsst+0x4e>
 80a147e:	d311      	bcc.n	80a14a4 <_ZN16Adafruit_SSD13069drawPixelEsst+0x6c>
 80a1480:	2b02      	cmp	r3, #2
 80a1482:	d020      	beq.n	80a14c6 <_ZN16Adafruit_SSD13069drawPixelEsst+0x8e>
 80a1484:	bd30      	pop	{r4, r5, pc}
     case WHITE:   buffer[x + (y/8)*WIDTH] |=  (1 << (y&7)); break;
 80a1486:	2408      	movs	r4, #8
 80a1488:	fb92 f4f4 	sdiv	r4, r2, r4
 80a148c:	f9b0 5008 	ldrsh.w	r5, [r0, #8]
 80a1490:	f002 0207 	and.w	r2, r2, #7
 80a1494:	fb05 1104 	mla	r1, r5, r4, r1
 80a1498:	6ac4      	ldr	r4, [r0, #44]	; 0x2c
 80a149a:	4093      	lsls	r3, r2
 80a149c:	5c60      	ldrb	r0, [r4, r1]
 80a149e:	4303      	orrs	r3, r0
 80a14a0:	5463      	strb	r3, [r4, r1]
 80a14a2:	bd30      	pop	{r4, r5, pc}
     case BLACK:   buffer[x + (y/8)*WIDTH] &= ~(1 << (y&7)); break;
 80a14a4:	2308      	movs	r3, #8
 80a14a6:	fb92 f3f3 	sdiv	r3, r2, r3
 80a14aa:	f9b0 4008 	ldrsh.w	r4, [r0, #8]
 80a14ae:	f002 0207 	and.w	r2, r2, #7
 80a14b2:	fb04 1103 	mla	r1, r4, r3, r1
 80a14b6:	6ac4      	ldr	r4, [r0, #44]	; 0x2c
 80a14b8:	2001      	movs	r0, #1
 80a14ba:	5c63      	ldrb	r3, [r4, r1]
 80a14bc:	fa00 f202 	lsl.w	r2, r0, r2
 80a14c0:	ea23 0202 	bic.w	r2, r3, r2
 80a14c4:	e00e      	b.n	80a14e4 <_ZN16Adafruit_SSD13069drawPixelEsst+0xac>
     case INVERSE: buffer[x + (y/8)*WIDTH] ^=  (1 << (y&7)); break;
 80a14c6:	2308      	movs	r3, #8
 80a14c8:	fb92 f3f3 	sdiv	r3, r2, r3
 80a14cc:	f9b0 4008 	ldrsh.w	r4, [r0, #8]
 80a14d0:	f002 0207 	and.w	r2, r2, #7
 80a14d4:	fb04 1103 	mla	r1, r4, r3, r1
 80a14d8:	6ac4      	ldr	r4, [r0, #44]	; 0x2c
 80a14da:	2001      	movs	r0, #1
 80a14dc:	5c63      	ldrb	r3, [r4, r1]
 80a14de:	fa00 f202 	lsl.w	r2, r0, r2
 80a14e2:	405a      	eors	r2, r3
 80a14e4:	5462      	strb	r2, [r4, r1]
    }
  }
}
 80a14e6:	bd30      	pop	{r4, r5, pc}
            commands as needed by one's own application.
*/
void Adafruit_SSD1306::drawPixel(int16_t x, int16_t y, uint16_t color) {
  if((x >= 0) && (x < width()) && (y >= 0) && (y < height())) {
    // Pixel is in-bounds. Rotate coordinates if needed.
    switch(getRotation()) {
 80a14e8:	2c01      	cmp	r4, #1
 80a14ea:	d1c6      	bne.n	80a147a <_ZN16Adafruit_SSD13069drawPixelEsst+0x42>
     case 1:
      ssd1306_swap(x, y);
 80a14ec:	4051      	eors	r1, r2
      x = WIDTH - x - 1;
 80a14ee:	8904      	ldrh	r4, [r0, #8]
void Adafruit_SSD1306::drawPixel(int16_t x, int16_t y, uint16_t color) {
  if((x >= 0) && (x < width()) && (y >= 0) && (y < height())) {
    // Pixel is in-bounds. Rotate coordinates if needed.
    switch(getRotation()) {
     case 1:
      ssd1306_swap(x, y);
 80a14f0:	404a      	eors	r2, r1
      x = WIDTH - x - 1;
 80a14f2:	3c01      	subs	r4, #1
 80a14f4:	4051      	eors	r1, r2
 80a14f6:	1a61      	subs	r1, r4, r1
 80a14f8:	b209      	sxth	r1, r1
 80a14fa:	e7be      	b.n	80a147a <_ZN16Adafruit_SSD13069drawPixelEsst+0x42>
 80a14fc:	bd30      	pop	{r4, r5, pc}
	...

080a1500 <_ZN16Adafruit_SSD1306C1EhhP7TwoWireamm>:
            software, which operates I2C at a fixed 100 KHz.)
    @return Adafruit_SSD1306 object.
    @note   Call the object's begin() function before use -- buffer
            allocation is performed there!
*/
Adafruit_SSD1306::Adafruit_SSD1306(uint8_t w, uint8_t h, TwoWire *twi,
 80a1500:	b570      	push	{r4, r5, r6, lr}
 80a1502:	4604      	mov	r4, r0
 80a1504:	461e      	mov	r6, r3
  int8_t rst_pin, uint32_t clkDuring, uint32_t clkAfter) :
  Adafruit_GFX(w, h), spi(NULL), wire(twi ? twi : &Wire), buffer(NULL),
  mosiPin(-1), clkPin(-1), dcPin(-1), csPin(-1), rstPin(rst_pin),
  wireClk(clkDuring), restoreClk(clkAfter) {
 80a1506:	f7ff fbf3 	bl	80a0cf0 <_ZN12Adafruit_GFXC1Ess>
 80a150a:	4b14      	ldr	r3, [pc, #80]	; (80a155c <_ZN16Adafruit_SSD1306C1EhhP7TwoWireamm+0x5c>)
 80a150c:	2500      	movs	r5, #0
 80a150e:	6023      	str	r3, [r4, #0]
 80a1510:	6265      	str	r5, [r4, #36]	; 0x24
 80a1512:	b916      	cbnz	r6, 80a151a <_ZN16Adafruit_SSD1306C1EhhP7TwoWireamm+0x1a>
 80a1514:	f002 fb4c 	bl	80a3bb0 <_Z19__fetch_global_Wirev>
 80a1518:	e000      	b.n	80a151c <_ZN16Adafruit_SSD1306C1EhhP7TwoWireamm+0x1c>
 80a151a:	4630      	mov	r0, r6
 80a151c:	23ff      	movs	r3, #255	; 0xff
 80a151e:	f884 3033 	strb.w	r3, [r4, #51]	; 0x33
 80a1522:	f884 3034 	strb.w	r3, [r4, #52]	; 0x34
 80a1526:	f884 3035 	strb.w	r3, [r4, #53]	; 0x35
 80a152a:	f884 3036 	strb.w	r3, [r4, #54]	; 0x36
 80a152e:	f99d 3010 	ldrsb.w	r3, [sp, #16]
 80a1532:	62a0      	str	r0, [r4, #40]	; 0x28
 80a1534:	f884 3037 	strb.w	r3, [r4, #55]	; 0x37
      dataMode_{dataMode}
  {
  }

  __SPISettings()
  {
 80a1538:	4b09      	ldr	r3, [pc, #36]	; (80a1560 <_ZN16Adafruit_SSD1306C1EhhP7TwoWireamm+0x60>)
 80a153a:	62e5      	str	r5, [r4, #44]	; 0x2c
 80a153c:	63a3      	str	r3, [r4, #56]	; 0x38
 80a153e:	2301      	movs	r3, #1
 80a1540:	f884 303c 	strb.w	r3, [r4, #60]	; 0x3c
 80a1544:	9b05      	ldr	r3, [sp, #20]
 80a1546:	6425      	str	r5, [r4, #64]	; 0x40
 80a1548:	64a3      	str	r3, [r4, #72]	; 0x48
 80a154a:	9b06      	ldr	r3, [sp, #24]
 80a154c:	f884 5044 	strb.w	r5, [r4, #68]	; 0x44
 80a1550:	f884 5045 	strb.w	r5, [r4, #69]	; 0x45
 80a1554:	64e3      	str	r3, [r4, #76]	; 0x4c
}
 80a1556:	4620      	mov	r0, r4
 80a1558:	bd70      	pop	{r4, r5, r6, pc}
 80a155a:	bf00      	nop
 80a155c:	080a52b0 	.word	0x080a52b0
 80a1560:	080a5270 	.word	0x080a5270

080a1564 <_ZN16Adafruit_SSD130616ssd1306_command1Eh>:

// Issue single command to SSD1306, using I2C or hard/soft SPI as needed.
// Because command calls are often grouped, SPI transaction and selection
// must be started/ended in calling function for efficiency.
// This is a private function, not exposed (see ssd1306_command() instead).
void Adafruit_SSD1306::ssd1306_command1(uint8_t c) {
 80a1564:	b5f8      	push	{r3, r4, r5, r6, r7, lr}
 80a1566:	4604      	mov	r4, r0
  if(wire) { // I2C
 80a1568:	6a80      	ldr	r0, [r0, #40]	; 0x28

// Issue single command to SSD1306, using I2C or hard/soft SPI as needed.
// Because command calls are often grouped, SPI transaction and selection
// must be started/ended in calling function for efficiency.
// This is a private function, not exposed (see ssd1306_command() instead).
void Adafruit_SSD1306::ssd1306_command1(uint8_t c) {
 80a156a:	460f      	mov	r7, r1
  if(wire) { // I2C
 80a156c:	b190      	cbz	r0, 80a1594 <_ZN16Adafruit_SSD130616ssd1306_command1Eh+0x30>
    wire->beginTransmission(i2caddr);
 80a156e:	f994 1030 	ldrsb.w	r1, [r4, #48]	; 0x30
 80a1572:	f002 f977 	bl	80a3864 <_ZN7TwoWire17beginTransmissionEi>
    WIRE_WRITE((uint8_t)0x00); // Co = 0, D/C = 0
 80a1576:	6aa0      	ldr	r0, [r4, #40]	; 0x28
 80a1578:	2100      	movs	r1, #0
 80a157a:	6803      	ldr	r3, [r0, #0]
 80a157c:	689b      	ldr	r3, [r3, #8]
 80a157e:	4798      	blx	r3
    WIRE_WRITE(c);
 80a1580:	6aa0      	ldr	r0, [r4, #40]	; 0x28
 80a1582:	4639      	mov	r1, r7
 80a1584:	6803      	ldr	r3, [r0, #0]
 80a1586:	689b      	ldr	r3, [r3, #8]
 80a1588:	4798      	blx	r3
    wire->endTransmission();
 80a158a:	6aa0      	ldr	r0, [r4, #40]	; 0x28
  } else { // SPI (hw or soft) -- transaction started in calling function
    SSD1306_MODE_COMMAND
    SPIwrite(c);
  }
}
 80a158c:	e8bd 40f8 	ldmia.w	sp!, {r3, r4, r5, r6, r7, lr}
void Adafruit_SSD1306::ssd1306_command1(uint8_t c) {
  if(wire) { // I2C
    wire->beginTransmission(i2caddr);
    WIRE_WRITE((uint8_t)0x00); // Co = 0, D/C = 0
    WIRE_WRITE(c);
    wire->endTransmission();
 80a1590:	f002 b96f 	b.w	80a3872 <_ZN7TwoWire15endTransmissionEv>
  } else { // SPI (hw or soft) -- transaction started in calling function
    SSD1306_MODE_COMMAND
 80a1594:	f994 3035 	ldrsb.w	r3, [r4, #53]	; 0x35
 80a1598:	4601      	mov	r1, r0
 80a159a:	b298      	uxth	r0, r3
 80a159c:	f002 fa63 	bl	80a3a66 <digitalWrite>
// LOW-LEVEL UTILS ---------------------------------------------------------

// Issue single byte out SPI, either soft or hardware as appropriate.
// SPI transaction/selection must be performed in calling function.
inline void Adafruit_SSD1306::SPIwrite(uint8_t d) {
  if(spi) {
 80a15a0:	6a60      	ldr	r0, [r4, #36]	; 0x24
 80a15a2:	b120      	cbz	r0, 80a15ae <_ZN16Adafruit_SSD130616ssd1306_command1Eh+0x4a>
    (void)spi->transfer(d);
 80a15a4:	4639      	mov	r1, r7
    wire->endTransmission();
  } else { // SPI (hw or soft) -- transaction started in calling function
    SSD1306_MODE_COMMAND
    SPIwrite(c);
  }
}
 80a15a6:	e8bd 40f8 	ldmia.w	sp!, {r3, r4, r5, r6, r7, lr}

// Issue single byte out SPI, either soft or hardware as appropriate.
// SPI transaction/selection must be performed in calling function.
inline void Adafruit_SSD1306::SPIwrite(uint8_t d) {
  if(spi) {
    (void)spi->transfer(d);
 80a15aa:	f001 b96a 	b.w	80a2882 <_ZN8SPIClass8transferEh>
// LOW-LEVEL UTILS ---------------------------------------------------------

// Issue single byte out SPI, either soft or hardware as appropriate.
// SPI transaction/selection must be performed in calling function.
inline void Adafruit_SSD1306::SPIwrite(uint8_t d) {
  if(spi) {
 80a15ae:	2508      	movs	r5, #8
 80a15b0:	2680      	movs	r6, #128	; 0x80
      if(d & bit) *mosiPort |=  mosiPinMask;
      else        *mosiPort &= ~mosiPinMask;
      *clkPort |=  clkPinMask; // Clock high
      *clkPort &= ~clkPinMask; // Clock low
#else
      digitalWrite(mosiPin, d & bit);
 80a15b2:	f994 0033 	ldrsb.w	r0, [r4, #51]	; 0x33
 80a15b6:	ea07 0106 	and.w	r1, r7, r6
 80a15ba:	b280      	uxth	r0, r0
 80a15bc:	f002 fa53 	bl	80a3a66 <digitalWrite>
      digitalWrite(clkPin , HIGH);
 80a15c0:	f994 0034 	ldrsb.w	r0, [r4, #52]	; 0x34
 80a15c4:	2101      	movs	r1, #1
 80a15c6:	b280      	uxth	r0, r0
 80a15c8:	f002 fa4d 	bl	80a3a66 <digitalWrite>
      digitalWrite(clkPin , LOW);
 80a15cc:	f994 0034 	ldrsb.w	r0, [r4, #52]	; 0x34
 80a15d0:	2100      	movs	r1, #0
 80a15d2:	b280      	uxth	r0, r0
 80a15d4:	f002 fa47 	bl	80a3a66 <digitalWrite>
// SPI transaction/selection must be performed in calling function.
inline void Adafruit_SSD1306::SPIwrite(uint8_t d) {
  if(spi) {
    (void)spi->transfer(d);
  } else {
    for(uint8_t bit = 0x80; bit; bit >>= 1) {
 80a15d8:	3d01      	subs	r5, #1
 80a15da:	ea4f 0656 	mov.w	r6, r6, lsr #1
 80a15de:	d1e8      	bne.n	80a15b2 <_ZN16Adafruit_SSD130616ssd1306_command1Eh+0x4e>
    wire->endTransmission();
  } else { // SPI (hw or soft) -- transaction started in calling function
    SSD1306_MODE_COMMAND
    SPIwrite(c);
  }
}
 80a15e0:	bdf8      	pop	{r3, r4, r5, r6, r7, pc}

080a15e2 <_ZN16Adafruit_SSD130613invertDisplayEb>:
            display() function -- buffer contents are not changed, rather a
            different pixel mode of the display hardware is used. When
            enabled, drawing BLACK (value 0) pixels will actually draw white,
            WHITE (value 1) will draw black.
*/
void Adafruit_SSD1306::invertDisplay(boolean i) {
 80a15e2:	b538      	push	{r3, r4, r5, lr}
 80a15e4:	4604      	mov	r4, r0
  TRANSACTION_START
 80a15e6:	6a80      	ldr	r0, [r0, #40]	; 0x28
            display() function -- buffer contents are not changed, rather a
            different pixel mode of the display hardware is used. When
            enabled, drawing BLACK (value 0) pixels will actually draw white,
            WHITE (value 1) will draw black.
*/
void Adafruit_SSD1306::invertDisplay(boolean i) {
 80a15e8:	460d      	mov	r5, r1
  TRANSACTION_START
 80a15ea:	b118      	cbz	r0, 80a15f4 <_ZN16Adafruit_SSD130613invertDisplayEb+0x12>

public:
  TwoWire(HAL_I2C_Interface i2c, const HAL_I2C_Config& config);
  virtual ~TwoWire() {};
  inline void setClock(uint32_t speed) {
	  setSpeed(speed);
 80a15ec:	6ca1      	ldr	r1, [r4, #72]	; 0x48
 80a15ee:	f002 f92b 	bl	80a3848 <_ZN7TwoWire8setSpeedEm>
 80a15f2:	e00b      	b.n	80a160c <_ZN16Adafruit_SSD130613invertDisplayEb+0x2a>
 80a15f4:	6a60      	ldr	r0, [r4, #36]	; 0x24
 80a15f6:	b118      	cbz	r0, 80a1600 <_ZN16Adafruit_SSD130613invertDisplayEb+0x1e>
 80a15f8:	f104 0138 	add.w	r1, r4, #56	; 0x38
 80a15fc:	f001 f8d2 	bl	80a27a4 <_ZN8SPIClass16beginTransactionERKN8particle13__SPISettingsE>
 80a1600:	f994 0036 	ldrsb.w	r0, [r4, #54]	; 0x36
 80a1604:	2100      	movs	r1, #0
 80a1606:	b280      	uxth	r0, r0
 80a1608:	f002 fa2d 	bl	80a3a66 <digitalWrite>
  ssd1306_command1(i ? SSD1306_INVERTDISPLAY : SSD1306_NORMALDISPLAY);
 80a160c:	2d00      	cmp	r5, #0
 80a160e:	4620      	mov	r0, r4
 80a1610:	bf14      	ite	ne
 80a1612:	21a7      	movne	r1, #167	; 0xa7
 80a1614:	21a6      	moveq	r1, #166	; 0xa6
 80a1616:	f7ff ffa5 	bl	80a1564 <_ZN16Adafruit_SSD130616ssd1306_command1Eh>
  TRANSACTION_END
 80a161a:	6aa0      	ldr	r0, [r4, #40]	; 0x28
 80a161c:	b120      	cbz	r0, 80a1628 <_ZN16Adafruit_SSD130613invertDisplayEb+0x46>
 80a161e:	6ce1      	ldr	r1, [r4, #76]	; 0x4c
}
 80a1620:	e8bd 4038 	ldmia.w	sp!, {r3, r4, r5, lr}
 80a1624:	f002 b910 	b.w	80a3848 <_ZN7TwoWire8setSpeedEm>
            WHITE (value 1) will draw black.
*/
void Adafruit_SSD1306::invertDisplay(boolean i) {
  TRANSACTION_START
  ssd1306_command1(i ? SSD1306_INVERTDISPLAY : SSD1306_NORMALDISPLAY);
  TRANSACTION_END
 80a1628:	f994 0036 	ldrsb.w	r0, [r4, #54]	; 0x36
 80a162c:	2101      	movs	r1, #1
 80a162e:	b280      	uxth	r0, r0
 80a1630:	f002 fa19 	bl	80a3a66 <digitalWrite>
 80a1634:	6a60      	ldr	r0, [r4, #36]	; 0x24
 80a1636:	b118      	cbz	r0, 80a1640 <_ZN16Adafruit_SSD130613invertDisplayEb+0x5e>
}
 80a1638:	e8bd 4038 	ldmia.w	sp!, {r3, r4, r5, lr}
            WHITE (value 1) will draw black.
*/
void Adafruit_SSD1306::invertDisplay(boolean i) {
  TRANSACTION_START
  ssd1306_command1(i ? SSD1306_INVERTDISPLAY : SSD1306_NORMALDISPLAY);
  TRANSACTION_END
 80a163c:	f001 b896 	b.w	80a276c <_ZN8SPIClass14endTransactionEv>
 80a1640:	bd38      	pop	{r3, r4, r5, pc}

080a1642 <_ZN16Adafruit_SSD130619ssd1306_commandListEPKhh>:
  }
}

// Issue list of commands to SSD1306, same rules as above re: transactions.
// This is a private function, not exposed.
void Adafruit_SSD1306::ssd1306_commandList(const uint8_t *c, uint8_t n) {
 80a1642:	e92d 43f8 	stmdb	sp!, {r3, r4, r5, r6, r7, r8, r9, lr}
 80a1646:	4604      	mov	r4, r0
  if(wire) { // I2C
 80a1648:	6a80      	ldr	r0, [r0, #40]	; 0x28
  }
}

// Issue list of commands to SSD1306, same rules as above re: transactions.
// This is a private function, not exposed.
void Adafruit_SSD1306::ssd1306_commandList(const uint8_t *c, uint8_t n) {
 80a164a:	460d      	mov	r5, r1
 80a164c:	eb01 0802 	add.w	r8, r1, r2
  if(wire) { // I2C
 80a1650:	b348      	cbz	r0, 80a16a6 <_ZN16Adafruit_SSD130619ssd1306_commandListEPKhh+0x64>
    wire->beginTransmission(i2caddr);
 80a1652:	f994 1030 	ldrsb.w	r1, [r4, #48]	; 0x30
 80a1656:	f002 f905 	bl	80a3864 <_ZN7TwoWire17beginTransmissionEi>
    WIRE_WRITE((uint8_t)0x00); // Co = 0, D/C = 0
 80a165a:	6aa0      	ldr	r0, [r4, #40]	; 0x28
 80a165c:	2100      	movs	r1, #0
 80a165e:	6803      	ldr	r3, [r0, #0]
    uint8_t bytesOut = 1;
 80a1660:	2601      	movs	r6, #1
// Issue list of commands to SSD1306, same rules as above re: transactions.
// This is a private function, not exposed.
void Adafruit_SSD1306::ssd1306_commandList(const uint8_t *c, uint8_t n) {
  if(wire) { // I2C
    wire->beginTransmission(i2caddr);
    WIRE_WRITE((uint8_t)0x00); // Co = 0, D/C = 0
 80a1662:	689b      	ldr	r3, [r3, #8]
 80a1664:	4798      	blx	r3
    uint8_t bytesOut = 1;
    while(n--) {
 80a1666:	4545      	cmp	r5, r8
 80a1668:	d018      	beq.n	80a169c <_ZN16Adafruit_SSD130619ssd1306_commandListEPKhh+0x5a>
      if(bytesOut >= WIRE_MAX) {
 80a166a:	2e1f      	cmp	r6, #31
 80a166c:	d90d      	bls.n	80a168a <_ZN16Adafruit_SSD130619ssd1306_commandListEPKhh+0x48>
        wire->endTransmission();
 80a166e:	6aa0      	ldr	r0, [r4, #40]	; 0x28
 80a1670:	f002 f8ff 	bl	80a3872 <_ZN7TwoWire15endTransmissionEv>
        wire->beginTransmission(i2caddr);
 80a1674:	f994 1030 	ldrsb.w	r1, [r4, #48]	; 0x30
 80a1678:	6aa0      	ldr	r0, [r4, #40]	; 0x28
 80a167a:	f002 f8f3 	bl	80a3864 <_ZN7TwoWire17beginTransmissionEi>
        WIRE_WRITE((uint8_t)0x00); // Co = 0, D/C = 0
 80a167e:	6aa0      	ldr	r0, [r4, #40]	; 0x28
 80a1680:	2100      	movs	r1, #0
 80a1682:	6803      	ldr	r3, [r0, #0]
        bytesOut = 1;
 80a1684:	2601      	movs	r6, #1
    uint8_t bytesOut = 1;
    while(n--) {
      if(bytesOut >= WIRE_MAX) {
        wire->endTransmission();
        wire->beginTransmission(i2caddr);
        WIRE_WRITE((uint8_t)0x00); // Co = 0, D/C = 0
 80a1686:	689b      	ldr	r3, [r3, #8]
 80a1688:	4798      	blx	r3
        bytesOut = 1;
      }
      WIRE_WRITE(pgm_read_byte(c++));
 80a168a:	6aa0      	ldr	r0, [r4, #40]	; 0x28
 80a168c:	f815 1b01 	ldrb.w	r1, [r5], #1
 80a1690:	6803      	ldr	r3, [r0, #0]
      bytesOut++;
 80a1692:	3601      	adds	r6, #1
        wire->endTransmission();
        wire->beginTransmission(i2caddr);
        WIRE_WRITE((uint8_t)0x00); // Co = 0, D/C = 0
        bytesOut = 1;
      }
      WIRE_WRITE(pgm_read_byte(c++));
 80a1694:	689b      	ldr	r3, [r3, #8]
 80a1696:	4798      	blx	r3
      bytesOut++;
 80a1698:	b2f6      	uxtb	r6, r6
void Adafruit_SSD1306::ssd1306_commandList(const uint8_t *c, uint8_t n) {
  if(wire) { // I2C
    wire->beginTransmission(i2caddr);
    WIRE_WRITE((uint8_t)0x00); // Co = 0, D/C = 0
    uint8_t bytesOut = 1;
    while(n--) {
 80a169a:	e7e4      	b.n	80a1666 <_ZN16Adafruit_SSD130619ssd1306_commandListEPKhh+0x24>
        bytesOut = 1;
      }
      WIRE_WRITE(pgm_read_byte(c++));
      bytesOut++;
    }
    wire->endTransmission();
 80a169c:	6aa0      	ldr	r0, [r4, #40]	; 0x28
  } else { // SPI -- transaction started in calling function
    SSD1306_MODE_COMMAND
    while(n--) SPIwrite(pgm_read_byte(c++));
  }
}
 80a169e:	e8bd 43f8 	ldmia.w	sp!, {r3, r4, r5, r6, r7, r8, r9, lr}
        bytesOut = 1;
      }
      WIRE_WRITE(pgm_read_byte(c++));
      bytesOut++;
    }
    wire->endTransmission();
 80a16a2:	f002 b8e6 	b.w	80a3872 <_ZN7TwoWire15endTransmissionEv>
  } else { // SPI -- transaction started in calling function
    SSD1306_MODE_COMMAND
 80a16a6:	f994 3035 	ldrsb.w	r3, [r4, #53]	; 0x35
 80a16aa:	4601      	mov	r1, r0
 80a16ac:	b298      	uxth	r0, r3
 80a16ae:	f002 f9da 	bl	80a3a66 <digitalWrite>
    while(n--) SPIwrite(pgm_read_byte(c++));
 80a16b2:	4545      	cmp	r5, r8
 80a16b4:	d021      	beq.n	80a16fa <_ZN16Adafruit_SSD130619ssd1306_commandListEPKhh+0xb8>
// LOW-LEVEL UTILS ---------------------------------------------------------

// Issue single byte out SPI, either soft or hardware as appropriate.
// SPI transaction/selection must be performed in calling function.
inline void Adafruit_SSD1306::SPIwrite(uint8_t d) {
  if(spi) {
 80a16b6:	6a60      	ldr	r0, [r4, #36]	; 0x24
      bytesOut++;
    }
    wire->endTransmission();
  } else { // SPI -- transaction started in calling function
    SSD1306_MODE_COMMAND
    while(n--) SPIwrite(pgm_read_byte(c++));
 80a16b8:	f815 9b01 	ldrb.w	r9, [r5], #1
// LOW-LEVEL UTILS ---------------------------------------------------------

// Issue single byte out SPI, either soft or hardware as appropriate.
// SPI transaction/selection must be performed in calling function.
inline void Adafruit_SSD1306::SPIwrite(uint8_t d) {
  if(spi) {
 80a16bc:	b118      	cbz	r0, 80a16c6 <_ZN16Adafruit_SSD130619ssd1306_commandListEPKhh+0x84>
    (void)spi->transfer(d);
 80a16be:	4649      	mov	r1, r9
 80a16c0:	f001 f8df 	bl	80a2882 <_ZN8SPIClass8transferEh>
 80a16c4:	e7f5      	b.n	80a16b2 <_ZN16Adafruit_SSD130619ssd1306_commandListEPKhh+0x70>
// LOW-LEVEL UTILS ---------------------------------------------------------

// Issue single byte out SPI, either soft or hardware as appropriate.
// SPI transaction/selection must be performed in calling function.
inline void Adafruit_SSD1306::SPIwrite(uint8_t d) {
  if(spi) {
 80a16c6:	2608      	movs	r6, #8
 80a16c8:	2780      	movs	r7, #128	; 0x80
      if(d & bit) *mosiPort |=  mosiPinMask;
      else        *mosiPort &= ~mosiPinMask;
      *clkPort |=  clkPinMask; // Clock high
      *clkPort &= ~clkPinMask; // Clock low
#else
      digitalWrite(mosiPin, d & bit);
 80a16ca:	f994 0033 	ldrsb.w	r0, [r4, #51]	; 0x33
 80a16ce:	ea09 0107 	and.w	r1, r9, r7
 80a16d2:	b280      	uxth	r0, r0
 80a16d4:	f002 f9c7 	bl	80a3a66 <digitalWrite>
      digitalWrite(clkPin , HIGH);
 80a16d8:	f994 0034 	ldrsb.w	r0, [r4, #52]	; 0x34
 80a16dc:	2101      	movs	r1, #1
 80a16de:	b280      	uxth	r0, r0
 80a16e0:	f002 f9c1 	bl	80a3a66 <digitalWrite>
      digitalWrite(clkPin , LOW);
 80a16e4:	f994 0034 	ldrsb.w	r0, [r4, #52]	; 0x34
 80a16e8:	2100      	movs	r1, #0
 80a16ea:	b280      	uxth	r0, r0
 80a16ec:	f002 f9bb 	bl	80a3a66 <digitalWrite>
// SPI transaction/selection must be performed in calling function.
inline void Adafruit_SSD1306::SPIwrite(uint8_t d) {
  if(spi) {
    (void)spi->transfer(d);
  } else {
    for(uint8_t bit = 0x80; bit; bit >>= 1) {
 80a16f0:	3e01      	subs	r6, #1
 80a16f2:	ea4f 0757 	mov.w	r7, r7, lsr #1
 80a16f6:	d1e8      	bne.n	80a16ca <_ZN16Adafruit_SSD130619ssd1306_commandListEPKhh+0x88>
 80a16f8:	e7db      	b.n	80a16b2 <_ZN16Adafruit_SSD130619ssd1306_commandListEPKhh+0x70>
 80a16fa:	e8bd 83f8 	ldmia.w	sp!, {r3, r4, r5, r6, r7, r8, r9, pc}

080a16fe <_ZN16Adafruit_SSD130612clearDisplayEv>:
    @note   Changes buffer contents only, no immediate effect on display.
            Follow up with a call to display(), or with other graphics
            commands as needed by one's own application.
*/
void Adafruit_SSD1306::clearDisplay(void) {
  memset(buffer, 0, WIDTH * ((HEIGHT + 7) / 8));
 80a16fe:	f9b0 300a 	ldrsh.w	r3, [r0, #10]
 80a1702:	2208      	movs	r2, #8
 80a1704:	3307      	adds	r3, #7
 80a1706:	fb93 f3f2 	sdiv	r3, r3, r2
 80a170a:	f9b0 2008 	ldrsh.w	r2, [r0, #8]
 80a170e:	2100      	movs	r1, #0
 80a1710:	435a      	muls	r2, r3
 80a1712:	6ac0      	ldr	r0, [r0, #44]	; 0x2c
 80a1714:	f003 ba05 	b.w	80a4b22 <memset>

080a1718 <_ZN16Adafruit_SSD13065beginEhhbb>:
            Well-behaved code should check the return value before
            proceeding.
    @note   MUST call this function before any drawing or updates!
*/
boolean Adafruit_SSD1306::begin(uint8_t vcs, uint8_t addr, boolean reset,
  boolean periphBegin) {
 80a1718:	e92d 41ff 	stmdb	sp!, {r0, r1, r2, r3, r4, r5, r6, r7, r8, lr}
 80a171c:	461e      	mov	r6, r3

  if((!buffer) && !(buffer = (uint8_t *)malloc(WIDTH * ((HEIGHT + 7) / 8))))
 80a171e:	6ac3      	ldr	r3, [r0, #44]	; 0x2c
            Well-behaved code should check the return value before
            proceeding.
    @note   MUST call this function before any drawing or updates!
*/
boolean Adafruit_SSD1306::begin(uint8_t vcs, uint8_t addr, boolean reset,
  boolean periphBegin) {
 80a1720:	4604      	mov	r4, r0
 80a1722:	4688      	mov	r8, r1
 80a1724:	4615      	mov	r5, r2
 80a1726:	f89d 7028 	ldrb.w	r7, [sp, #40]	; 0x28

  if((!buffer) && !(buffer = (uint8_t *)malloc(WIDTH * ((HEIGHT + 7) / 8))))
 80a172a:	b973      	cbnz	r3, 80a174a <_ZN16Adafruit_SSD13065beginEhhbb+0x32>
 80a172c:	f9b0 300a 	ldrsh.w	r3, [r0, #10]
 80a1730:	2008      	movs	r0, #8
 80a1732:	3307      	adds	r3, #7
 80a1734:	fb93 f3f0 	sdiv	r3, r3, r0
 80a1738:	f9b4 0008 	ldrsh.w	r0, [r4, #8]
 80a173c:	4358      	muls	r0, r3
 80a173e:	f000 ffad 	bl	80a269c <malloc>
 80a1742:	62e0      	str	r0, [r4, #44]	; 0x2c
 80a1744:	2800      	cmp	r0, #0
 80a1746:	f000 810e 	beq.w	80a1966 <_ZN16Adafruit_SSD13065beginEhhbb+0x24e>
    return false;

  clearDisplay();
 80a174a:	4620      	mov	r0, r4
 80a174c:	f7ff ffd7 	bl	80a16fe <_ZN16Adafruit_SSD130612clearDisplayEv>
  if(HEIGHT > 32) {
 80a1750:	f9b4 200a 	ldrsh.w	r2, [r4, #10]
 80a1754:	f9b4 3008 	ldrsh.w	r3, [r4, #8]
 80a1758:	2a20      	cmp	r2, #32
 80a175a:	f04f 0102 	mov.w	r1, #2
 80a175e:	dd0d      	ble.n	80a177c <_ZN16Adafruit_SSD13065beginEhhbb+0x64>
    drawBitmap((WIDTH - splash1_width) / 2, (HEIGHT - splash1_height) / 2,
      splash1_data, splash1_width, splash1_height, 1);
 80a1760:	3b52      	subs	r3, #82	; 0x52
 80a1762:	3a40      	subs	r2, #64	; 0x40
 80a1764:	fb92 f2f1 	sdiv	r2, r2, r1
 80a1768:	2052      	movs	r0, #82	; 0x52
 80a176a:	fb93 f1f1 	sdiv	r1, r3, r1
 80a176e:	f04f 0c01 	mov.w	ip, #1
 80a1772:	2340      	movs	r3, #64	; 0x40
 80a1774:	e88d 1009 	stmia.w	sp, {r0, r3, ip}
 80a1778:	4b7c      	ldr	r3, [pc, #496]	; (80a196c <_ZN16Adafruit_SSD13065beginEhhbb+0x254>)
 80a177a:	e00c      	b.n	80a1796 <_ZN16Adafruit_SSD13065beginEhhbb+0x7e>
  } else {
    drawBitmap((WIDTH - splash2_width) / 2, (HEIGHT - splash2_height) / 2,
      splash2_data, splash2_width, splash2_height, 1);
 80a177c:	3b73      	subs	r3, #115	; 0x73
 80a177e:	3a20      	subs	r2, #32
 80a1780:	fb92 f2f1 	sdiv	r2, r2, r1
 80a1784:	2073      	movs	r0, #115	; 0x73
 80a1786:	fb93 f1f1 	sdiv	r1, r3, r1
 80a178a:	f04f 0e01 	mov.w	lr, #1
 80a178e:	2320      	movs	r3, #32
 80a1790:	e88d 4009 	stmia.w	sp, {r0, r3, lr}
 80a1794:	4b76      	ldr	r3, [pc, #472]	; (80a1970 <_ZN16Adafruit_SSD13065beginEhhbb+0x258>)
 80a1796:	4620      	mov	r0, r4
 80a1798:	b212      	sxth	r2, r2
 80a179a:	b209      	sxth	r1, r1
 80a179c:	f7ff fbf5 	bl	80a0f8a <_ZN12Adafruit_GFX10drawBitmapEssPKhsst>
  }

  vccstate = vcs;

  // Setup pin directions
  if(wire) { // Using I2C
 80a17a0:	6aa0      	ldr	r0, [r4, #40]	; 0x28
  } else {
    drawBitmap((WIDTH - splash2_width) / 2, (HEIGHT - splash2_height) / 2,
      splash2_data, splash2_width, splash2_height, 1);
  }

  vccstate = vcs;
 80a17a2:	f884 8031 	strb.w	r8, [r4, #49]	; 0x31

  // Setup pin directions
  if(wire) { // Using I2C
 80a17a6:	b180      	cbz	r0, 80a17ca <_ZN16Adafruit_SSD13065beginEhhbb+0xb2>
    // If I2C address is unspecified, use default
    // (0x3C for 32-pixel-tall displays, 0x3D for all others).
    i2caddr = addr ? addr : ((HEIGHT == 32) ? 0x3C : 0x3D);
 80a17a8:	b935      	cbnz	r5, 80a17b8 <_ZN16Adafruit_SSD13065beginEhhbb+0xa0>
 80a17aa:	f9b4 300a 	ldrsh.w	r3, [r4, #10]
 80a17ae:	2b20      	cmp	r3, #32
 80a17b0:	bf14      	ite	ne
 80a17b2:	253d      	movne	r5, #61	; 0x3d
 80a17b4:	253c      	moveq	r5, #60	; 0x3c
 80a17b6:	e000      	b.n	80a17ba <_ZN16Adafruit_SSD13065beginEhhbb+0xa2>
 80a17b8:	b26d      	sxtb	r5, r5
 80a17ba:	f884 5030 	strb.w	r5, [r4, #48]	; 0x30
    // TwoWire begin() function might be already performed by the calling
    // function if it has unusual circumstances (e.g. TWI variants that
    // can accept different SDA/SCL pins, or if two SSD1306 instances
    // with different addresses -- only a single begin() is needed).
    if(periphBegin) wire->begin();
 80a17be:	2f00      	cmp	r7, #0
 80a17c0:	f000 80cd 	beq.w	80a195e <_ZN16Adafruit_SSD13065beginEhhbb+0x246>
 80a17c4:	f002 f844 	bl	80a3850 <_ZN7TwoWire5beginEv>
 80a17c8:	e02a      	b.n	80a1820 <_ZN16Adafruit_SSD13065beginEhhbb+0x108>
  } else { // Using one of the SPI modes, either soft or hardware
    pinMode(dcPin, OUTPUT); // Set data/command pin as output
 80a17ca:	f994 0035 	ldrsb.w	r0, [r4, #53]	; 0x35
 80a17ce:	2101      	movs	r1, #1
 80a17d0:	b280      	uxth	r0, r0
 80a17d2:	f002 f937 	bl	80a3a44 <pinMode>
    pinMode(csPin, OUTPUT); // Same for chip select
 80a17d6:	f994 0036 	ldrsb.w	r0, [r4, #54]	; 0x36
 80a17da:	2101      	movs	r1, #1
 80a17dc:	b280      	uxth	r0, r0
 80a17de:	f002 f931 	bl	80a3a44 <pinMode>
    dcPort    = (PortReg *)portOutputRegister(digitalPinToPort(dcPin));
    dcPinMask = digitalPinToBitMask(dcPin);
    csPort    = (PortReg *)portOutputRegister(digitalPinToPort(csPin));
    csPinMask = digitalPinToBitMask(csPin);
#endif
    SSD1306_DESELECT
 80a17e2:	f994 0036 	ldrsb.w	r0, [r4, #54]	; 0x36
 80a17e6:	2101      	movs	r1, #1
 80a17e8:	b280      	uxth	r0, r0
 80a17ea:	f002 f93c 	bl	80a3a66 <digitalWrite>
    if(spi) { // Hardware SPI
 80a17ee:	6a65      	ldr	r5, [r4, #36]	; 0x24
 80a17f0:	b125      	cbz	r5, 80a17fc <_ZN16Adafruit_SSD13065beginEhhbb+0xe4>
      // SPI peripheral begin same as wire check above.
      if(periphBegin) spi->begin();
 80a17f2:	b1af      	cbz	r7, 80a1820 <_ZN16Adafruit_SSD13065beginEhhbb+0x108>
 80a17f4:	4628      	mov	r0, r5
 80a17f6:	f000 ffa9 	bl	80a274c <_ZN8SPIClass5beginEv>
 80a17fa:	e011      	b.n	80a1820 <_ZN16Adafruit_SSD13065beginEhhbb+0x108>
    } else {  // Soft SPI
      pinMode(mosiPin, OUTPUT); // MOSI and SCLK outputs
 80a17fc:	f994 0033 	ldrsb.w	r0, [r4, #51]	; 0x33
 80a1800:	2101      	movs	r1, #1
 80a1802:	b280      	uxth	r0, r0
 80a1804:	f002 f91e 	bl	80a3a44 <pinMode>
      pinMode(clkPin , OUTPUT);
 80a1808:	f994 0034 	ldrsb.w	r0, [r4, #52]	; 0x34
 80a180c:	2101      	movs	r1, #1
 80a180e:	b280      	uxth	r0, r0
 80a1810:	f002 f918 	bl	80a3a44 <pinMode>
      mosiPinMask = digitalPinToBitMask(mosiPin);
      clkPort     = (PortReg *)portOutputRegister(digitalPinToPort(clkPin));
      clkPinMask  = digitalPinToBitMask(clkPin);
      *clkPort   &= ~clkPinMask; // Clock low
#else
      digitalWrite(clkPin, LOW); // Clock low
 80a1814:	f994 0034 	ldrsb.w	r0, [r4, #52]	; 0x34
 80a1818:	4629      	mov	r1, r5
 80a181a:	b280      	uxth	r0, r0
 80a181c:	f002 f923 	bl	80a3a66 <digitalWrite>
#endif
    }
  }

  // Reset SSD1306 if requested and reset pin specified in constructor
  if(reset && (rstPin >= 0)) {
 80a1820:	b1fe      	cbz	r6, 80a1862 <_ZN16Adafruit_SSD13065beginEhhbb+0x14a>
 80a1822:	f994 0037 	ldrsb.w	r0, [r4, #55]	; 0x37
 80a1826:	2800      	cmp	r0, #0
 80a1828:	db1b      	blt.n	80a1862 <_ZN16Adafruit_SSD13065beginEhhbb+0x14a>
    pinMode(     rstPin, OUTPUT);
 80a182a:	2101      	movs	r1, #1
 80a182c:	b280      	uxth	r0, r0
 80a182e:	f002 f909 	bl	80a3a44 <pinMode>
    digitalWrite(rstPin, HIGH);
 80a1832:	f994 0037 	ldrsb.w	r0, [r4, #55]	; 0x37
 80a1836:	2101      	movs	r1, #1
 80a1838:	b280      	uxth	r0, r0
 80a183a:	f002 f914 	bl	80a3a66 <digitalWrite>
    delay(1);                   // VDD goes high at start, pause for 1 ms
 80a183e:	2001      	movs	r0, #1
 80a1840:	f001 f9e4 	bl	80a2c0c <delay>
    digitalWrite(rstPin, LOW);  // Bring reset low
 80a1844:	f994 0037 	ldrsb.w	r0, [r4, #55]	; 0x37
 80a1848:	2100      	movs	r1, #0
 80a184a:	b280      	uxth	r0, r0
 80a184c:	f002 f90b 	bl	80a3a66 <digitalWrite>
    delay(10);                  // Wait 10 ms
 80a1850:	200a      	movs	r0, #10
 80a1852:	f001 f9db 	bl	80a2c0c <delay>
    digitalWrite(rstPin, HIGH); // Bring out of reset
 80a1856:	f994 0037 	ldrsb.w	r0, [r4, #55]	; 0x37
 80a185a:	2101      	movs	r1, #1
 80a185c:	b280      	uxth	r0, r0
 80a185e:	f002 f902 	bl	80a3a66 <digitalWrite>
  }

  TRANSACTION_START
 80a1862:	6aa0      	ldr	r0, [r4, #40]	; 0x28
 80a1864:	b118      	cbz	r0, 80a186e <_ZN16Adafruit_SSD13065beginEhhbb+0x156>
 80a1866:	6ca1      	ldr	r1, [r4, #72]	; 0x48
 80a1868:	f001 ffee 	bl	80a3848 <_ZN7TwoWire8setSpeedEm>
 80a186c:	e00b      	b.n	80a1886 <_ZN16Adafruit_SSD13065beginEhhbb+0x16e>
 80a186e:	6a60      	ldr	r0, [r4, #36]	; 0x24
 80a1870:	b118      	cbz	r0, 80a187a <_ZN16Adafruit_SSD13065beginEhhbb+0x162>
 80a1872:	f104 0138 	add.w	r1, r4, #56	; 0x38
 80a1876:	f000 ff95 	bl	80a27a4 <_ZN8SPIClass16beginTransactionERKN8particle13__SPISettingsE>
 80a187a:	f994 0036 	ldrsb.w	r0, [r4, #54]	; 0x36
 80a187e:	2100      	movs	r1, #0
 80a1880:	b280      	uxth	r0, r0
 80a1882:	f002 f8f0 	bl	80a3a66 <digitalWrite>
  static const uint8_t PROGMEM init1[] = {
    SSD1306_DISPLAYOFF,                   // 0xAE
    SSD1306_SETDISPLAYCLOCKDIV,           // 0xD5
    0x80,                                 // the suggested ratio 0x80
    SSD1306_SETMULTIPLEX };               // 0xA8
  ssd1306_commandList(init1, sizeof(init1));
 80a1886:	2204      	movs	r2, #4
 80a1888:	493a      	ldr	r1, [pc, #232]	; (80a1974 <_ZN16Adafruit_SSD13065beginEhhbb+0x25c>)
 80a188a:	4620      	mov	r0, r4
 80a188c:	f7ff fed9 	bl	80a1642 <_ZN16Adafruit_SSD130619ssd1306_commandListEPKhh>
  ssd1306_command1(HEIGHT - 1);
 80a1890:	7aa1      	ldrb	r1, [r4, #10]
 80a1892:	4620      	mov	r0, r4
 80a1894:	3901      	subs	r1, #1
 80a1896:	b2c9      	uxtb	r1, r1
 80a1898:	f7ff fe64 	bl	80a1564 <_ZN16Adafruit_SSD130616ssd1306_command1Eh>
  static const uint8_t PROGMEM init2[] = {
    SSD1306_SETDISPLAYOFFSET,             // 0xD3
    0x0,                                  // no offset
    SSD1306_SETSTARTLINE | 0x0,           // line #0
    SSD1306_CHARGEPUMP };                 // 0x8D
  ssd1306_commandList(init2, sizeof(init2));
 80a189c:	4936      	ldr	r1, [pc, #216]	; (80a1978 <_ZN16Adafruit_SSD13065beginEhhbb+0x260>)
 80a189e:	2204      	movs	r2, #4
 80a18a0:	4620      	mov	r0, r4
 80a18a2:	f7ff fece 	bl	80a1642 <_ZN16Adafruit_SSD130619ssd1306_commandListEPKhh>

  ssd1306_command1((vccstate == SSD1306_EXTERNALVCC) ? 0x10 : 0x14);
 80a18a6:	f994 3031 	ldrsb.w	r3, [r4, #49]	; 0x31
 80a18aa:	4620      	mov	r0, r4
 80a18ac:	2b01      	cmp	r3, #1
 80a18ae:	bf14      	ite	ne
 80a18b0:	2114      	movne	r1, #20
 80a18b2:	2110      	moveq	r1, #16
 80a18b4:	f7ff fe56 	bl	80a1564 <_ZN16Adafruit_SSD130616ssd1306_command1Eh>
  static const uint8_t PROGMEM init3[] = {
    SSD1306_MEMORYMODE,                   // 0x20
    0x00,                                 // 0x0 act like ks0108
    SSD1306_SEGREMAP | 0x1,
    SSD1306_COMSCANDEC };
  ssd1306_commandList(init3, sizeof(init3));
 80a18b8:	2204      	movs	r2, #4
 80a18ba:	4930      	ldr	r1, [pc, #192]	; (80a197c <_ZN16Adafruit_SSD13065beginEhhbb+0x264>)
 80a18bc:	4620      	mov	r0, r4
 80a18be:	f7ff fec0 	bl	80a1642 <_ZN16Adafruit_SSD130619ssd1306_commandListEPKhh>

  if((WIDTH == 128) && (HEIGHT == 32)) {
 80a18c2:	68a3      	ldr	r3, [r4, #8]
 80a18c4:	4a2e      	ldr	r2, [pc, #184]	; (80a1980 <_ZN16Adafruit_SSD13065beginEhhbb+0x268>)
 80a18c6:	4293      	cmp	r3, r2
 80a18c8:	d105      	bne.n	80a18d6 <_ZN16Adafruit_SSD13065beginEhhbb+0x1be>
    static const uint8_t PROGMEM init4a[] = {
      SSD1306_SETCOMPINS,                 // 0xDA
      0x02,
      SSD1306_SETCONTRAST,                // 0x81
      0x8F };
    ssd1306_commandList(init4a, sizeof(init4a));
 80a18ca:	2204      	movs	r2, #4
 80a18cc:	492d      	ldr	r1, [pc, #180]	; (80a1984 <_ZN16Adafruit_SSD13065beginEhhbb+0x26c>)
 80a18ce:	4620      	mov	r0, r4
 80a18d0:	f7ff feb7 	bl	80a1642 <_ZN16Adafruit_SSD130619ssd1306_commandListEPKhh>
 80a18d4:	e01f      	b.n	80a1916 <_ZN16Adafruit_SSD13065beginEhhbb+0x1fe>
  } else if((WIDTH == 128) && (HEIGHT == 64)) {
 80a18d6:	4a2c      	ldr	r2, [pc, #176]	; (80a1988 <_ZN16Adafruit_SSD13065beginEhhbb+0x270>)
 80a18d8:	4293      	cmp	r3, r2
 80a18da:	d10b      	bne.n	80a18f4 <_ZN16Adafruit_SSD13065beginEhhbb+0x1dc>
    static const uint8_t PROGMEM init4b[] = {
      SSD1306_SETCOMPINS,                 // 0xDA
      0x12,
      SSD1306_SETCONTRAST };              // 0x81
    ssd1306_commandList(init4b, sizeof(init4b));
 80a18dc:	492b      	ldr	r1, [pc, #172]	; (80a198c <_ZN16Adafruit_SSD13065beginEhhbb+0x274>)
 80a18de:	2203      	movs	r2, #3
 80a18e0:	4620      	mov	r0, r4
 80a18e2:	f7ff feae 	bl	80a1642 <_ZN16Adafruit_SSD130619ssd1306_commandListEPKhh>
    ssd1306_command1((vccstate == SSD1306_EXTERNALVCC) ? 0x9F : 0xCF);
 80a18e6:	f994 3031 	ldrsb.w	r3, [r4, #49]	; 0x31
 80a18ea:	2b01      	cmp	r3, #1
 80a18ec:	bf14      	ite	ne
 80a18ee:	21cf      	movne	r1, #207	; 0xcf
 80a18f0:	219f      	moveq	r1, #159	; 0x9f
 80a18f2:	e00d      	b.n	80a1910 <_ZN16Adafruit_SSD13065beginEhhbb+0x1f8>
  } else if((WIDTH == 96) && (HEIGHT == 16)) {
 80a18f4:	4a26      	ldr	r2, [pc, #152]	; (80a1990 <_ZN16Adafruit_SSD13065beginEhhbb+0x278>)
 80a18f6:	4293      	cmp	r3, r2
 80a18f8:	d10d      	bne.n	80a1916 <_ZN16Adafruit_SSD13065beginEhhbb+0x1fe>
    static const uint8_t PROGMEM init4c[] = {
      SSD1306_SETCOMPINS,                 // 0xDA
      0x2,    // ada x12
      SSD1306_SETCONTRAST };              // 0x81
    ssd1306_commandList(init4c, sizeof(init4c));
 80a18fa:	4926      	ldr	r1, [pc, #152]	; (80a1994 <_ZN16Adafruit_SSD13065beginEhhbb+0x27c>)
 80a18fc:	2203      	movs	r2, #3
 80a18fe:	4620      	mov	r0, r4
 80a1900:	f7ff fe9f 	bl	80a1642 <_ZN16Adafruit_SSD130619ssd1306_commandListEPKhh>
    ssd1306_command1((vccstate == SSD1306_EXTERNALVCC) ? 0x10 : 0xAF);
 80a1904:	f994 3031 	ldrsb.w	r3, [r4, #49]	; 0x31
 80a1908:	2b01      	cmp	r3, #1
 80a190a:	bf14      	ite	ne
 80a190c:	21af      	movne	r1, #175	; 0xaf
 80a190e:	2110      	moveq	r1, #16
 80a1910:	4620      	mov	r0, r4
 80a1912:	f7ff fe27 	bl	80a1564 <_ZN16Adafruit_SSD130616ssd1306_command1Eh>
  } else {
    // Other screen varieties -- TBD
  }

  ssd1306_command1(SSD1306_SETPRECHARGE); // 0xd9
 80a1916:	21d9      	movs	r1, #217	; 0xd9
 80a1918:	4620      	mov	r0, r4
 80a191a:	f7ff fe23 	bl	80a1564 <_ZN16Adafruit_SSD130616ssd1306_command1Eh>
  ssd1306_command1((vccstate == SSD1306_EXTERNALVCC) ? 0x22 : 0xF1);
 80a191e:	f994 3031 	ldrsb.w	r3, [r4, #49]	; 0x31
 80a1922:	4620      	mov	r0, r4
 80a1924:	2b01      	cmp	r3, #1
 80a1926:	bf14      	ite	ne
 80a1928:	21f1      	movne	r1, #241	; 0xf1
 80a192a:	2122      	moveq	r1, #34	; 0x22
 80a192c:	f7ff fe1a 	bl	80a1564 <_ZN16Adafruit_SSD130616ssd1306_command1Eh>
    0x40,
    SSD1306_DISPLAYALLON_RESUME,         // 0xA4
    SSD1306_NORMALDISPLAY,               // 0xA6
    SSD1306_DEACTIVATE_SCROLL,
    SSD1306_DISPLAYON };                 // Main screen turn on
  ssd1306_commandList(init5, sizeof(init5));
 80a1930:	4620      	mov	r0, r4
 80a1932:	2206      	movs	r2, #6
 80a1934:	4918      	ldr	r1, [pc, #96]	; (80a1998 <_ZN16Adafruit_SSD13065beginEhhbb+0x280>)
 80a1936:	f7ff fe84 	bl	80a1642 <_ZN16Adafruit_SSD130619ssd1306_commandListEPKhh>

  TRANSACTION_END
 80a193a:	6aa0      	ldr	r0, [r4, #40]	; 0x28
 80a193c:	b118      	cbz	r0, 80a1946 <_ZN16Adafruit_SSD13065beginEhhbb+0x22e>
 80a193e:	6ce1      	ldr	r1, [r4, #76]	; 0x4c
 80a1940:	f001 ff82 	bl	80a3848 <_ZN7TwoWire8setSpeedEm>
 80a1944:	e009      	b.n	80a195a <_ZN16Adafruit_SSD13065beginEhhbb+0x242>
 80a1946:	f994 0036 	ldrsb.w	r0, [r4, #54]	; 0x36
 80a194a:	2101      	movs	r1, #1
 80a194c:	b280      	uxth	r0, r0
 80a194e:	f002 f88a 	bl	80a3a66 <digitalWrite>
 80a1952:	6a60      	ldr	r0, [r4, #36]	; 0x24
 80a1954:	b108      	cbz	r0, 80a195a <_ZN16Adafruit_SSD13065beginEhhbb+0x242>
 80a1956:	f000 ff09 	bl	80a276c <_ZN8SPIClass14endTransactionEv>

  return true; // Success
 80a195a:	2001      	movs	r0, #1
 80a195c:	e003      	b.n	80a1966 <_ZN16Adafruit_SSD13065beginEhhbb+0x24e>
#endif
    }
  }

  // Reset SSD1306 if requested and reset pin specified in constructor
  if(reset && (rstPin >= 0)) {
 80a195e:	2e00      	cmp	r6, #0
 80a1960:	f47f af5f 	bne.w	80a1822 <_ZN16Adafruit_SSD13065beginEhhbb+0x10a>
 80a1964:	e77f      	b.n	80a1866 <_ZN16Adafruit_SSD13065beginEhhbb+0x14e>
  ssd1306_commandList(init5, sizeof(init5));

  TRANSACTION_END

  return true; // Success
}
 80a1966:	b004      	add	sp, #16
 80a1968:	e8bd 81f0 	ldmia.w	sp!, {r4, r5, r6, r7, r8, pc}
 80a196c:	080a5300 	.word	0x080a5300
 80a1970:	080a55c0 	.word	0x080a55c0
 80a1974:	080a5286 	.word	0x080a5286
 80a1978:	080a528a 	.word	0x080a528a
 80a197c:	080a528e 	.word	0x080a528e
 80a1980:	00200080 	.word	0x00200080
 80a1984:	080a527f 	.word	0x080a527f
 80a1988:	00400080 	.word	0x00400080
 80a198c:	080a5283 	.word	0x080a5283
 80a1990:	00100060 	.word	0x00100060
 80a1994:	080a527c 	.word	0x080a527c
 80a1998:	080a5292 	.word	0x080a5292

080a199c <_ZN16Adafruit_SSD130621drawFastHLineInternalEssst>:
  if(bSwap) drawFastVLineInternal(x, y, w, color);
  else      drawFastHLineInternal(x, y, w, color);
}

void Adafruit_SSD1306::drawFastHLineInternal(
  int16_t x, int16_t y, int16_t w, uint16_t color) {
 80a199c:	b570      	push	{r4, r5, r6, lr}

  if((y >= 0) && (y < HEIGHT)) { // Y coord in bounds?
 80a199e:	2a00      	cmp	r2, #0
  if(bSwap) drawFastVLineInternal(x, y, w, color);
  else      drawFastHLineInternal(x, y, w, color);
}

void Adafruit_SSD1306::drawFastHLineInternal(
  int16_t x, int16_t y, int16_t w, uint16_t color) {
 80a19a0:	f8bd 5010 	ldrh.w	r5, [sp, #16]

  if((y >= 0) && (y < HEIGHT)) { // Y coord in bounds?
 80a19a4:	db44      	blt.n	80a1a30 <_ZN16Adafruit_SSD130621drawFastHLineInternalEssst+0x94>
 80a19a6:	f9b0 400a 	ldrsh.w	r4, [r0, #10]
 80a19aa:	4294      	cmp	r4, r2
 80a19ac:	dd40      	ble.n	80a1a30 <_ZN16Adafruit_SSD130621drawFastHLineInternalEssst+0x94>
    if(x < 0) { // Clip left
 80a19ae:	2900      	cmp	r1, #0
      w += x;
 80a19b0:	bfbe      	ittt	lt
 80a19b2:	185b      	addlt	r3, r3, r1
 80a19b4:	b21b      	sxthlt	r3, r3
      x  = 0;
 80a19b6:	2100      	movlt	r1, #0
    }
    if((x + w) > WIDTH) { // Clip right
 80a19b8:	f9b0 6008 	ldrsh.w	r6, [r0, #8]
 80a19bc:	185c      	adds	r4, r3, r1
 80a19be:	42b4      	cmp	r4, r6
      w = (WIDTH - x);
 80a19c0:	bfc4      	itt	gt
 80a19c2:	1a73      	subgt	r3, r6, r1
 80a19c4:	b21b      	sxthgt	r3, r3
    }
    if(w > 0) { // Proceed only if width is positive
 80a19c6:	2b00      	cmp	r3, #0
 80a19c8:	dd32      	ble.n	80a1a30 <_ZN16Adafruit_SSD130621drawFastHLineInternalEssst+0x94>
      uint8_t *pBuf = &buffer[(y / 8) * WIDTH + x],
 80a19ca:	2408      	movs	r4, #8
 80a19cc:	fb92 f4f4 	sdiv	r4, r2, r4
 80a19d0:	fb06 1104 	mla	r1, r6, r4, r1
 80a19d4:	6ac0      	ldr	r0, [r0, #44]	; 0x2c
               mask = 1 << (y & 7);
 80a19d6:	f002 0207 	and.w	r2, r2, #7
    }
    if((x + w) > WIDTH) { // Clip right
      w = (WIDTH - x);
    }
    if(w > 0) { // Proceed only if width is positive
      uint8_t *pBuf = &buffer[(y / 8) * WIDTH + x],
 80a19da:	4408      	add	r0, r1
               mask = 1 << (y & 7);
 80a19dc:	2101      	movs	r1, #1
 80a19de:	fa01 f202 	lsl.w	r2, r1, r2
      switch(color) {
 80a19e2:	428d      	cmp	r5, r1
    if((x + w) > WIDTH) { // Clip right
      w = (WIDTH - x);
    }
    if(w > 0) { // Proceed only if width is positive
      uint8_t *pBuf = &buffer[(y / 8) * WIDTH + x],
               mask = 1 << (y & 7);
 80a19e4:	b2d2      	uxtb	r2, r2
      switch(color) {
 80a19e6:	d003      	beq.n	80a19f0 <_ZN16Adafruit_SSD130621drawFastHLineInternalEssst+0x54>
 80a19e8:	d30c      	bcc.n	80a1a04 <_ZN16Adafruit_SSD130621drawFastHLineInternalEssst+0x68>
 80a19ea:	2d02      	cmp	r5, #2
 80a19ec:	d016      	beq.n	80a1a1c <_ZN16Adafruit_SSD130621drawFastHLineInternalEssst+0x80>
 80a19ee:	bd70      	pop	{r4, r5, r6, pc}
 80a19f0:	3b01      	subs	r3, #1
 80a19f2:	b21b      	sxth	r3, r3
       case WHITE:               while(w--) { *pBuf++ |= mask; }; break;
 80a19f4:	1c5d      	adds	r5, r3, #1
 80a19f6:	d01b      	beq.n	80a1a30 <_ZN16Adafruit_SSD130621drawFastHLineInternalEssst+0x94>
 80a19f8:	f810 1b01 	ldrb.w	r1, [r0], #1
 80a19fc:	4311      	orrs	r1, r2
 80a19fe:	f800 1c01 	strb.w	r1, [r0, #-1]
 80a1a02:	e7f5      	b.n	80a19f0 <_ZN16Adafruit_SSD130621drawFastHLineInternalEssst+0x54>
       case BLACK: mask = ~mask; while(w--) { *pBuf++ &= mask; }; break;
 80a1a04:	43d2      	mvns	r2, r2
 80a1a06:	b2d2      	uxtb	r2, r2
 80a1a08:	3b01      	subs	r3, #1
 80a1a0a:	b21b      	sxth	r3, r3
 80a1a0c:	1c5c      	adds	r4, r3, #1
 80a1a0e:	d00f      	beq.n	80a1a30 <_ZN16Adafruit_SSD130621drawFastHLineInternalEssst+0x94>
 80a1a10:	f810 1b01 	ldrb.w	r1, [r0], #1
 80a1a14:	4011      	ands	r1, r2
 80a1a16:	f800 1c01 	strb.w	r1, [r0, #-1]
 80a1a1a:	e7f5      	b.n	80a1a08 <_ZN16Adafruit_SSD130621drawFastHLineInternalEssst+0x6c>
 80a1a1c:	3b01      	subs	r3, #1
 80a1a1e:	b21b      	sxth	r3, r3
       case INVERSE:             while(w--) { *pBuf++ ^= mask; }; break;
 80a1a20:	1c59      	adds	r1, r3, #1
 80a1a22:	d005      	beq.n	80a1a30 <_ZN16Adafruit_SSD130621drawFastHLineInternalEssst+0x94>
 80a1a24:	f810 1b01 	ldrb.w	r1, [r0], #1
 80a1a28:	4051      	eors	r1, r2
 80a1a2a:	f800 1c01 	strb.w	r1, [r0, #-1]
 80a1a2e:	e7f5      	b.n	80a1a1c <_ZN16Adafruit_SSD130621drawFastHLineInternalEssst+0x80>
 80a1a30:	bd70      	pop	{r4, r5, r6, pc}
	...

080a1a34 <_ZN16Adafruit_SSD130621drawFastVLineInternalEssst>:
  if(bSwap) drawFastHLineInternal(x, y, h, color);
  else      drawFastVLineInternal(x, y, h, color);
}

void Adafruit_SSD1306::drawFastVLineInternal(
  int16_t x, int16_t __y, int16_t __h, uint16_t color) {
 80a1a34:	b5f0      	push	{r4, r5, r6, r7, lr}

  if((x >= 0) && (x < WIDTH)) { // X coord in bounds?
 80a1a36:	2900      	cmp	r1, #0
  if(bSwap) drawFastHLineInternal(x, y, h, color);
  else      drawFastVLineInternal(x, y, h, color);
}

void Adafruit_SSD1306::drawFastVLineInternal(
  int16_t x, int16_t __y, int16_t __h, uint16_t color) {
 80a1a38:	f8bd 5014 	ldrh.w	r5, [sp, #20]

  if((x >= 0) && (x < WIDTH)) { // X coord in bounds?
 80a1a3c:	f2c0 8088 	blt.w	80a1b50 <_ZN16Adafruit_SSD130621drawFastVLineInternalEssst+0x11c>
 80a1a40:	f9b0 e008 	ldrsh.w	lr, [r0, #8]
 80a1a44:	4571      	cmp	r1, lr
 80a1a46:	f280 8083 	bge.w	80a1b50 <_ZN16Adafruit_SSD130621drawFastVLineInternalEssst+0x11c>
    if(__y < 0) { // Clip top
 80a1a4a:	2a00      	cmp	r2, #0
      __h += __y;
 80a1a4c:	bfbe      	ittt	lt
 80a1a4e:	189b      	addlt	r3, r3, r2
 80a1a50:	b21b      	sxthlt	r3, r3
      __y = 0;
 80a1a52:	2200      	movlt	r2, #0
    }
    if((__y + __h) > HEIGHT) { // Clip bottom
 80a1a54:	f9b0 400a 	ldrsh.w	r4, [r0, #10]
 80a1a58:	18d6      	adds	r6, r2, r3
 80a1a5a:	42a6      	cmp	r6, r4
      __h = (HEIGHT - __y);
 80a1a5c:	bfc4      	itt	gt
 80a1a5e:	1aa3      	subgt	r3, r4, r2
 80a1a60:	b21b      	sxthgt	r3, r3
    }
    if(__h > 0) { // Proceed only if height is now positive
 80a1a62:	2b00      	cmp	r3, #0
 80a1a64:	dd74      	ble.n	80a1b50 <_ZN16Adafruit_SSD130621drawFastVLineInternalEssst+0x11c>
      // this display doesn't need ints for coordinates,
      // use local byte registers for faster juggling
      uint8_t  y = __y, h = __h;
 80a1a66:	b2d2      	uxtb	r2, r2
      uint8_t *pBuf = &buffer[(y / 8) * WIDTH + x];
 80a1a68:	08d4      	lsrs	r4, r2, #3
 80a1a6a:	fb0e 1104 	mla	r1, lr, r4, r1
 80a1a6e:	6ac6      	ldr	r6, [r0, #44]	; 0x2c

      // do the first partial byte, if necessary - this requires some masking
      uint8_t mod = (y & 7);
      if(mod) {
 80a1a70:	f012 0207 	ands.w	r2, r2, #7
      __h = (HEIGHT - __y);
    }
    if(__h > 0) { // Proceed only if height is now positive
      // this display doesn't need ints for coordinates,
      // use local byte registers for faster juggling
      uint8_t  y = __y, h = __h;
 80a1a74:	b2db      	uxtb	r3, r3
      uint8_t *pBuf = &buffer[(y / 8) * WIDTH + x];
 80a1a76:	eb06 0401 	add.w	r4, r6, r1

      // do the first partial byte, if necessary - this requires some masking
      uint8_t mod = (y & 7);
      if(mod) {
 80a1a7a:	d02b      	beq.n	80a1ad4 <_ZN16Adafruit_SSD130621drawFastVLineInternalEssst+0xa0>
        // mask off the high n bits we want to set
        mod = 8 - mod;
 80a1a7c:	f1c2 0208 	rsb	r2, r2, #8
 80a1a80:	b2d2      	uxtb	r2, r2
        // note - lookup table results in a nearly 10% performance
        // improvement in fill* functions
        // uint8_t mask = ~(0xFF >> mod);
        static const uint8_t PROGMEM premask[8] =
          { 0x00, 0x80, 0xC0, 0xE0, 0xF0, 0xF8, 0xFC, 0xFE };
        uint8_t mask = pgm_read_byte(&premask[mod]);
 80a1a82:	4f34      	ldr	r7, [pc, #208]	; (80a1b54 <_ZN16Adafruit_SSD130621drawFastVLineInternalEssst+0x120>)
        // adjust the mask if we're not going to reach the end of this byte
        if(h < mod) mask &= (0XFF >> (mod - h));
 80a1a84:	4293      	cmp	r3, r2
        // note - lookup table results in a nearly 10% performance
        // improvement in fill* functions
        // uint8_t mask = ~(0xFF >> mod);
        static const uint8_t PROGMEM premask[8] =
          { 0x00, 0x80, 0xC0, 0xE0, 0xF0, 0xF8, 0xFC, 0xFE };
        uint8_t mask = pgm_read_byte(&premask[mod]);
 80a1a86:	5cbf      	ldrb	r7, [r7, r2]
        // adjust the mask if we're not going to reach the end of this byte
        if(h < mod) mask &= (0XFF >> (mod - h));
 80a1a88:	d20d      	bcs.n	80a1aa6 <_ZN16Adafruit_SSD130621drawFastVLineInternalEssst+0x72>
 80a1a8a:	ebc3 0c02 	rsb	ip, r3, r2
 80a1a8e:	f04f 0eff 	mov.w	lr, #255	; 0xff
 80a1a92:	fa4e fe0c 	asr.w	lr, lr, ip

        switch(color) {
 80a1a96:	2d01      	cmp	r5, #1
        // uint8_t mask = ~(0xFF >> mod);
        static const uint8_t PROGMEM premask[8] =
          { 0x00, 0x80, 0xC0, 0xE0, 0xF0, 0xF8, 0xFC, 0xFE };
        uint8_t mask = pgm_read_byte(&premask[mod]);
        // adjust the mask if we're not going to reach the end of this byte
        if(h < mod) mask &= (0XFF >> (mod - h));
 80a1a98:	ea0e 0707 	and.w	r7, lr, r7

        switch(color) {
 80a1a9c:	d005      	beq.n	80a1aaa <_ZN16Adafruit_SSD130621drawFastVLineInternalEssst+0x76>
 80a1a9e:	d30a      	bcc.n	80a1ab6 <_ZN16Adafruit_SSD130621drawFastVLineInternalEssst+0x82>
 80a1aa0:	2d02      	cmp	r5, #2
 80a1aa2:	d155      	bne.n	80a1b50 <_ZN16Adafruit_SSD130621drawFastVLineInternalEssst+0x11c>
 80a1aa4:	e00c      	b.n	80a1ac0 <_ZN16Adafruit_SSD130621drawFastVLineInternalEssst+0x8c>
 80a1aa6:	2d01      	cmp	r5, #1
 80a1aa8:	d104      	bne.n	80a1ab4 <_ZN16Adafruit_SSD130621drawFastVLineInternalEssst+0x80>
         case WHITE:   *pBuf |=  mask; break;
 80a1aaa:	f816 e001 	ldrb.w	lr, [r6, r1]
 80a1aae:	ea47 070e 	orr.w	r7, r7, lr
 80a1ab2:	e009      	b.n	80a1ac8 <_ZN16Adafruit_SSD130621drawFastVLineInternalEssst+0x94>
          { 0x00, 0x80, 0xC0, 0xE0, 0xF0, 0xF8, 0xFC, 0xFE };
        uint8_t mask = pgm_read_byte(&premask[mod]);
        // adjust the mask if we're not going to reach the end of this byte
        if(h < mod) mask &= (0XFF >> (mod - h));

        switch(color) {
 80a1ab4:	d248      	bcs.n	80a1b48 <_ZN16Adafruit_SSD130621drawFastVLineInternalEssst+0x114>
         case WHITE:   *pBuf |=  mask; break;
         case BLACK:   *pBuf &= ~mask; break;
 80a1ab6:	f816 e001 	ldrb.w	lr, [r6, r1]
 80a1aba:	ea2e 0707 	bic.w	r7, lr, r7
 80a1abe:	e003      	b.n	80a1ac8 <_ZN16Adafruit_SSD130621drawFastVLineInternalEssst+0x94>
         case INVERSE: *pBuf ^=  mask; break;
 80a1ac0:	f816 e001 	ldrb.w	lr, [r6, r1]
 80a1ac4:	ea87 070e 	eor.w	r7, r7, lr
        }
        pBuf += WIDTH;
      }

      if(h >= mod) { // More to go?
 80a1ac8:	4293      	cmp	r3, r2
        if(h < mod) mask &= (0XFF >> (mod - h));

        switch(color) {
         case WHITE:   *pBuf |=  mask; break;
         case BLACK:   *pBuf &= ~mask; break;
         case INVERSE: *pBuf ^=  mask; break;
 80a1aca:	5477      	strb	r7, [r6, r1]
        }
        pBuf += WIDTH;
      }

      if(h >= mod) { // More to go?
 80a1acc:	d340      	bcc.n	80a1b50 <_ZN16Adafruit_SSD130621drawFastVLineInternalEssst+0x11c>
        switch(color) {
         case WHITE:   *pBuf |=  mask; break;
         case BLACK:   *pBuf &= ~mask; break;
         case INVERSE: *pBuf ^=  mask; break;
        }
        pBuf += WIDTH;
 80a1ace:	f9b0 1008 	ldrsh.w	r1, [r0, #8]
 80a1ad2:	440c      	add	r4, r1
      }

      if(h >= mod) { // More to go?
        h -= mod;
 80a1ad4:	1a9b      	subs	r3, r3, r2
 80a1ad6:	b2db      	uxtb	r3, r3
        // Write solid bytes while we can - effectively 8 rows at a time
        if(h >= 8) {
 80a1ad8:	2b07      	cmp	r3, #7
 80a1ada:	d91c      	bls.n	80a1b16 <_ZN16Adafruit_SSD130621drawFastVLineInternalEssst+0xe2>
          if(color == INVERSE) {
 80a1adc:	2d02      	cmp	r5, #2
 80a1ade:	d10b      	bne.n	80a1af8 <_ZN16Adafruit_SSD130621drawFastVLineInternalEssst+0xc4>
 80a1ae0:	461a      	mov	r2, r3
            // separate copy of the code so we don't impact performance of
            // black/white write version with an extra comparison per loop
            do {
              *pBuf ^= 0xFF;  // Invert byte
 80a1ae2:	7821      	ldrb	r1, [r4, #0]
              pBuf  += WIDTH; // Advance pointer 8 rows
              h     -= 8;     // Subtract 8 rows from height
 80a1ae4:	3a08      	subs	r2, #8
        if(h >= 8) {
          if(color == INVERSE) {
            // separate copy of the code so we don't impact performance of
            // black/white write version with an extra comparison per loop
            do {
              *pBuf ^= 0xFF;  // Invert byte
 80a1ae6:	43c9      	mvns	r1, r1
 80a1ae8:	7021      	strb	r1, [r4, #0]
              pBuf  += WIDTH; // Advance pointer 8 rows
 80a1aea:	f9b0 1008 	ldrsh.w	r1, [r0, #8]
              h     -= 8;     // Subtract 8 rows from height
 80a1aee:	b2d2      	uxtb	r2, r2
            } while(h >= 8);
 80a1af0:	2a07      	cmp	r2, #7
          if(color == INVERSE) {
            // separate copy of the code so we don't impact performance of
            // black/white write version with an extra comparison per loop
            do {
              *pBuf ^= 0xFF;  // Invert byte
              pBuf  += WIDTH; // Advance pointer 8 rows
 80a1af2:	440c      	add	r4, r1
              h     -= 8;     // Subtract 8 rows from height
            } while(h >= 8);
 80a1af4:	d8f5      	bhi.n	80a1ae2 <_ZN16Adafruit_SSD130621drawFastVLineInternalEssst+0xae>
 80a1af6:	e01e      	b.n	80a1b36 <_ZN16Adafruit_SSD130621drawFastVLineInternalEssst+0x102>
          } else {
            // store a local value to work with
            uint8_t val = (color != BLACK) ? 255 : 0;
 80a1af8:	2d00      	cmp	r5, #0
 80a1afa:	bf14      	ite	ne
 80a1afc:	26ff      	movne	r6, #255	; 0xff
 80a1afe:	2600      	moveq	r6, #0
 80a1b00:	461a      	mov	r2, r3
            do {
              *pBuf = val;    // Set byte
 80a1b02:	7026      	strb	r6, [r4, #0]
              pBuf += WIDTH;  // Advance pointer 8 rows
              h    -= 8;      // Subtract 8 rows from height
 80a1b04:	3a08      	subs	r2, #8
          } else {
            // store a local value to work with
            uint8_t val = (color != BLACK) ? 255 : 0;
            do {
              *pBuf = val;    // Set byte
              pBuf += WIDTH;  // Advance pointer 8 rows
 80a1b06:	f9b0 1008 	ldrsh.w	r1, [r0, #8]
              h    -= 8;      // Subtract 8 rows from height
 80a1b0a:	b2d2      	uxtb	r2, r2
            } while(h >= 8);
 80a1b0c:	2a07      	cmp	r2, #7
          } else {
            // store a local value to work with
            uint8_t val = (color != BLACK) ? 255 : 0;
            do {
              *pBuf = val;    // Set byte
              pBuf += WIDTH;  // Advance pointer 8 rows
 80a1b0e:	440c      	add	r4, r1
              h    -= 8;      // Subtract 8 rows from height
            } while(h >= 8);
 80a1b10:	d8f7      	bhi.n	80a1b02 <_ZN16Adafruit_SSD130621drawFastVLineInternalEssst+0xce>
 80a1b12:	f003 0307 	and.w	r3, r3, #7
          }
        }

        if(h) { // Do the final partial byte, if necessary
 80a1b16:	b1db      	cbz	r3, 80a1b50 <_ZN16Adafruit_SSD130621drawFastVLineInternalEssst+0x11c>
          // uint8_t mask = (1 << mod) - 1;
          // note - lookup table results in a nearly 10% performance
          // improvement in fill* functions
          static const uint8_t PROGMEM postmask[8] =
            { 0x00, 0x01, 0x03, 0x07, 0x0F, 0x1F, 0x3F, 0x7F };
          uint8_t mask = pgm_read_byte(&postmask[mod]);
 80a1b18:	4a0f      	ldr	r2, [pc, #60]	; (80a1b58 <_ZN16Adafruit_SSD130621drawFastVLineInternalEssst+0x124>)
          switch(color) {
 80a1b1a:	2d01      	cmp	r5, #1
          // uint8_t mask = (1 << mod) - 1;
          // note - lookup table results in a nearly 10% performance
          // improvement in fill* functions
          static const uint8_t PROGMEM postmask[8] =
            { 0x00, 0x01, 0x03, 0x07, 0x0F, 0x1F, 0x3F, 0x7F };
          uint8_t mask = pgm_read_byte(&postmask[mod]);
 80a1b1c:	5cd3      	ldrb	r3, [r2, r3]
          switch(color) {
 80a1b1e:	d003      	beq.n	80a1b28 <_ZN16Adafruit_SSD130621drawFastVLineInternalEssst+0xf4>
 80a1b20:	d305      	bcc.n	80a1b2e <_ZN16Adafruit_SSD130621drawFastVLineInternalEssst+0xfa>
 80a1b22:	2d02      	cmp	r5, #2
 80a1b24:	d114      	bne.n	80a1b50 <_ZN16Adafruit_SSD130621drawFastVLineInternalEssst+0x11c>
 80a1b26:	e00b      	b.n	80a1b40 <_ZN16Adafruit_SSD130621drawFastVLineInternalEssst+0x10c>
           case WHITE:   *pBuf |=  mask; break;
 80a1b28:	7822      	ldrb	r2, [r4, #0]
 80a1b2a:	4313      	orrs	r3, r2
 80a1b2c:	e00a      	b.n	80a1b44 <_ZN16Adafruit_SSD130621drawFastVLineInternalEssst+0x110>
           case BLACK:   *pBuf &= ~mask; break;
 80a1b2e:	7822      	ldrb	r2, [r4, #0]
 80a1b30:	ea22 0303 	bic.w	r3, r2, r3
 80a1b34:	e006      	b.n	80a1b44 <_ZN16Adafruit_SSD130621drawFastVLineInternalEssst+0x110>
              h    -= 8;      // Subtract 8 rows from height
            } while(h >= 8);
          }
        }

        if(h) { // Do the final partial byte, if necessary
 80a1b36:	f013 0307 	ands.w	r3, r3, #7
 80a1b3a:	d009      	beq.n	80a1b50 <_ZN16Adafruit_SSD130621drawFastVLineInternalEssst+0x11c>
          // uint8_t mask = (1 << mod) - 1;
          // note - lookup table results in a nearly 10% performance
          // improvement in fill* functions
          static const uint8_t PROGMEM postmask[8] =
            { 0x00, 0x01, 0x03, 0x07, 0x0F, 0x1F, 0x3F, 0x7F };
          uint8_t mask = pgm_read_byte(&postmask[mod]);
 80a1b3c:	4a06      	ldr	r2, [pc, #24]	; (80a1b58 <_ZN16Adafruit_SSD130621drawFastVLineInternalEssst+0x124>)
 80a1b3e:	5cd3      	ldrb	r3, [r2, r3]
          switch(color) {
           case WHITE:   *pBuf |=  mask; break;
           case BLACK:   *pBuf &= ~mask; break;
           case INVERSE: *pBuf ^=  mask; break;
 80a1b40:	7822      	ldrb	r2, [r4, #0]
 80a1b42:	4053      	eors	r3, r2
 80a1b44:	7023      	strb	r3, [r4, #0]
          }
        }
      }
    } // endif positive height
  } // endif x in bounds
}
 80a1b46:	bdf0      	pop	{r4, r5, r6, r7, pc}
          { 0x00, 0x80, 0xC0, 0xE0, 0xF0, 0xF8, 0xFC, 0xFE };
        uint8_t mask = pgm_read_byte(&premask[mod]);
        // adjust the mask if we're not going to reach the end of this byte
        if(h < mod) mask &= (0XFF >> (mod - h));

        switch(color) {
 80a1b48:	2d02      	cmp	r5, #2
 80a1b4a:	d0b9      	beq.n	80a1ac0 <_ZN16Adafruit_SSD130621drawFastVLineInternalEssst+0x8c>
         case WHITE:   *pBuf |=  mask; break;
         case BLACK:   *pBuf &= ~mask; break;
         case INVERSE: *pBuf ^=  mask; break;
        }
        pBuf += WIDTH;
 80a1b4c:	4474      	add	r4, lr
 80a1b4e:	e7c1      	b.n	80a1ad4 <_ZN16Adafruit_SSD130621drawFastVLineInternalEssst+0xa0>
 80a1b50:	bdf0      	pop	{r4, r5, r6, r7, pc}
 80a1b52:	bf00      	nop
 80a1b54:	080a5298 	.word	0x080a5298
 80a1b58:	080a5274 	.word	0x080a5274

080a1b5c <_ZN16Adafruit_SSD130613drawFastHLineEssst>:
    @note   Changes buffer contents only, no immediate effect on display.
            Follow up with a call to display(), or with other graphics
            commands as needed by one's own application.
*/
void Adafruit_SSD1306::drawFastHLine(
  int16_t x, int16_t y, int16_t w, uint16_t color) {
 80a1b5c:	b470      	push	{r4, r5, r6}
  boolean bSwap = false;
  switch(rotation) {
 80a1b5e:	7e84      	ldrb	r4, [r0, #26]
    @note   Changes buffer contents only, no immediate effect on display.
            Follow up with a call to display(), or with other graphics
            commands as needed by one's own application.
*/
void Adafruit_SSD1306::drawFastHLine(
  int16_t x, int16_t y, int16_t w, uint16_t color) {
 80a1b60:	f8bd 600c 	ldrh.w	r6, [sp, #12]
  boolean bSwap = false;
  switch(rotation) {
 80a1b64:	2c02      	cmp	r4, #2
 80a1b66:	d008      	beq.n	80a1b7a <_ZN16Adafruit_SSD130613drawFastHLineEssst+0x1e>
 80a1b68:	2c03      	cmp	r4, #3
 80a1b6a:	d00f      	beq.n	80a1b8c <_ZN16Adafruit_SSD130613drawFastHLineEssst+0x30>
 80a1b6c:	2c01      	cmp	r4, #1
 80a1b6e:	d118      	bne.n	80a1ba2 <_ZN16Adafruit_SSD130613drawFastHLineEssst+0x46>
   case 1:
    // 90 degree rotation, swap x & y for rotation, then invert x
    bSwap = true;
    ssd1306_swap(x, y);
    x = WIDTH - x - 1;
 80a1b70:	8905      	ldrh	r5, [r0, #8]
 80a1b72:	3d01      	subs	r5, #1
 80a1b74:	1aac      	subs	r4, r5, r2
 80a1b76:	b224      	sxth	r4, r4
    break;
 80a1b78:	e00d      	b.n	80a1b96 <_ZN16Adafruit_SSD130613drawFastHLineEssst+0x3a>
   case 2:
    // 180 degree rotation, invert x and y, then shift y around for height.
    x  = WIDTH  - x - 1;
    y  = HEIGHT - y - 1;
 80a1b7a:	8944      	ldrh	r4, [r0, #10]
 80a1b7c:	3c01      	subs	r4, #1
 80a1b7e:	1aa4      	subs	r4, r4, r2
 80a1b80:	b222      	sxth	r2, r4
    x -= (w-1);
 80a1b82:	8904      	ldrh	r4, [r0, #8]
 80a1b84:	1a61      	subs	r1, r4, r1
 80a1b86:	1ac9      	subs	r1, r1, r3
 80a1b88:	b209      	sxth	r1, r1
    break;
 80a1b8a:	e00a      	b.n	80a1ba2 <_ZN16Adafruit_SSD130613drawFastHLineEssst+0x46>
   case 3:
    // 270 degree rotation, swap x & y for rotation,
    // then invert y and adjust y for w (not to become h)
    bSwap = true;
    ssd1306_swap(x, y);
 80a1b8c:	4614      	mov	r4, r2
    y  = HEIGHT - y - 1;
    y -= (w-1);
 80a1b8e:	8942      	ldrh	r2, [r0, #10]
 80a1b90:	1ad2      	subs	r2, r2, r3
 80a1b92:	1a51      	subs	r1, r2, r1
 80a1b94:	b209      	sxth	r1, r1
    break;
  }

  if(bSwap) drawFastVLineInternal(x, y, w, color);
 80a1b96:	9603      	str	r6, [sp, #12]
 80a1b98:	460a      	mov	r2, r1
 80a1b9a:	4621      	mov	r1, r4
  else      drawFastHLineInternal(x, y, w, color);
}
 80a1b9c:	bc70      	pop	{r4, r5, r6}
    y  = HEIGHT - y - 1;
    y -= (w-1);
    break;
  }

  if(bSwap) drawFastVLineInternal(x, y, w, color);
 80a1b9e:	f7ff bf49 	b.w	80a1a34 <_ZN16Adafruit_SSD130621drawFastVLineInternalEssst>
  else      drawFastHLineInternal(x, y, w, color);
 80a1ba2:	9603      	str	r6, [sp, #12]
}
 80a1ba4:	bc70      	pop	{r4, r5, r6}
    y -= (w-1);
    break;
  }

  if(bSwap) drawFastVLineInternal(x, y, w, color);
  else      drawFastHLineInternal(x, y, w, color);
 80a1ba6:	f7ff bef9 	b.w	80a199c <_ZN16Adafruit_SSD130621drawFastHLineInternalEssst>

080a1baa <_ZN16Adafruit_SSD130613drawFastVLineEssst>:
    @note   Changes buffer contents only, no immediate effect on display.
            Follow up with a call to display(), or with other graphics
            commands as needed by one's own application.
*/
void Adafruit_SSD1306::drawFastVLine(
  int16_t x, int16_t y, int16_t h, uint16_t color) {
 80a1baa:	b430      	push	{r4, r5}
  boolean bSwap = false;
  switch(rotation) {
 80a1bac:	7e84      	ldrb	r4, [r0, #26]
    @note   Changes buffer contents only, no immediate effect on display.
            Follow up with a call to display(), or with other graphics
            commands as needed by one's own application.
*/
void Adafruit_SSD1306::drawFastVLine(
  int16_t x, int16_t y, int16_t h, uint16_t color) {
 80a1bae:	f8bd 5008 	ldrh.w	r5, [sp, #8]
  boolean bSwap = false;
  switch(rotation) {
 80a1bb2:	2c02      	cmp	r4, #2
 80a1bb4:	d008      	beq.n	80a1bc8 <_ZN16Adafruit_SSD130613drawFastVLineEssst+0x1e>
 80a1bb6:	2c03      	cmp	r4, #3
 80a1bb8:	d00f      	beq.n	80a1bda <_ZN16Adafruit_SSD130613drawFastVLineEssst+0x30>
 80a1bba:	2c01      	cmp	r4, #1
 80a1bbc:	d118      	bne.n	80a1bf0 <_ZN16Adafruit_SSD130613drawFastVLineEssst+0x46>
    // 90 degree rotation, swap x & y for rotation,
    // then invert x and adjust x for h (now to become w)
    bSwap = true;
    ssd1306_swap(x, y);
    x  = WIDTH - x - 1;
    x -= (h-1);
 80a1bbe:	8904      	ldrh	r4, [r0, #8]
 80a1bc0:	1ae4      	subs	r4, r4, r3
 80a1bc2:	1aa2      	subs	r2, r4, r2
 80a1bc4:	b214      	sxth	r4, r2
    break;
 80a1bc6:	e00d      	b.n	80a1be4 <_ZN16Adafruit_SSD130613drawFastVLineEssst+0x3a>
   case 2:
    // 180 degree rotation, invert x and y, then shift y around for height.
    x = WIDTH  - x - 1;
 80a1bc8:	8904      	ldrh	r4, [r0, #8]
 80a1bca:	3c01      	subs	r4, #1
 80a1bcc:	1a61      	subs	r1, r4, r1
    y = HEIGHT - y - 1;
    y -= (h-1);
 80a1bce:	8944      	ldrh	r4, [r0, #10]
    x  = WIDTH - x - 1;
    x -= (h-1);
    break;
   case 2:
    // 180 degree rotation, invert x and y, then shift y around for height.
    x = WIDTH  - x - 1;
 80a1bd0:	b209      	sxth	r1, r1
    y = HEIGHT - y - 1;
    y -= (h-1);
 80a1bd2:	1aa2      	subs	r2, r4, r2
 80a1bd4:	1ad2      	subs	r2, r2, r3
 80a1bd6:	b212      	sxth	r2, r2
    break;
 80a1bd8:	e00a      	b.n	80a1bf0 <_ZN16Adafruit_SSD130613drawFastVLineEssst+0x46>
   case 3:
    // 270 degree rotation, swap x & y for rotation, then invert y
    bSwap = true;
    ssd1306_swap(x, y);
 80a1bda:	4614      	mov	r4, r2
    y = HEIGHT - y - 1;
 80a1bdc:	8942      	ldrh	r2, [r0, #10]
 80a1bde:	3a01      	subs	r2, #1
 80a1be0:	1a51      	subs	r1, r2, r1
 80a1be2:	b209      	sxth	r1, r1
    break;
  }

  if(bSwap) drawFastHLineInternal(x, y, h, color);
 80a1be4:	9502      	str	r5, [sp, #8]
 80a1be6:	460a      	mov	r2, r1
 80a1be8:	4621      	mov	r1, r4
  else      drawFastVLineInternal(x, y, h, color);
}
 80a1bea:	bc30      	pop	{r4, r5}
    ssd1306_swap(x, y);
    y = HEIGHT - y - 1;
    break;
  }

  if(bSwap) drawFastHLineInternal(x, y, h, color);
 80a1bec:	f7ff bed6 	b.w	80a199c <_ZN16Adafruit_SSD130621drawFastHLineInternalEssst>
  else      drawFastVLineInternal(x, y, h, color);
 80a1bf0:	9502      	str	r5, [sp, #8]
}
 80a1bf2:	bc30      	pop	{r4, r5}
    y = HEIGHT - y - 1;
    break;
  }

  if(bSwap) drawFastHLineInternal(x, y, h, color);
  else      drawFastVLineInternal(x, y, h, color);
 80a1bf4:	f7ff bf1e 	b.w	80a1a34 <_ZN16Adafruit_SSD130621drawFastVLineInternalEssst>

080a1bf8 <_ZN16Adafruit_SSD13067displayEv>:
    @return None (void).
    @note   Drawing operations are not visible until this function is
            called. Call after each graphics command, or after a whole set
            of graphics commands, as best needed by one's own application.
*/
void Adafruit_SSD1306::display(void) {
 80a1bf8:	e92d 43f8 	stmdb	sp!, {r3, r4, r5, r6, r7, r8, r9, lr}
 80a1bfc:	4604      	mov	r4, r0
  TRANSACTION_START
 80a1bfe:	6a80      	ldr	r0, [r0, #40]	; 0x28
 80a1c00:	b118      	cbz	r0, 80a1c0a <_ZN16Adafruit_SSD13067displayEv+0x12>
 80a1c02:	6ca1      	ldr	r1, [r4, #72]	; 0x48
 80a1c04:	f001 fe20 	bl	80a3848 <_ZN7TwoWire8setSpeedEm>
 80a1c08:	e00b      	b.n	80a1c22 <_ZN16Adafruit_SSD13067displayEv+0x2a>
 80a1c0a:	6a60      	ldr	r0, [r4, #36]	; 0x24
 80a1c0c:	b118      	cbz	r0, 80a1c16 <_ZN16Adafruit_SSD13067displayEv+0x1e>
 80a1c0e:	f104 0138 	add.w	r1, r4, #56	; 0x38
 80a1c12:	f000 fdc7 	bl	80a27a4 <_ZN8SPIClass16beginTransactionERKN8particle13__SPISettingsE>
 80a1c16:	f994 0036 	ldrsb.w	r0, [r4, #54]	; 0x36
 80a1c1a:	2100      	movs	r1, #0
 80a1c1c:	b280      	uxth	r0, r0
 80a1c1e:	f001 ff22 	bl	80a3a66 <digitalWrite>
    SSD1306_PAGEADDR,
    0,                         // Page start address
    0xFF,                      // Page end (not really, but works here)
    SSD1306_COLUMNADDR,
    0 };                       // Column start address
  ssd1306_commandList(dlist1, sizeof(dlist1));
 80a1c22:	2205      	movs	r2, #5
 80a1c24:	493f      	ldr	r1, [pc, #252]	; (80a1d24 <_ZN16Adafruit_SSD13067displayEv+0x12c>)
 80a1c26:	4620      	mov	r0, r4
 80a1c28:	f7ff fd0b 	bl	80a1642 <_ZN16Adafruit_SSD130619ssd1306_commandListEPKhh>
  ssd1306_command1(WIDTH - 1); // Column end address
 80a1c2c:	7a21      	ldrb	r1, [r4, #8]
 80a1c2e:	4620      	mov	r0, r4
 80a1c30:	3901      	subs	r1, #1
 80a1c32:	b2c9      	uxtb	r1, r1
 80a1c34:	f7ff fc96 	bl	80a1564 <_ZN16Adafruit_SSD130616ssd1306_command1Eh>
  // a screen write and one immediately after should cover it.  But if
  // not, if this becomes a problem, yields() might be added in the
  // 32-byte transfer condition below.
  yield();
#endif
  uint16_t count = WIDTH * ((HEIGHT + 7) / 8);
 80a1c38:	f9b4 500a 	ldrsh.w	r5, [r4, #10]
 80a1c3c:	2308      	movs	r3, #8
 80a1c3e:	3507      	adds	r5, #7
 80a1c40:	fb95 f5f3 	sdiv	r5, r5, r3
 80a1c44:	8923      	ldrh	r3, [r4, #8]
  uint8_t *ptr   = buffer;
 80a1c46:	6ae6      	ldr	r6, [r4, #44]	; 0x2c
  // a screen write and one immediately after should cover it.  But if
  // not, if this becomes a problem, yields() might be added in the
  // 32-byte transfer condition below.
  yield();
#endif
  uint16_t count = WIDTH * ((HEIGHT + 7) / 8);
 80a1c48:	435d      	muls	r5, r3
  uint8_t *ptr   = buffer;
  if(wire) { // I2C
 80a1c4a:	6aa0      	ldr	r0, [r4, #40]	; 0x28
  // a screen write and one immediately after should cover it.  But if
  // not, if this becomes a problem, yields() might be added in the
  // 32-byte transfer condition below.
  yield();
#endif
  uint16_t count = WIDTH * ((HEIGHT + 7) / 8);
 80a1c4c:	b2ad      	uxth	r5, r5
 80a1c4e:	4435      	add	r5, r6
  uint8_t *ptr   = buffer;
  if(wire) { // I2C
 80a1c50:	b340      	cbz	r0, 80a1ca4 <_ZN16Adafruit_SSD13067displayEv+0xac>
    wire->beginTransmission(i2caddr);
 80a1c52:	f994 1030 	ldrsb.w	r1, [r4, #48]	; 0x30
 80a1c56:	f001 fe05 	bl	80a3864 <_ZN7TwoWire17beginTransmissionEi>
    WIRE_WRITE((uint8_t)0x40);
 80a1c5a:	6aa0      	ldr	r0, [r4, #40]	; 0x28
 80a1c5c:	2140      	movs	r1, #64	; 0x40
 80a1c5e:	6803      	ldr	r3, [r0, #0]
    uint8_t bytesOut = 1;
 80a1c60:	2701      	movs	r7, #1
#endif
  uint16_t count = WIDTH * ((HEIGHT + 7) / 8);
  uint8_t *ptr   = buffer;
  if(wire) { // I2C
    wire->beginTransmission(i2caddr);
    WIRE_WRITE((uint8_t)0x40);
 80a1c62:	689b      	ldr	r3, [r3, #8]
 80a1c64:	4798      	blx	r3
    uint8_t bytesOut = 1;
    while(count--) {
 80a1c66:	42ae      	cmp	r6, r5
 80a1c68:	d018      	beq.n	80a1c9c <_ZN16Adafruit_SSD13067displayEv+0xa4>
      if(bytesOut >= WIRE_MAX) {
 80a1c6a:	2f1f      	cmp	r7, #31
 80a1c6c:	d90d      	bls.n	80a1c8a <_ZN16Adafruit_SSD13067displayEv+0x92>
        wire->endTransmission();
 80a1c6e:	6aa0      	ldr	r0, [r4, #40]	; 0x28
 80a1c70:	f001 fdff 	bl	80a3872 <_ZN7TwoWire15endTransmissionEv>
        wire->beginTransmission(i2caddr);
 80a1c74:	f994 1030 	ldrsb.w	r1, [r4, #48]	; 0x30
 80a1c78:	6aa0      	ldr	r0, [r4, #40]	; 0x28
 80a1c7a:	f001 fdf3 	bl	80a3864 <_ZN7TwoWire17beginTransmissionEi>
        WIRE_WRITE((uint8_t)0x40);
 80a1c7e:	6aa0      	ldr	r0, [r4, #40]	; 0x28
 80a1c80:	2140      	movs	r1, #64	; 0x40
 80a1c82:	6803      	ldr	r3, [r0, #0]
        bytesOut = 1;
 80a1c84:	2701      	movs	r7, #1
    uint8_t bytesOut = 1;
    while(count--) {
      if(bytesOut >= WIRE_MAX) {
        wire->endTransmission();
        wire->beginTransmission(i2caddr);
        WIRE_WRITE((uint8_t)0x40);
 80a1c86:	689b      	ldr	r3, [r3, #8]
 80a1c88:	4798      	blx	r3
        bytesOut = 1;
      }
      WIRE_WRITE(*ptr++);
 80a1c8a:	6aa0      	ldr	r0, [r4, #40]	; 0x28
 80a1c8c:	f816 1b01 	ldrb.w	r1, [r6], #1
 80a1c90:	6803      	ldr	r3, [r0, #0]
      bytesOut++;
 80a1c92:	3701      	adds	r7, #1
        wire->endTransmission();
        wire->beginTransmission(i2caddr);
        WIRE_WRITE((uint8_t)0x40);
        bytesOut = 1;
      }
      WIRE_WRITE(*ptr++);
 80a1c94:	689b      	ldr	r3, [r3, #8]
 80a1c96:	4798      	blx	r3
      bytesOut++;
 80a1c98:	b2ff      	uxtb	r7, r7
  uint8_t *ptr   = buffer;
  if(wire) { // I2C
    wire->beginTransmission(i2caddr);
    WIRE_WRITE((uint8_t)0x40);
    uint8_t bytesOut = 1;
    while(count--) {
 80a1c9a:	e7e4      	b.n	80a1c66 <_ZN16Adafruit_SSD13067displayEv+0x6e>
        bytesOut = 1;
      }
      WIRE_WRITE(*ptr++);
      bytesOut++;
    }
    wire->endTransmission();
 80a1c9c:	6aa0      	ldr	r0, [r4, #40]	; 0x28
 80a1c9e:	f001 fde8 	bl	80a3872 <_ZN7TwoWire15endTransmissionEv>
 80a1ca2:	e02a      	b.n	80a1cfa <_ZN16Adafruit_SSD13067displayEv+0x102>
  } else { // SPI
    SSD1306_MODE_DATA
 80a1ca4:	f994 0035 	ldrsb.w	r0, [r4, #53]	; 0x35
 80a1ca8:	2101      	movs	r1, #1
 80a1caa:	b280      	uxth	r0, r0
 80a1cac:	f001 fedb 	bl	80a3a66 <digitalWrite>
    while(count--) SPIwrite(*ptr++);
 80a1cb0:	42ae      	cmp	r6, r5
 80a1cb2:	d022      	beq.n	80a1cfa <_ZN16Adafruit_SSD13067displayEv+0x102>
// LOW-LEVEL UTILS ---------------------------------------------------------

// Issue single byte out SPI, either soft or hardware as appropriate.
// SPI transaction/selection must be performed in calling function.
inline void Adafruit_SSD1306::SPIwrite(uint8_t d) {
  if(spi) {
 80a1cb4:	6a60      	ldr	r0, [r4, #36]	; 0x24
      bytesOut++;
    }
    wire->endTransmission();
  } else { // SPI
    SSD1306_MODE_DATA
    while(count--) SPIwrite(*ptr++);
 80a1cb6:	f816 9b01 	ldrb.w	r9, [r6], #1
// LOW-LEVEL UTILS ---------------------------------------------------------

// Issue single byte out SPI, either soft or hardware as appropriate.
// SPI transaction/selection must be performed in calling function.
inline void Adafruit_SSD1306::SPIwrite(uint8_t d) {
  if(spi) {
 80a1cba:	b118      	cbz	r0, 80a1cc4 <_ZN16Adafruit_SSD13067displayEv+0xcc>
    (void)spi->transfer(d);
 80a1cbc:	4649      	mov	r1, r9
 80a1cbe:	f000 fde0 	bl	80a2882 <_ZN8SPIClass8transferEh>
 80a1cc2:	e7f5      	b.n	80a1cb0 <_ZN16Adafruit_SSD13067displayEv+0xb8>
// LOW-LEVEL UTILS ---------------------------------------------------------

// Issue single byte out SPI, either soft or hardware as appropriate.
// SPI transaction/selection must be performed in calling function.
inline void Adafruit_SSD1306::SPIwrite(uint8_t d) {
  if(spi) {
 80a1cc4:	2708      	movs	r7, #8
 80a1cc6:	f04f 0880 	mov.w	r8, #128	; 0x80
      if(d & bit) *mosiPort |=  mosiPinMask;
      else        *mosiPort &= ~mosiPinMask;
      *clkPort |=  clkPinMask; // Clock high
      *clkPort &= ~clkPinMask; // Clock low
#else
      digitalWrite(mosiPin, d & bit);
 80a1cca:	f994 0033 	ldrsb.w	r0, [r4, #51]	; 0x33
 80a1cce:	ea09 0108 	and.w	r1, r9, r8
 80a1cd2:	b280      	uxth	r0, r0
 80a1cd4:	f001 fec7 	bl	80a3a66 <digitalWrite>
      digitalWrite(clkPin , HIGH);
 80a1cd8:	f994 0034 	ldrsb.w	r0, [r4, #52]	; 0x34
 80a1cdc:	2101      	movs	r1, #1
 80a1cde:	b280      	uxth	r0, r0
 80a1ce0:	f001 fec1 	bl	80a3a66 <digitalWrite>
      digitalWrite(clkPin , LOW);
 80a1ce4:	f994 0034 	ldrsb.w	r0, [r4, #52]	; 0x34
 80a1ce8:	2100      	movs	r1, #0
 80a1cea:	b280      	uxth	r0, r0
 80a1cec:	f001 febb 	bl	80a3a66 <digitalWrite>
// SPI transaction/selection must be performed in calling function.
inline void Adafruit_SSD1306::SPIwrite(uint8_t d) {
  if(spi) {
    (void)spi->transfer(d);
  } else {
    for(uint8_t bit = 0x80; bit; bit >>= 1) {
 80a1cf0:	3f01      	subs	r7, #1
 80a1cf2:	ea4f 0858 	mov.w	r8, r8, lsr #1
 80a1cf6:	d1e8      	bne.n	80a1cca <_ZN16Adafruit_SSD13067displayEv+0xd2>
 80a1cf8:	e7da      	b.n	80a1cb0 <_ZN16Adafruit_SSD13067displayEv+0xb8>
    wire->endTransmission();
  } else { // SPI
    SSD1306_MODE_DATA
    while(count--) SPIwrite(*ptr++);
  }
  TRANSACTION_END
 80a1cfa:	6aa0      	ldr	r0, [r4, #40]	; 0x28
 80a1cfc:	b120      	cbz	r0, 80a1d08 <_ZN16Adafruit_SSD13067displayEv+0x110>
 80a1cfe:	6ce1      	ldr	r1, [r4, #76]	; 0x4c
#if defined(ESP8266)
  yield();
#endif
}
 80a1d00:	e8bd 43f8 	ldmia.w	sp!, {r3, r4, r5, r6, r7, r8, r9, lr}
 80a1d04:	f001 bda0 	b.w	80a3848 <_ZN7TwoWire8setSpeedEm>
    wire->endTransmission();
  } else { // SPI
    SSD1306_MODE_DATA
    while(count--) SPIwrite(*ptr++);
  }
  TRANSACTION_END
 80a1d08:	f994 0036 	ldrsb.w	r0, [r4, #54]	; 0x36
 80a1d0c:	2101      	movs	r1, #1
 80a1d0e:	b280      	uxth	r0, r0
 80a1d10:	f001 fea9 	bl	80a3a66 <digitalWrite>
 80a1d14:	6a60      	ldr	r0, [r4, #36]	; 0x24
 80a1d16:	b118      	cbz	r0, 80a1d20 <_ZN16Adafruit_SSD13067displayEv+0x128>
#if defined(ESP8266)
  yield();
#endif
}
 80a1d18:	e8bd 43f8 	ldmia.w	sp!, {r3, r4, r5, r6, r7, r8, r9, lr}
    wire->endTransmission();
  } else { // SPI
    SSD1306_MODE_DATA
    while(count--) SPIwrite(*ptr++);
  }
  TRANSACTION_END
 80a1d1c:	f000 bd26 	b.w	80a276c <_ZN8SPIClass14endTransactionEv>
 80a1d20:	e8bd 83f8 	ldmia.w	sp!, {r3, r4, r5, r6, r7, r8, r9, pc}
 80a1d24:	080a52a0 	.word	0x080a52a0

080a1d28 <_GLOBAL__sub_I__ZN16Adafruit_SSD1306C2EhhP7TwoWireamm>:
 80a1d28:	f000 ba4a 	b.w	80a21c0 <HAL_Pin_Map>

080a1d2c <_ZNSt17_Function_handlerIFvvESt5_BindIFSt7_Mem_fnIM14PietteTech_DHTFvvEEPS3_EEE9_M_invokeERKSt9_Any_data>:
	static _Functor*
	_M_get_pointer(const _Any_data& __source)
	{
	  const _Functor* __ptr =
	    __stored_locally? std::__addressof(__source._M_access<_Functor>())
	    /* have stored a pointer */ : __source._M_access<_Functor*>();
 80a1d2c:	6803      	ldr	r3, [r0, #0]
      template<typename... _Args, typename _Req
               = _Require<typename _Traits::__lvalue,
                          _CheckArgs<_Pack<_Args...>>>>
	result_type
	operator()(_Class* __object, _Args&&... __args) const
	{ return (__object->*_M_pmf)(std::forward<_Args>(__args)...); }
 80a1d2e:	685a      	ldr	r2, [r3, #4]
      template<typename _Result, typename... _Args, std::size_t... _Indexes>
	_Result
	__call(tuple<_Args...>&& __args, _Index_tuple<_Indexes...>)
	{
	  return _M_f(_Mu<_Bound_args>()
		      (std::get<_Indexes>(_M_bound_args), __args)...);
 80a1d30:	6898      	ldr	r0, [r3, #8]
      template<typename... _Args, typename _Req
               = _Require<typename _Traits::__lvalue,
                          _CheckArgs<_Pack<_Args...>>>>
	result_type
	operator()(_Class* __object, _Args&&... __args) const
	{ return (__object->*_M_pmf)(std::forward<_Args>(__args)...); }
 80a1d32:	f012 0f01 	tst.w	r2, #1
 80a1d36:	ea4f 0262 	mov.w	r2, r2, asr #1
 80a1d3a:	bf18      	it	ne
 80a1d3c:	5881      	ldrne	r1, [r0, r2]
 80a1d3e:	681b      	ldr	r3, [r3, #0]
 80a1d40:	4410      	add	r0, r2
 80a1d42:	bf18      	it	ne
 80a1d44:	58cb      	ldrne	r3, [r1, r3]
 80a1d46:	4718      	bx	r3

080a1d48 <_ZN14PietteTech_DHT12_isrCallbackEv>:
// NOTE:  isrCallback is only here for backwards compatibility with v0.3 and earlier
//        it is no longer used or needed
// 
void PietteTech_DHT::isrCallback() { }

void PietteTech_DHT::_isrCallback() {
 80a1d48:	b5f8      	push	{r3, r4, r5, r6, r7, lr}
  // so we'll set _detachISR inside the ISR when we're done
  // and count on code on the main thread to detach it via detachISRIfRequested().
  // Getting another interrupt after we've already requested a detach is benign
  // so we'll just ignore this interrupt and return.

  if (_detachISR) return;
 80a1d4a:	f890 3029 	ldrb.w	r3, [r0, #41]	; 0x29
// NOTE:  isrCallback is only here for backwards compatibility with v0.3 and earlier
//        it is no longer used or needed
// 
void PietteTech_DHT::isrCallback() { }

void PietteTech_DHT::_isrCallback() {
 80a1d4e:	4604      	mov	r4, r0
  // so we'll set _detachISR inside the ISR when we're done
  // and count on code on the main thread to detach it via detachISRIfRequested().
  // Getting another interrupt after we've already requested a detach is benign
  // so we'll just ignore this interrupt and return.

  if (_detachISR) return;
 80a1d50:	2b00      	cmp	r3, #0
 80a1d52:	f040 8099 	bne.w	80a1e88 <_ZN14PietteTech_DHT12_isrCallbackEv+0x140>
inline unsigned long micros(void) { return HAL_Timer_Get_Micro_Seconds(); }
 80a1d56:	f000 fac3 	bl	80a22e0 <HAL_Timer_Get_Micro_Seconds>

  unsigned long newUs = micros();
  unsigned long delta = (newUs - _us);
  _us = newUs;

  if (delta > 6000) {
 80a1d5a:	f241 7270 	movw	r2, #6000	; 0x1770

  if (_detachISR) return;
#endif

  unsigned long newUs = micros();
  unsigned long delta = (newUs - _us);
 80a1d5e:	6ba3      	ldr	r3, [r4, #56]	; 0x38
  _us = newUs;
 80a1d60:	63a0      	str	r0, [r4, #56]	; 0x38

  if (_detachISR) return;
#endif

  unsigned long newUs = micros();
  unsigned long delta = (newUs - _us);
 80a1d62:	1ac3      	subs	r3, r0, r3
  _us = newUs;

  if (delta > 6000) {
 80a1d64:	4293      	cmp	r3, r2
 80a1d66:	d909      	bls.n	80a1d7c <_ZN14PietteTech_DHT12_isrCallbackEv+0x34>
    _status = DHTLIB_ERROR_ISR_TIMEOUT;
 80a1d68:	f06f 0301 	mvn.w	r3, #1
 80a1d6c:	62e3      	str	r3, [r4, #44]	; 0x2c
    _state = STOPPED;
 80a1d6e:	2303      	movs	r3, #3
 80a1d70:	f884 302a 	strb.w	r3, [r4, #42]	; 0x2a
#if (SYSTEM_VERSION < SYSTEM_VERSION_v121RC3)
    detachInterrupt(_sigPin);
#else
    _detachISR = true;
 80a1d74:	2301      	movs	r3, #1
 80a1d76:	f884 3029 	strb.w	r3, [r4, #41]	; 0x29
 80a1d7a:	bdf8      	pop	{r3, r4, r5, r6, r7, pc}
#endif
    return;
  }
  switch (_state) {
 80a1d7c:	f894 102a 	ldrb.w	r1, [r4, #42]	; 0x2a
 80a1d80:	f001 02ff 	and.w	r2, r1, #255	; 0xff
 80a1d84:	b111      	cbz	r1, 80a1d8c <_ZN14PietteTech_DHT12_isrCallbackEv+0x44>
 80a1d86:	2a01      	cmp	r2, #1
 80a1d88:	d01e      	beq.n	80a1dc8 <_ZN14PietteTech_DHT12_isrCallbackEv+0x80>
 80a1d8a:	bdf8      	pop	{r3, r4, r5, r6, r7, pc}
  case RESPONSE:            // Spec: 80us LOW followed by 80us HIGH
    if (delta < 65) {       // Spec: 20-200us to first falling edge of response
 80a1d8c:	2b40      	cmp	r3, #64	; 0x40
 80a1d8e:	d803      	bhi.n	80a1d98 <_ZN14PietteTech_DHT12_isrCallbackEv+0x50>
      _us -= delta;
 80a1d90:	6ba2      	ldr	r2, [r4, #56]	; 0x38
 80a1d92:	1ad3      	subs	r3, r2, r3
 80a1d94:	63a3      	str	r3, [r4, #56]	; 0x38
 80a1d96:	bdf8      	pop	{r3, r4, r5, r6, r7, pc}
      break; //do nothing, it started the response signal
      
// --------------- issue: https://github.com/particle-iot/device-os/issues/1654 -----------------
//    } if (125 < delta && delta < 200) { // originally 
    } if (125 < delta && delta < 220) {   // account for timing offset with Particle Mesh devices
 80a1d98:	f1a3 027e 	sub.w	r2, r3, #126	; 0x7e
 80a1d9c:	2a5d      	cmp	r2, #93	; 0x5d
 80a1d9e:	b2db      	uxtb	r3, r3
 80a1da0:	6c22      	ldr	r2, [r4, #64]	; 0x40
 80a1da2:	d804      	bhi.n	80a1dae <_ZN14PietteTech_DHT12_isrCallbackEv+0x66>
// ----------------------------------------------------------------------------------------------

#if defined(DHT_DEBUG_TIMING)
      *_e++ = delta;  // record the edge -> edge time
 80a1da4:	1c51      	adds	r1, r2, #1
 80a1da6:	6421      	str	r1, [r4, #64]	; 0x40
 80a1da8:	7013      	strb	r3, [r2, #0]
#endif
      _state = DATA;
 80a1daa:	2301      	movs	r3, #1
 80a1dac:	e06a      	b.n	80a1e84 <_ZN14PietteTech_DHT12_isrCallbackEv+0x13c>
    }
    else {
#if (SYSTEM_VERSION < SYSTEM_VERSION_v121RC3)
      detachInterrupt(_sigPin);
#else
      _detachISR = true;
 80a1dae:	2101      	movs	r1, #1
 80a1db0:	f884 1029 	strb.w	r1, [r4, #41]	; 0x29
#endif
      _status = DHTLIB_ERROR_RESPONSE_TIMEOUT;
 80a1db4:	f06f 0102 	mvn.w	r1, #2
 80a1db8:	62e1      	str	r1, [r4, #44]	; 0x2c
      _state = STOPPED;
 80a1dba:	2103      	movs	r1, #3
 80a1dbc:	f884 102a 	strb.w	r1, [r4, #42]	; 0x2a
#if defined(DHT_DEBUG_TIMING)
      *_e++ = delta;  // record the edge -> edge time
 80a1dc0:	1c51      	adds	r1, r2, #1
 80a1dc2:	6421      	str	r1, [r4, #64]	; 0x40
 80a1dc4:	7013      	strb	r3, [r2, #0]
 80a1dc6:	bdf8      	pop	{r3, r4, r5, r6, r7, pc}
#endif
    }
    break;
  case DATA:          // Spec: 50us low followed by high of 26-28us = 0, 70us = 1
    if (60 < delta && delta < 155) { //valid in timing
 80a1dc8:	f1a3 013d 	sub.w	r1, r3, #61	; 0x3d
 80a1dcc:	295d      	cmp	r1, #93	; 0x5d
 80a1dce:	d84f      	bhi.n	80a1e70 <_ZN14PietteTech_DHT12_isrCallbackEv+0x128>
      _bits[_idx] <<= 1; // shift the data
 80a1dd0:	f894 1036 	ldrb.w	r1, [r4, #54]	; 0x36
      if (delta > 110) //is a one
 80a1dd4:	2b6e      	cmp	r3, #110	; 0x6e
#endif
    }
    break;
  case DATA:          // Spec: 50us low followed by high of 26-28us = 0, 70us = 1
    if (60 < delta && delta < 155) { //valid in timing
      _bits[_idx] <<= 1; // shift the data
 80a1dd6:	4421      	add	r1, r4
 80a1dd8:	f891 2030 	ldrb.w	r2, [r1, #48]	; 0x30
 80a1ddc:	ea4f 0242 	mov.w	r2, r2, lsl #1
 80a1de0:	b2d2      	uxtb	r2, r2
 80a1de2:	f881 2030 	strb.w	r2, [r1, #48]	; 0x30
      if (delta > 110) //is a one
 80a1de6:	d908      	bls.n	80a1dfa <_ZN14PietteTech_DHT12_isrCallbackEv+0xb2>
        _bits[_idx] |= 1;
 80a1de8:	f894 2036 	ldrb.w	r2, [r4, #54]	; 0x36
 80a1dec:	4422      	add	r2, r4
 80a1dee:	f892 1030 	ldrb.w	r1, [r2, #48]	; 0x30
 80a1df2:	f041 0101 	orr.w	r1, r1, #1
 80a1df6:	f882 1030 	strb.w	r1, [r2, #48]	; 0x30
#if defined(DHT_DEBUG_TIMING)
      *_e++ = delta;  // record the edge -> edge time
 80a1dfa:	6c22      	ldr	r2, [r4, #64]	; 0x40
 80a1dfc:	b2db      	uxtb	r3, r3
 80a1dfe:	1c51      	adds	r1, r2, #1
 80a1e00:	6421      	str	r1, [r4, #64]	; 0x40
 80a1e02:	7013      	strb	r3, [r2, #0]
#endif
      if (_cnt == 0) { // we have completed the byte, go to next
 80a1e04:	f894 3035 	ldrb.w	r3, [r4, #53]	; 0x35
 80a1e08:	f003 00ff 	and.w	r0, r3, #255	; 0xff
 80a1e0c:	bb4b      	cbnz	r3, 80a1e62 <_ZN14PietteTech_DHT12_isrCallbackEv+0x11a>
        _cnt = 7; // restart at MSB
 80a1e0e:	2307      	movs	r3, #7
 80a1e10:	f884 3035 	strb.w	r3, [r4, #53]	; 0x35
        if (++_idx == 5) { // go to next byte, if we have got 5 bytes stop.
 80a1e14:	f894 3036 	ldrb.w	r3, [r4, #54]	; 0x36
 80a1e18:	3301      	adds	r3, #1
 80a1e1a:	b2db      	uxtb	r3, r3
 80a1e1c:	2b05      	cmp	r3, #5
 80a1e1e:	f884 3036 	strb.w	r3, [r4, #54]	; 0x36
 80a1e22:	d131      	bne.n	80a1e88 <_ZN14PietteTech_DHT12_isrCallbackEv+0x140>
#if (SYSTEM_VERSION < SYSTEM_VERSION_v121RC3)
          detachInterrupt(_sigPin);
#else
          _detachISR = true;
 80a1e24:	2101      	movs	r1, #1
 80a1e26:	f884 1029 	strb.w	r1, [r4, #41]	; 0x29
#endif
          // Verify checksum
          uint8_t sum = _bits[0] + _bits[1] + _bits[2] + _bits[3];
 80a1e2a:	f894 7030 	ldrb.w	r7, [r4, #48]	; 0x30
 80a1e2e:	f894 2031 	ldrb.w	r2, [r4, #49]	; 0x31
 80a1e32:	f894 3032 	ldrb.w	r3, [r4, #50]	; 0x32
          if (_bits[4] != sum) {
 80a1e36:	443a      	add	r2, r7
          detachInterrupt(_sigPin);
#else
          _detachISR = true;
#endif
          // Verify checksum
          uint8_t sum = _bits[0] + _bits[1] + _bits[2] + _bits[3];
 80a1e38:	f894 6033 	ldrb.w	r6, [r4, #51]	; 0x33
          if (_bits[4] != sum) {
 80a1e3c:	4413      	add	r3, r2
 80a1e3e:	f894 5034 	ldrb.w	r5, [r4, #52]	; 0x34
 80a1e42:	4433      	add	r3, r6
 80a1e44:	b2db      	uxtb	r3, r3
 80a1e46:	42ab      	cmp	r3, r5
 80a1e48:	d004      	beq.n	80a1e54 <_ZN14PietteTech_DHT12_isrCallbackEv+0x10c>
            _status = DHTLIB_ERROR_CHECKSUM;
 80a1e4a:	f04f 33ff 	mov.w	r3, #4294967295
 80a1e4e:	62e3      	str	r3, [r4, #44]	; 0x2c
            _state = STOPPED;
 80a1e50:	2303      	movs	r3, #3
 80a1e52:	e017      	b.n	80a1e84 <_ZN14PietteTech_DHT12_isrCallbackEv+0x13c>
          }
          else {
            _status = DHTLIB_OK;
            _state = ACQUIRED;
 80a1e54:	2302      	movs	r3, #2
          if (_bits[4] != sum) {
            _status = DHTLIB_ERROR_CHECKSUM;
            _state = STOPPED;
          }
          else {
            _status = DHTLIB_OK;
 80a1e56:	62e0      	str	r0, [r4, #44]	; 0x2c
            _state = ACQUIRED;
 80a1e58:	f884 302a 	strb.w	r3, [r4, #42]	; 0x2a
            _convert = true;
 80a1e5c:	f884 103c 	strb.w	r1, [r4, #60]	; 0x3c
 80a1e60:	bdf8      	pop	{r3, r4, r5, r6, r7, pc}
          }
          break;
        }
      }
      else _cnt--;
 80a1e62:	f894 3035 	ldrb.w	r3, [r4, #53]	; 0x35
 80a1e66:	3b01      	subs	r3, #1
 80a1e68:	b2db      	uxtb	r3, r3
 80a1e6a:	f884 3035 	strb.w	r3, [r4, #53]	; 0x35
 80a1e6e:	bdf8      	pop	{r3, r4, r5, r6, r7, pc}
    }
    else if (delta < 10) {
 80a1e70:	2b09      	cmp	r3, #9
#if (SYSTEM_VERSION < SYSTEM_VERSION_v121RC3)
      detachInterrupt(_sigPin);
#else
      _detachISR = true;
 80a1e72:	f884 2029 	strb.w	r2, [r4, #41]	; 0x29
#endif
      _status = DHTLIB_ERROR_DELTA;
 80a1e76:	bf94      	ite	ls
 80a1e78:	f06f 0205 	mvnls.w	r2, #5
#if (SYSTEM_VERSION < SYSTEM_VERSION_v121RC3)
      detachInterrupt(_sigPin);
#else
      _detachISR = true;
#endif
      _status = DHTLIB_ERROR_DATA_TIMEOUT;
 80a1e7c:	f06f 0203 	mvnhi.w	r2, #3
 80a1e80:	2303      	movs	r3, #3
 80a1e82:	62e2      	str	r2, [r4, #44]	; 0x2c
      _state = STOPPED;
 80a1e84:	f884 302a 	strb.w	r3, [r4, #42]	; 0x2a
 80a1e88:	bdf8      	pop	{r3, r4, r5, r6, r7, pc}

080a1e8a <_ZNSt14_Function_base13_Base_managerISt5_BindIFSt7_Mem_fnIM14PietteTech_DHTFvvEEPS3_EEE10_M_managerERSt9_Any_dataRKSB_St18_Manager_operation>:
      public:
	static bool
	_M_manager(_Any_data& __dest, const _Any_data& __source,
		   _Manager_operation __op)
	{
	  switch (__op)
 80a1e8a:	2a02      	cmp	r2, #2
	  delete __victim._M_access<_Functor*>();
	}

      public:
	static bool
	_M_manager(_Any_data& __dest, const _Any_data& __source,
 80a1e8c:	b538      	push	{r3, r4, r5, lr}
 80a1e8e:	4604      	mov	r4, r0
		   _Manager_operation __op)
	{
	  switch (__op)
 80a1e90:	d005      	beq.n	80a1e9e <_ZNSt14_Function_base13_Base_managerISt5_BindIFSt7_Mem_fnIM14PietteTech_DHTFvvEEPS3_EEE10_M_managerERSt9_Any_dataRKSB_St18_Manager_operation+0x14>
 80a1e92:	2a03      	cmp	r2, #3
 80a1e94:	d00f      	beq.n	80a1eb6 <_ZNSt14_Function_base13_Base_managerISt5_BindIFSt7_Mem_fnIM14PietteTech_DHTFvvEEPS3_EEE10_M_managerERSt9_Any_dataRKSB_St18_Manager_operation+0x2c>
 80a1e96:	2a01      	cmp	r2, #1
 80a1e98:	d111      	bne.n	80a1ebe <_ZNSt14_Function_base13_Base_managerISt5_BindIFSt7_Mem_fnIM14PietteTech_DHTFvvEEPS3_EEE10_M_managerERSt9_Any_dataRKSB_St18_Manager_operation+0x34>
	static _Functor*
	_M_get_pointer(const _Any_data& __source)
	{
	  const _Functor* __ptr =
	    __stored_locally? std::__addressof(__source._M_access<_Functor>())
	    /* have stored a pointer */ : __source._M_access<_Functor*>();
 80a1e9a:	680b      	ldr	r3, [r1, #0]
 80a1e9c:	e009      	b.n	80a1eb2 <_ZNSt14_Function_base13_Base_managerISt5_BindIFSt7_Mem_fnIM14PietteTech_DHTFvvEEPS3_EEE10_M_managerERSt9_Any_dataRKSB_St18_Manager_operation+0x28>
	// Clone a function object that is not location-invariant or
	// that cannot fit into an _Any_data structure.
	static void
	_M_clone(_Any_data& __dest, const _Any_data& __source, false_type)
	{
	  __dest._M_access<_Functor*>() =
 80a1e9e:	200c      	movs	r0, #12
 80a1ea0:	680d      	ldr	r5, [r1, #0]
 80a1ea2:	f7fe f8fc 	bl	80a009e <_Znwj>
 80a1ea6:	4603      	mov	r3, r0
 80a1ea8:	b118      	cbz	r0, 80a1eb2 <_ZNSt14_Function_base13_Base_managerISt5_BindIFSt7_Mem_fnIM14PietteTech_DHTFvvEEPS3_EEE10_M_managerERSt9_Any_dataRKSB_St18_Manager_operation+0x28>
 80a1eaa:	e895 0007 	ldmia.w	r5, {r0, r1, r2}
 80a1eae:	e883 0007 	stmia.w	r3, {r0, r1, r2}
 80a1eb2:	6023      	str	r3, [r4, #0]
 80a1eb4:	e003      	b.n	80a1ebe <_ZNSt14_Function_base13_Base_managerISt5_BindIFSt7_Mem_fnIM14PietteTech_DHTFvvEEPS3_EEE10_M_managerERSt9_Any_dataRKSB_St18_Manager_operation+0x34>

	// Destroying an object located on the heap.
	static void
	_M_destroy(_Any_data& __victim, false_type)
	{
	  delete __victim._M_access<_Functor*>();
 80a1eb6:	210c      	movs	r1, #12
 80a1eb8:	6800      	ldr	r0, [r0, #0]
 80a1eba:	f001 fead 	bl	80a3c18 <_ZdlPvj>
	    case __destroy_functor:
	      _M_destroy(__dest, _Local_storage());
	      break;
	    }
	  return false;
	}
 80a1ebe:	2000      	movs	r0, #0
 80a1ec0:	bd38      	pop	{r3, r4, r5, pc}

080a1ec2 <_ZN14PietteTech_DHTC1EhhPFvvE>:
// 
PietteTech_DHT::PietteTech_DHT() {
}

PietteTech_DHT::PietteTech_DHT(uint8_t sigPin, uint8_t dht_type, void(*callback_wrapper)()) {
  _sigPin = sigPin;
 80a1ec2:	6441      	str	r1, [r0, #68]	; 0x44
  _type = dht_type;
 80a1ec4:	6482      	str	r2, [r0, #72]	; 0x48
}
 80a1ec6:	4770      	bx	lr

080a1ec8 <_ZN14PietteTech_DHT5beginEv>:

// 
// NOTE:  callback_wrapper is only here for backwards compatibility with v0.3 and earlier
//        it is no longer used or needed
// 
void PietteTech_DHT::begin() {
 80a1ec8:	b538      	push	{r3, r4, r5, lr}
 80a1eca:	4604      	mov	r4, r0
  _firstreading = true;
  _lastreadtime = 0;
  _state = STOPPED;
 80a1ecc:	2203      	movs	r2, #3
// NOTE:  callback_wrapper is only here for backwards compatibility with v0.3 and earlier
//        it is no longer used or needed
// 
void PietteTech_DHT::begin() {
  _firstreading = true;
  _lastreadtime = 0;
 80a1ece:	2300      	movs	r3, #0
  _state = STOPPED;
 80a1ed0:	f880 202a 	strb.w	r2, [r0, #42]	; 0x2a
// 
// NOTE:  callback_wrapper is only here for backwards compatibility with v0.3 and earlier
//        it is no longer used or needed
// 
void PietteTech_DHT::begin() {
  _firstreading = true;
 80a1ed4:	2501      	movs	r5, #1
  _lastreadtime = 0;
  _state = STOPPED;
  _status = DHTLIB_ERROR_NOTSTARTED;
 80a1ed6:	f06f 0206 	mvn.w	r2, #6
// NOTE:  callback_wrapper is only here for backwards compatibility with v0.3 and earlier
//        it is no longer used or needed
// 
void PietteTech_DHT::begin() {
  _firstreading = true;
  _lastreadtime = 0;
 80a1eda:	64c3      	str	r3, [r0, #76]	; 0x4c
  _state = STOPPED;
  _status = DHTLIB_ERROR_NOTSTARTED;
 80a1edc:	62c2      	str	r2, [r0, #44]	; 0x2c
// 
// NOTE:  callback_wrapper is only here for backwards compatibility with v0.3 and earlier
//        it is no longer used or needed
// 
void PietteTech_DHT::begin() {
  _firstreading = true;
 80a1ede:	f880 5050 	strb.w	r5, [r0, #80]	; 0x50
  _state = STOPPED;
  _status = DHTLIB_ERROR_NOTSTARTED;
#if (SYSTEM_VERSION < SYSTEM_VERSION_v121RC3)
  // no extra steps required
#else
  _detachISR = false;
 80a1ee2:	f880 3029 	strb.w	r3, [r0, #41]	; 0x29
#endif

  pinMode(_sigPin, OUTPUT);
 80a1ee6:	4629      	mov	r1, r5
 80a1ee8:	f8b0 0044 	ldrh.w	r0, [r0, #68]	; 0x44
 80a1eec:	f001 fdaa 	bl	80a3a44 <pinMode>
  digitalWrite(_sigPin, HIGH);
 80a1ef0:	f8b4 0044 	ldrh.w	r0, [r4, #68]	; 0x44
 80a1ef4:	4629      	mov	r1, r5
 80a1ef6:	f001 fdb6 	bl	80a3a66 <digitalWrite>
  
  delay(1000); // allow for sensor to settle after startup
}
 80a1efa:	e8bd 4038 	ldmia.w	sp!, {r3, r4, r5, lr}
#endif

  pinMode(_sigPin, OUTPUT);
  digitalWrite(_sigPin, HIGH);
  
  delay(1000); // allow for sensor to settle after startup
 80a1efe:	f44f 707a 	mov.w	r0, #1000	; 0x3e8
 80a1f02:	f000 be83 	b.w	80a2c0c <delay>
	...

080a1f08 <_ZN14PietteTech_DHT7acquireEv>:
  _sigPin = sigPin;
  _type = dht_type;
  this->begin();
}

int PietteTech_DHT::acquire() {
 80a1f08:	b570      	push	{r4, r5, r6, lr}
 80a1f0a:	4604      	mov	r4, r0
 80a1f0c:	b086      	sub	sp, #24

#ifdef __cplusplus
extern "C" {
#endif

inline system_tick_t millis(void) { return HAL_Timer_Get_Milli_Seconds(); }
 80a1f0e:	f000 f9ef 	bl	80a22f0 <HAL_Timer_Get_Milli_Seconds>
  // Check if sensor was read less than two seconds ago and return early
  // to use last reading
  unsigned long currenttime = millis();
  if (!_firstreading && ((currenttime - _lastreadtime) < 2000)) {
 80a1f12:	f894 3050 	ldrb.w	r3, [r4, #80]	; 0x50
 80a1f16:	b923      	cbnz	r3, 80a1f22 <_ZN14PietteTech_DHT7acquireEv+0x1a>
 80a1f18:	6ce3      	ldr	r3, [r4, #76]	; 0x4c
 80a1f1a:	1ac3      	subs	r3, r0, r3
 80a1f1c:	f5b3 6ffa 	cmp.w	r3, #2000	; 0x7d0
 80a1f20:	d30a      	bcc.n	80a1f38 <_ZN14PietteTech_DHT7acquireEv+0x30>
    // return last correct measurement, (this read time - last read time) < device limit
    return DHTLIB_ACQUIRED;
  }

  if (_state == STOPPED || _state == ACQUIRED) {
 80a1f22:	f894 302a 	ldrb.w	r3, [r4, #42]	; 0x2a
 80a1f26:	2b03      	cmp	r3, #3
 80a1f28:	d008      	beq.n	80a1f3c <_ZN14PietteTech_DHT7acquireEv+0x34>
 80a1f2a:	f894 302a 	ldrb.w	r3, [r4, #42]	; 0x2a
 80a1f2e:	2b02      	cmp	r3, #2
 80a1f30:	d004      	beq.n	80a1f3c <_ZN14PietteTech_DHT7acquireEv+0x34>
    attachInterrupt(_sigPin, &PietteTech_DHT::_isrCallback, this, FALLING);

    return DHTLIB_ACQUIRING;
  }
  else
    return DHTLIB_ERROR_ACQUIRING;
 80a1f32:	f06f 0004 	mvn.w	r0, #4
 80a1f36:	e061      	b.n	80a1ffc <_ZN14PietteTech_DHT7acquireEv+0xf4>
  // Check if sensor was read less than two seconds ago and return early
  // to use last reading
  unsigned long currenttime = millis();
  if (!_firstreading && ((currenttime - _lastreadtime) < 2000)) {
    // return last correct measurement, (this read time - last read time) < device limit
    return DHTLIB_ACQUIRED;
 80a1f38:	2002      	movs	r0, #2
 80a1f3a:	e05f      	b.n	80a1ffc <_ZN14PietteTech_DHT7acquireEv+0xf4>

  if (_state == STOPPED || _state == ACQUIRED) {
    // 
    // Setup the initial state machine
    // 
    _firstreading = false;
 80a1f3c:	2300      	movs	r3, #0

#if defined(DHT_DEBUG_TIMING)
    // 
    // Clear the debug timings array
    // 
    for (int i = 0; i < 41; i++) _edges[i] = 0;
 80a1f3e:	461a      	mov	r2, r3

  if (_state == STOPPED || _state == ACQUIRED) {
    // 
    // Setup the initial state machine
    // 
    _firstreading = false;
 80a1f40:	f884 3050 	strb.w	r3, [r4, #80]	; 0x50
    _lastreadtime = currenttime;
 80a1f44:	64e0      	str	r0, [r4, #76]	; 0x4c
    _state = RESPONSE;
 80a1f46:	f884 302a 	strb.w	r3, [r4, #42]	; 0x2a

#if defined(DHT_DEBUG_TIMING)
    // 
    // Clear the debug timings array
    // 
    for (int i = 0; i < 41; i++) _edges[i] = 0;
 80a1f4a:	54e2      	strb	r2, [r4, r3]
 80a1f4c:	3301      	adds	r3, #1
 80a1f4e:	2b29      	cmp	r3, #41	; 0x29
 80a1f50:	f04f 0500 	mov.w	r5, #0
 80a1f54:	d1f9      	bne.n	80a1f4a <_ZN14PietteTech_DHT7acquireEv+0x42>

    // 
    // Set the initial values in the buffer and variables
    // 
    for (int i = 0; i < 5; i++) _bits[i] = 0;
    _cnt = 7;
 80a1f56:	2307      	movs	r3, #7
#endif

    // 
    // Set the initial values in the buffer and variables
    // 
    for (int i = 0; i < 5; i++) _bits[i] = 0;
 80a1f58:	f884 5030 	strb.w	r5, [r4, #48]	; 0x30
 80a1f5c:	f884 5031 	strb.w	r5, [r4, #49]	; 0x31
 80a1f60:	f884 5032 	strb.w	r5, [r4, #50]	; 0x32
 80a1f64:	f884 5033 	strb.w	r5, [r4, #51]	; 0x33
 80a1f68:	f884 5034 	strb.w	r5, [r4, #52]	; 0x34
    _cnt = 7;
 80a1f6c:	f884 3035 	strb.w	r3, [r4, #53]	; 0x35
    _idx = 0;
    _hum = 0;
 80a1f70:	2300      	movs	r3, #0
 80a1f72:	6563      	str	r3, [r4, #84]	; 0x54
    _temp = 0;
 80a1f74:	65a3      	str	r3, [r4, #88]	; 0x58

    // 
    // Toggle the digital output to trigger the DHT device
    // to send us temperature and humidity data
    // 
    pinMode(_sigPin, OUTPUT);
 80a1f76:	2101      	movs	r1, #1
 80a1f78:	f8b4 0044 	ldrh.w	r0, [r4, #68]	; 0x44
#if defined(DHT_DEBUG_TIMING)
    // 
    // Clear the debug timings array
    // 
    for (int i = 0; i < 41; i++) _edges[i] = 0;
    _e = &_edges[0];
 80a1f7c:	6424      	str	r4, [r4, #64]	; 0x40
    // 
    // Set the initial values in the buffer and variables
    // 
    for (int i = 0; i < 5; i++) _bits[i] = 0;
    _cnt = 7;
    _idx = 0;
 80a1f7e:	f884 5036 	strb.w	r5, [r4, #54]	; 0x36

    // 
    // Toggle the digital output to trigger the DHT device
    // to send us temperature and humidity data
    // 
    pinMode(_sigPin, OUTPUT);
 80a1f82:	f001 fd5f 	bl	80a3a44 <pinMode>
    digitalWrite(_sigPin, LOW);
 80a1f86:	4629      	mov	r1, r5
 80a1f88:	f8b4 0044 	ldrh.w	r0, [r4, #68]	; 0x44
 80a1f8c:	f001 fd6b 	bl	80a3a66 <digitalWrite>
    if (_type == DHT11)
 80a1f90:	6ca3      	ldr	r3, [r4, #72]	; 0x48
 80a1f92:	2b0b      	cmp	r3, #11
 80a1f94:	d103      	bne.n	80a1f9e <_ZN14PietteTech_DHT7acquireEv+0x96>
      delay(18);                  // DHT11 Spec: 18ms min
 80a1f96:	2012      	movs	r0, #18
 80a1f98:	f000 fe38 	bl	80a2c0c <delay>
 80a1f9c:	e003      	b.n	80a1fa6 <_ZN14PietteTech_DHT7acquireEv+0x9e>
inline unsigned long micros(void) { return HAL_Timer_Get_Micro_Seconds(); }
void delay(unsigned long ms);
inline void delayMicroseconds(unsigned int us) { HAL_Delay_Microseconds(us); }
 80a1f9e:	f240 50dc 	movw	r0, #1500	; 0x5dc
 80a1fa2:	f000 f995 	bl	80a22d0 <HAL_Delay_Microseconds>
    else
      delayMicroseconds(1500);    // DHT22 Spec: 0.8-20ms, 1ms typ
    pinMode(_sigPin, INPUT);        // Note Hi-Z mode with pullup resistor
 80a1fa6:	2100      	movs	r1, #0
 80a1fa8:	f8b4 0044 	ldrh.w	r0, [r4, #68]	; 0x44
 80a1fac:	f001 fd4a 	bl	80a3a44 <pinMode>
#ifdef __cplusplus
extern "C" {
#endif

inline system_tick_t millis(void) { return HAL_Timer_Get_Milli_Seconds(); }
inline unsigned long micros(void) { return HAL_Timer_Get_Micro_Seconds(); }
 80a1fb0:	f000 f996 	bl	80a22e0 <HAL_Timer_Get_Micro_Seconds>
    // 
    _us = micros();
#if (SYSTEM_VERSION < SYSTEM_VERSION_v121RC3)
    // no extra steps required
#else
    _detachISR = false;
 80a1fb4:	2500      	movs	r5, #0
                                    // will keep this high until the DHT responds.
    // 
    // Attach the interrupt handler to receive the data once the DHT
    // starts to send us data
    // 
    _us = micros();
 80a1fb6:	63a0      	str	r0, [r4, #56]	; 0x38
#if (SYSTEM_VERSION < SYSTEM_VERSION_v121RC3)
    // no extra steps required
#else
    _detachISR = false;
 80a1fb8:	f884 5029 	strb.w	r5, [r4, #41]	; 0x29
	_M_init_functor(_Any_data& __functor, _Functor&& __f, true_type)
	{ new (__functor._M_access()) _Functor(std::move(__f)); }

	static void
	_M_init_functor(_Any_data& __functor, _Functor&& __f, false_type)
	{ __functor._M_access<_Functor*>() = new _Functor(std::move(__f)); }
 80a1fbc:	200c      	movs	r0, #12
#endif

    attachInterrupt(_sigPin, &PietteTech_DHT::_isrCallback, this, FALLING);
 80a1fbe:	f8b4 6044 	ldrh.w	r6, [r4, #68]	; 0x44
	{
	  _Base::_M_init_functor(__functor, std::__addressof(__f.get()));
	}
      };

    _Function_base() : _M_manager(nullptr) { }
 80a1fc2:	9504      	str	r5, [sp, #16]
	_M_init_functor(_Any_data& __functor, _Functor&& __f, true_type)
	{ new (__functor._M_access()) _Functor(std::move(__f)); }

	static void
	_M_init_functor(_Any_data& __functor, _Functor&& __f, false_type)
	{ __functor._M_access<_Functor*>() = new _Functor(std::move(__f)); }
 80a1fc4:	f7fe f86b 	bl	80a009e <_Znwj>
 80a1fc8:	b118      	cbz	r0, 80a1fd2 <_ZN14PietteTech_DHT7acquireEv+0xca>
	{ }

      _Bind(const _Bind&) = default;

      _Bind(_Bind&& __b)
      : _M_f(std::move(__b._M_f)), _M_bound_args(std::move(__b._M_bound_args))
 80a1fca:	4b0d      	ldr	r3, [pc, #52]	; (80a2000 <_ZN14PietteTech_DHT7acquireEv+0xf8>)
      constexpr _Head_base(const _Head_base&) = default;
      constexpr _Head_base(_Head_base&&) = default;

      template<typename _UHead>
        constexpr _Head_base(_UHead&& __h)
	: _M_head_impl(std::forward<_UHead>(__h)) { }
 80a1fcc:	6084      	str	r4, [r0, #8]
 80a1fce:	e880 0028 	stmia.w	r0, {r3, r5}
	typedef _Function_handler<_Signature_type, _Functor> _My_handler;

	if (_My_handler::_M_not_empty_function(__f))
	  {
	    _My_handler::_M_init_functor(_M_functor, std::move(__f));
	    _M_invoker = &_My_handler::_M_invoke;
 80a1fd2:	4b0c      	ldr	r3, [pc, #48]	; (80a2004 <_ZN14PietteTech_DHT7acquireEv+0xfc>)
	_M_init_functor(_Any_data& __functor, _Functor&& __f, true_type)
	{ new (__functor._M_access()) _Functor(std::move(__f)); }

	static void
	_M_init_functor(_Any_data& __functor, _Functor&& __f, false_type)
	{ __functor._M_access<_Functor*>() = new _Functor(std::move(__f)); }
 80a1fd4:	9002      	str	r0, [sp, #8]
	typedef _Function_handler<_Signature_type, _Functor> _My_handler;

	if (_My_handler::_M_not_empty_function(__f))
	  {
	    _My_handler::_M_init_functor(_M_functor, std::move(__f));
	    _M_invoker = &_My_handler::_M_invoke;
 80a1fd6:	9305      	str	r3, [sp, #20]
	    _M_manager = &_My_handler::_M_manager;
 80a1fd8:	4b0b      	ldr	r3, [pc, #44]	; (80a2008 <_ZN14PietteTech_DHT7acquireEv+0x100>)
bool attachInterrupt(uint16_t pin, wiring_interrupt_handler_t handler, InterruptMode mode, int8_t priority = -1, uint8_t subpriority = 0);
bool attachInterrupt(uint16_t pin, raw_interrupt_handler_t handler, InterruptMode mode, int8_t priority = -1, uint8_t subpriority = 0);
template <typename T>
bool attachInterrupt(uint16_t pin, void (T::*handler)(), T *instance, InterruptMode mode, int8_t priority = -1, uint8_t subpriority = 0) {
    using namespace std::placeholders;
    return attachInterrupt(pin, std::bind(handler, instance), mode, priority, subpriority);
 80a1fda:	2202      	movs	r2, #2
 80a1fdc:	9304      	str	r3, [sp, #16]
 80a1fde:	2300      	movs	r3, #0
 80a1fe0:	9300      	str	r3, [sp, #0]
 80a1fe2:	a902      	add	r1, sp, #8
 80a1fe4:	f04f 33ff 	mov.w	r3, #4294967295
 80a1fe8:	4630      	mov	r0, r6
 80a1fea:	f001 fb23 	bl	80a3634 <_Z15attachInterrupttSt8functionIFvvEE13InterruptModeah>

    _Function_base() : _M_manager(nullptr) { }

    ~_Function_base()
    {
      if (_M_manager)
 80a1fee:	9b04      	ldr	r3, [sp, #16]
 80a1ff0:	b11b      	cbz	r3, 80a1ffa <_ZN14PietteTech_DHT7acquireEv+0xf2>
	_M_manager(_M_functor, _M_functor, __destroy_functor);
 80a1ff2:	a902      	add	r1, sp, #8
 80a1ff4:	2203      	movs	r2, #3
 80a1ff6:	4608      	mov	r0, r1
 80a1ff8:	4798      	blx	r3
 80a1ffa:	2001      	movs	r0, #1

    return DHTLIB_ACQUIRING;
  }
  else
    return DHTLIB_ERROR_ACQUIRING;
}
 80a1ffc:	b006      	add	sp, #24
 80a1ffe:	bd70      	pop	{r4, r5, r6, pc}
 80a2000:	080a1d49 	.word	0x080a1d49
 80a2004:	080a1d2d 	.word	0x080a1d2d
 80a2008:	080a1e8b 	.word	0x080a1e8b
 80a200c:	00000000 	.word	0x00000000

080a2010 <_ZN14PietteTech_DHT7convertEv>:
  default:
    break;
  }
}

void PietteTech_DHT::convert() {
 80a2010:	b510      	push	{r4, lr}
  // Calculate the temperature and humidity based on the sensor type
  switch (_type) {
 80a2012:	6c83      	ldr	r3, [r0, #72]	; 0x48
  default:
    break;
  }
}

void PietteTech_DHT::convert() {
 80a2014:	4604      	mov	r4, r0
  // Calculate the temperature and humidity based on the sensor type
  switch (_type) {
 80a2016:	2b0b      	cmp	r3, #11
 80a2018:	d030      	beq.n	80a207c <_ZN14PietteTech_DHT7convertEv+0x6c>
 80a201a:	db39      	blt.n	80a2090 <_ZN14PietteTech_DHT7convertEv+0x80>
 80a201c:	3b15      	subs	r3, #21
 80a201e:	2b01      	cmp	r3, #1
 80a2020:	d836      	bhi.n	80a2090 <_ZN14PietteTech_DHT7convertEv+0x80>
    _hum = _bits[0];
    _temp = _bits[2];
    break;
  case DHT22:
  case DHT21:
    _hum = word(_bits[0], _bits[1]) * 0.1;
 80a2022:	f890 0030 	ldrb.w	r0, [r0, #48]	; 0x30
 80a2026:	f894 3031 	ldrb.w	r3, [r4, #49]	; 0x31
 80a202a:	eb03 2000 	add.w	r0, r3, r0, lsl #8
 80a202e:	b280      	uxth	r0, r0
 80a2030:	f002 f8a2 	bl	80a4178 <__aeabi_i2d>
 80a2034:	a318      	add	r3, pc, #96	; (adr r3, 80a2098 <_ZN14PietteTech_DHT7convertEv+0x88>)
 80a2036:	e9d3 2300 	ldrd	r2, r3, [r3]
 80a203a:	f002 f903 	bl	80a4244 <__aeabi_dmul>
 80a203e:	f002 fbf9 	bl	80a4834 <__aeabi_d2f>
    _temp = (_bits[2] & 0x80 ?
 80a2042:	f894 3032 	ldrb.w	r3, [r4, #50]	; 0x32
    _hum = _bits[0];
    _temp = _bits[2];
    break;
  case DHT22:
  case DHT21:
    _hum = word(_bits[0], _bits[1]) * 0.1;
 80a2046:	6560      	str	r0, [r4, #84]	; 0x54
    _temp = (_bits[2] & 0x80 ?
      -word(_bits[2] & 0x7F, _bits[3]) :
 80a2048:	f894 0032 	ldrb.w	r0, [r4, #50]	; 0x32
      word(_bits[2], _bits[3])) * 0.1;
 80a204c:	f013 0f80 	tst.w	r3, #128	; 0x80
    break;
  case DHT22:
  case DHT21:
    _hum = word(_bits[0], _bits[1]) * 0.1;
    _temp = (_bits[2] & 0x80 ?
      -word(_bits[2] & 0x7F, _bits[3]) :
 80a2050:	f894 3033 	ldrb.w	r3, [r4, #51]	; 0x33
      word(_bits[2], _bits[3])) * 0.1;
 80a2054:	bf1b      	ittet	ne
 80a2056:	f000 007f 	andne.w	r0, r0, #127	; 0x7f
 80a205a:	eb03 2000 	addne.w	r0, r3, r0, lsl #8
 80a205e:	eb03 2000 	addeq.w	r0, r3, r0, lsl #8
 80a2062:	4240      	negne	r0, r0
 80a2064:	bf08      	it	eq
 80a2066:	b280      	uxtheq	r0, r0
 80a2068:	f002 f886 	bl	80a4178 <__aeabi_i2d>
 80a206c:	a30a      	add	r3, pc, #40	; (adr r3, 80a2098 <_ZN14PietteTech_DHT7convertEv+0x88>)
 80a206e:	e9d3 2300 	ldrd	r2, r3, [r3]
 80a2072:	f002 f8e7 	bl	80a4244 <__aeabi_dmul>
 80a2076:	f002 fbdd 	bl	80a4834 <__aeabi_d2f>
 80a207a:	e008      	b.n	80a208e <_ZN14PietteTech_DHT7convertEv+0x7e>

void PietteTech_DHT::convert() {
  // Calculate the temperature and humidity based on the sensor type
  switch (_type) {
  case DHT11:
    _hum = _bits[0];
 80a207c:	f890 0030 	ldrb.w	r0, [r0, #48]	; 0x30
 80a2080:	f002 fcde 	bl	80a4a40 <__aeabi_ui2f>
 80a2084:	6560      	str	r0, [r4, #84]	; 0x54
    _temp = _bits[2];
 80a2086:	f894 0032 	ldrb.w	r0, [r4, #50]	; 0x32
 80a208a:	f002 fcd9 	bl	80a4a40 <__aeabi_ui2f>
  case DHT22:
  case DHT21:
    _hum = word(_bits[0], _bits[1]) * 0.1;
    _temp = (_bits[2] & 0x80 ?
      -word(_bits[2] & 0x7F, _bits[3]) :
      word(_bits[2], _bits[3])) * 0.1;
 80a208e:	65a0      	str	r0, [r4, #88]	; 0x58
    break;
  }
  _convert = false;
 80a2090:	2300      	movs	r3, #0
 80a2092:	f884 303c 	strb.w	r3, [r4, #60]	; 0x3c
 80a2096:	bd10      	pop	{r4, pc}
 80a2098:	9999999a 	.word	0x9999999a
 80a209c:	3fb99999 	.word	0x3fb99999

080a20a0 <_ZN14PietteTech_DHT9acquiringEv>:
}

bool PietteTech_DHT::acquiring() {
  if (_state != ACQUIRED && _state != STOPPED)
 80a20a0:	f890 302a 	ldrb.w	r3, [r0, #42]	; 0x2a
 80a20a4:	2b02      	cmp	r3, #2
 80a20a6:	d005      	beq.n	80a20b4 <_ZN14PietteTech_DHT9acquiringEv+0x14>
 80a20a8:	f890 002a 	ldrb.w	r0, [r0, #42]	; 0x2a
 80a20ac:	3803      	subs	r0, #3
 80a20ae:	bf18      	it	ne
 80a20b0:	2001      	movne	r0, #1
 80a20b2:	4770      	bx	lr
    return true;
  return false;
 80a20b4:	2000      	movs	r0, #0
}
 80a20b6:	4770      	bx	lr

080a20b8 <_ZN14PietteTech_DHT20detachISRIfRequestedEv>:
}

#if (SYSTEM_VERSION < SYSTEM_VERSION_v121RC3)
// no extra steps required
#else
void PietteTech_DHT::detachISRIfRequested() {
 80a20b8:	b510      	push	{r4, lr}
  if (_detachISR) {
 80a20ba:	f890 3029 	ldrb.w	r3, [r0, #41]	; 0x29
}

#if (SYSTEM_VERSION < SYSTEM_VERSION_v121RC3)
// no extra steps required
#else
void PietteTech_DHT::detachISRIfRequested() {
 80a20be:	4604      	mov	r4, r0
  if (_detachISR) {
 80a20c0:	b133      	cbz	r3, 80a20d0 <_ZN14PietteTech_DHT20detachISRIfRequestedEv+0x18>
    detachInterrupt(_sigPin);
 80a20c2:	f8b0 0044 	ldrh.w	r0, [r0, #68]	; 0x44
 80a20c6:	f001 fa6d 	bl	80a35a4 <_Z15detachInterruptt>
    _detachISR = false;
 80a20ca:	2300      	movs	r3, #0
 80a20cc:	f884 3029 	strb.w	r3, [r4, #41]	; 0x29
 80a20d0:	bd10      	pop	{r4, pc}
	...

080a20d4 <_ZN14PietteTech_DHT10getCelsiusEv>:
  detachISRIfRequested();
#endif
  return _status;
}

float PietteTech_DHT::getCelsius() {
 80a20d4:	b510      	push	{r4, lr}
 80a20d6:	4604      	mov	r4, r0
  DHT_CHECK_STATE;
 80a20d8:	f7ff ffee 	bl	80a20b8 <_ZN14PietteTech_DHT20detachISRIfRequestedEv>
 80a20dc:	f894 302a 	ldrb.w	r3, [r4, #42]	; 0x2a
 80a20e0:	2b03      	cmp	r3, #3
 80a20e2:	d103      	bne.n	80a20ec <_ZN14PietteTech_DHT10getCelsiusEv+0x18>
 80a20e4:	6ae0      	ldr	r0, [r4, #44]	; 0x2c
 80a20e6:	f002 fcaf 	bl	80a4a48 <__aeabi_i2f>
 80a20ea:	bd10      	pop	{r4, pc}
 80a20ec:	f894 302a 	ldrb.w	r3, [r4, #42]	; 0x2a
 80a20f0:	2b02      	cmp	r3, #2
 80a20f2:	d107      	bne.n	80a2104 <_ZN14PietteTech_DHT10getCelsiusEv+0x30>
 80a20f4:	f894 303c 	ldrb.w	r3, [r4, #60]	; 0x3c
 80a20f8:	b113      	cbz	r3, 80a2100 <_ZN14PietteTech_DHT10getCelsiusEv+0x2c>
 80a20fa:	4620      	mov	r0, r4
 80a20fc:	f7ff ff88 	bl	80a2010 <_ZN14PietteTech_DHT7convertEv>
  return _temp;
 80a2100:	6da0      	ldr	r0, [r4, #88]	; 0x58
 80a2102:	bd10      	pop	{r4, pc}
#endif
  return _status;
}

float PietteTech_DHT::getCelsius() {
  DHT_CHECK_STATE;
 80a2104:	4800      	ldr	r0, [pc, #0]	; (80a2108 <_ZN14PietteTech_DHT10getCelsiusEv+0x34>)
  return _temp;
}
 80a2106:	bd10      	pop	{r4, pc}
 80a2108:	c0a00000 	.word	0xc0a00000

080a210c <_ZN14PietteTech_DHT11getHumidityEv>:

float PietteTech_DHT::getHumidity() {
 80a210c:	b510      	push	{r4, lr}
 80a210e:	4604      	mov	r4, r0
  DHT_CHECK_STATE;
 80a2110:	f7ff ffd2 	bl	80a20b8 <_ZN14PietteTech_DHT20detachISRIfRequestedEv>
 80a2114:	f894 302a 	ldrb.w	r3, [r4, #42]	; 0x2a
 80a2118:	2b03      	cmp	r3, #3
 80a211a:	d103      	bne.n	80a2124 <_ZN14PietteTech_DHT11getHumidityEv+0x18>
 80a211c:	6ae0      	ldr	r0, [r4, #44]	; 0x2c
 80a211e:	f002 fc93 	bl	80a4a48 <__aeabi_i2f>
 80a2122:	bd10      	pop	{r4, pc}
 80a2124:	f894 302a 	ldrb.w	r3, [r4, #42]	; 0x2a
 80a2128:	2b02      	cmp	r3, #2
 80a212a:	d107      	bne.n	80a213c <_ZN14PietteTech_DHT11getHumidityEv+0x30>
 80a212c:	f894 303c 	ldrb.w	r3, [r4, #60]	; 0x3c
 80a2130:	b113      	cbz	r3, 80a2138 <_ZN14PietteTech_DHT11getHumidityEv+0x2c>
 80a2132:	4620      	mov	r0, r4
 80a2134:	f7ff ff6c 	bl	80a2010 <_ZN14PietteTech_DHT7convertEv>
  return _hum;
 80a2138:	6d60      	ldr	r0, [r4, #84]	; 0x54
 80a213a:	bd10      	pop	{r4, pc}
  DHT_CHECK_STATE;
  return _temp;
}

float PietteTech_DHT::getHumidity() {
  DHT_CHECK_STATE;
 80a213c:	4800      	ldr	r0, [pc, #0]	; (80a2140 <_ZN14PietteTech_DHT11getHumidityEv+0x34>)
  return _hum;
}
 80a213e:	bd10      	pop	{r4, pc}
 80a2140:	c0a00000 	.word	0xc0a00000

080a2144 <_ZN14PietteTech_DHT14acquireAndWaitEm>:
  }
  else
    return DHTLIB_ERROR_ACQUIRING;
}

int PietteTech_DHT::acquireAndWait(uint32_t timeout) {
 80a2144:	b5f8      	push	{r3, r4, r5, r6, r7, lr}
 80a2146:	460d      	mov	r5, r1
 80a2148:	4604      	mov	r4, r0
  acquire();
 80a214a:	f7ff fedd 	bl	80a1f08 <_ZN14PietteTech_DHT7acquireEv>

#ifdef __cplusplus
extern "C" {
#endif

inline system_tick_t millis(void) { return HAL_Timer_Get_Milli_Seconds(); }
 80a214e:	f000 f8cf 	bl	80a22f0 <HAL_Timer_Get_Milli_Seconds>
 80a2152:	4607      	mov	r7, r0
	/**
	 * Lifesign that the application is still working normally.
	 */
	static void checkin()
	{
		last_checkin = current_time();
 80a2154:	4e0e      	ldr	r6, [pc, #56]	; (80a2190 <_ZN14PietteTech_DHT14acquireAndWaitEm+0x4c>)
  uint32_t start = millis();
  while (acquiring() && (timeout == 0 || ((millis() - start) < timeout))) Particle.process();
 80a2156:	4620      	mov	r0, r4
 80a2158:	f7ff ffa2 	bl	80a20a0 <_ZN14PietteTech_DHT9acquiringEv>
 80a215c:	b158      	cbz	r0, 80a2176 <_ZN14PietteTech_DHT14acquireAndWaitEm+0x32>
 80a215e:	b125      	cbz	r5, 80a216a <_ZN14PietteTech_DHT14acquireAndWaitEm+0x26>
 80a2160:	f000 f8c6 	bl	80a22f0 <HAL_Timer_Get_Milli_Seconds>
 80a2164:	1bc0      	subs	r0, r0, r7
 80a2166:	4285      	cmp	r5, r0
 80a2168:	d905      	bls.n	80a2176 <_ZN14PietteTech_DHT14acquireAndWaitEm+0x32>
		return !timeout_fn;
	}

	static inline system_tick_t current_time()
	{
		return HAL_Timer_Get_Milli_Seconds();
 80a216a:	f000 f8c1 	bl	80a22f0 <HAL_Timer_Get_Milli_Seconds>
	/**
	 * Lifesign that the application is still working normally.
	 */
	static void checkin()
	{
		last_checkin = current_time();
 80a216e:	6030      	str	r0, [r6, #0]
        spark_cloud_flag_connect();
    }
    static void disconnect(void) { spark_cloud_flag_disconnect(); }
    static void process(void) {
    		application_checkin();
    		spark_process();
 80a2170:	f000 fa74 	bl	80a265c <spark_process>
 80a2174:	e7ef      	b.n	80a2156 <_ZN14PietteTech_DHT14acquireAndWaitEm+0x12>
  if (acquiring())
 80a2176:	4620      	mov	r0, r4
 80a2178:	f7ff ff92 	bl	80a20a0 <_ZN14PietteTech_DHT9acquiringEv>
 80a217c:	b110      	cbz	r0, 80a2184 <_ZN14PietteTech_DHT14acquireAndWaitEm+0x40>
  {
    _status = DHTLIB_ERROR_RESPONSE_TIMEOUT;
 80a217e:	f06f 0302 	mvn.w	r3, #2
 80a2182:	62e3      	str	r3, [r4, #44]	; 0x2c

int PietteTech_DHT::getStatus() {
#if (SYSTEM_VERSION < SYSTEM_VERSION_v121RC3)
  // no extra steps required
#else
  detachISRIfRequested();
 80a2184:	4620      	mov	r0, r4
 80a2186:	f7ff ff97 	bl	80a20b8 <_ZN14PietteTech_DHT20detachISRIfRequestedEv>
#endif
  return _status;
 80a218a:	6ae0      	ldr	r0, [r4, #44]	; 0x2c
  if (acquiring())
  {
    _status = DHTLIB_ERROR_RESPONSE_TIMEOUT;
  }
  return getStatus();
}
 80a218c:	bdf8      	pop	{r3, r4, r5, r6, r7, pc}
 80a218e:	bf00      	nop
 80a2190:	20000678 	.word	0x20000678

080a2194 <_ZN14PietteTech_DHT15readTemperatureEv>:
}

// 
// Added methods for supporting Adafruit Unified Sensor framework
// 
float PietteTech_DHT::readTemperature() {
 80a2194:	b510      	push	{r4, lr}
 80a2196:	4604      	mov	r4, r0
  acquireAndWait();
 80a2198:	2100      	movs	r1, #0
 80a219a:	f7ff ffd3 	bl	80a2144 <_ZN14PietteTech_DHT14acquireAndWaitEm>
  return getCelsius();
 80a219e:	4620      	mov	r0, r4
}
 80a21a0:	e8bd 4010 	ldmia.w	sp!, {r4, lr}
// 
// Added methods for supporting Adafruit Unified Sensor framework
// 
float PietteTech_DHT::readTemperature() {
  acquireAndWait();
  return getCelsius();
 80a21a4:	f7ff bf96 	b.w	80a20d4 <_ZN14PietteTech_DHT10getCelsiusEv>

080a21a8 <_ZN14PietteTech_DHT12readHumidityEv>:
}

float PietteTech_DHT::readHumidity() {
 80a21a8:	b510      	push	{r4, lr}
 80a21aa:	4604      	mov	r4, r0
  acquireAndWait();
 80a21ac:	2100      	movs	r1, #0
 80a21ae:	f7ff ffc9 	bl	80a2144 <_ZN14PietteTech_DHT14acquireAndWaitEm>
  return getHumidity();
 80a21b2:	4620      	mov	r0, r4
}
 80a21b4:	e8bd 4010 	ldmia.w	sp!, {r4, lr}
  return getCelsius();
}

float PietteTech_DHT::readHumidity() {
  acquireAndWait();
  return getHumidity();
 80a21b8:	f7ff bfa8 	b.w	80a210c <_ZN14PietteTech_DHT11getHumidityEv>

080a21bc <_GLOBAL__sub_I__Z4wordhh>:
 80a21bc:	f000 b800 	b.w	80a21c0 <HAL_Pin_Map>

080a21c0 <HAL_Pin_Map>:
// New HAL functions must be added to the end of this list.
// GNINRAW

DYNALIB_BEGIN(hal_gpio)

DYNALIB_FN(0, hal_gpio, HAL_Pin_Map, Hal_Pin_Info*(void))
 80a21c0:	b508      	push	{r3, lr}
 80a21c2:	4b02      	ldr	r3, [pc, #8]	; (80a21cc <HAL_Pin_Map+0xc>)
 80a21c4:	681b      	ldr	r3, [r3, #0]
 80a21c6:	681b      	ldr	r3, [r3, #0]
 80a21c8:	9301      	str	r3, [sp, #4]
 80a21ca:	bd08      	pop	{r3, pc}
 80a21cc:	080601b0 	.word	0x080601b0

080a21d0 <HAL_Validate_Pin_Function>:
DYNALIB_FN(1, hal_gpio, HAL_Validate_Pin_Function, PinFunction(pin_t, PinFunction))
 80a21d0:	b508      	push	{r3, lr}
 80a21d2:	4b02      	ldr	r3, [pc, #8]	; (80a21dc <HAL_Validate_Pin_Function+0xc>)
 80a21d4:	681b      	ldr	r3, [r3, #0]
 80a21d6:	685b      	ldr	r3, [r3, #4]
 80a21d8:	9301      	str	r3, [sp, #4]
 80a21da:	bd08      	pop	{r3, pc}
 80a21dc:	080601b0 	.word	0x080601b0

080a21e0 <HAL_Pin_Mode>:
DYNALIB_FN(2, hal_gpio, HAL_Pin_Mode, void(pin_t, PinMode))
 80a21e0:	b508      	push	{r3, lr}
 80a21e2:	4b02      	ldr	r3, [pc, #8]	; (80a21ec <HAL_Pin_Mode+0xc>)
 80a21e4:	681b      	ldr	r3, [r3, #0]
 80a21e6:	689b      	ldr	r3, [r3, #8]
 80a21e8:	9301      	str	r3, [sp, #4]
 80a21ea:	bd08      	pop	{r3, pc}
 80a21ec:	080601b0 	.word	0x080601b0

080a21f0 <HAL_Get_Pin_Mode>:
DYNALIB_FN(3, hal_gpio, HAL_Get_Pin_Mode, PinMode(pin_t))
 80a21f0:	b508      	push	{r3, lr}
 80a21f2:	4b02      	ldr	r3, [pc, #8]	; (80a21fc <HAL_Get_Pin_Mode+0xc>)
 80a21f4:	681b      	ldr	r3, [r3, #0]
 80a21f6:	68db      	ldr	r3, [r3, #12]
 80a21f8:	9301      	str	r3, [sp, #4]
 80a21fa:	bd08      	pop	{r3, pc}
 80a21fc:	080601b0 	.word	0x080601b0

080a2200 <HAL_GPIO_Write>:
DYNALIB_FN(4, hal_gpio, HAL_GPIO_Write, void(pin_t, uint8_t))
 80a2200:	b508      	push	{r3, lr}
 80a2202:	4b02      	ldr	r3, [pc, #8]	; (80a220c <HAL_GPIO_Write+0xc>)
 80a2204:	681b      	ldr	r3, [r3, #0]
 80a2206:	691b      	ldr	r3, [r3, #16]
 80a2208:	9301      	str	r3, [sp, #4]
 80a220a:	bd08      	pop	{r3, pc}
 80a220c:	080601b0 	.word	0x080601b0

080a2210 <HAL_GPIO_Read>:
DYNALIB_FN(5, hal_gpio, HAL_GPIO_Read, int32_t(pin_t))
 80a2210:	b508      	push	{r3, lr}
 80a2212:	4b02      	ldr	r3, [pc, #8]	; (80a221c <HAL_GPIO_Read+0xc>)
 80a2214:	681b      	ldr	r3, [r3, #0]
 80a2216:	695b      	ldr	r3, [r3, #20]
 80a2218:	9301      	str	r3, [sp, #4]
 80a221a:	bd08      	pop	{r3, pc}
 80a221c:	080601b0 	.word	0x080601b0

080a2220 <HAL_Interrupts_Attach>:
DYNALIB_FN(6, hal_gpio, HAL_Interrupts_Attach, int(uint16_t, HAL_InterruptHandler, void*, InterruptMode, HAL_InterruptExtraConfiguration*))
 80a2220:	b508      	push	{r3, lr}
 80a2222:	4b02      	ldr	r3, [pc, #8]	; (80a222c <HAL_Interrupts_Attach+0xc>)
 80a2224:	681b      	ldr	r3, [r3, #0]
 80a2226:	699b      	ldr	r3, [r3, #24]
 80a2228:	9301      	str	r3, [sp, #4]
 80a222a:	bd08      	pop	{r3, pc}
 80a222c:	080601b0 	.word	0x080601b0

080a2230 <HAL_Interrupts_Detach>:
DYNALIB_FN(7, hal_gpio, HAL_Interrupts_Detach, int(uint16_t))
 80a2230:	b508      	push	{r3, lr}
 80a2232:	4b02      	ldr	r3, [pc, #8]	; (80a223c <HAL_Interrupts_Detach+0xc>)
 80a2234:	681b      	ldr	r3, [r3, #0]
 80a2236:	69db      	ldr	r3, [r3, #28]
 80a2238:	9301      	str	r3, [sp, #4]
 80a223a:	bd08      	pop	{r3, pc}
 80a223c:	080601b0 	.word	0x080601b0

080a2240 <HAL_DAC_Write>:
DYNALIB_FN(8, hal_gpio, HAL_Interrupts_Enable_All, void(void))
DYNALIB_FN(9, hal_gpio, HAL_Interrupts_Disable_All, void(void))

DYNALIB_FN(10, hal_gpio, HAL_DAC_Write, void(pin_t, uint16_t))
 80a2240:	b508      	push	{r3, lr}
 80a2242:	4b02      	ldr	r3, [pc, #8]	; (80a224c <HAL_DAC_Write+0xc>)
 80a2244:	681b      	ldr	r3, [r3, #0]
 80a2246:	6a9b      	ldr	r3, [r3, #40]	; 0x28
 80a2248:	9301      	str	r3, [sp, #4]
 80a224a:	bd08      	pop	{r3, pc}
 80a224c:	080601b0 	.word	0x080601b0

080a2250 <HAL_PWM_Write_Ext>:
DYNALIB_FN(25, hal_gpio, HAL_DAC_Get_Resolution, uint8_t(pin_t))
DYNALIB_FN(26, hal_gpio, HAL_DAC_Set_Resolution, void(pin_t, uint8_t))
DYNALIB_FN(27, hal_gpio, HAL_DAC_Enable_Buffer, void(pin_t pin, uint8_t state))
DYNALIB_FN(28, hal_gpio, HAL_PWM_Get_Resolution, uint8_t(uint16_t))
DYNALIB_FN(29, hal_gpio, HAL_PWM_Set_Resolution, void(uint16_t, uint8_t))
DYNALIB_FN(30, hal_gpio, HAL_PWM_Write_Ext, void(uint16_t, uint32_t))
 80a2250:	b508      	push	{r3, lr}
 80a2252:	4b02      	ldr	r3, [pc, #8]	; (80a225c <HAL_PWM_Write_Ext+0xc>)
 80a2254:	681b      	ldr	r3, [r3, #0]
 80a2256:	6f9b      	ldr	r3, [r3, #120]	; 0x78
 80a2258:	9301      	str	r3, [sp, #4]
 80a225a:	bd08      	pop	{r3, pc}
 80a225c:	080601b0 	.word	0x080601b0

080a2260 <HAL_SPI_Begin>:
// New HAL functions must be added to the end of this list.
// GNINRAW

DYNALIB_BEGIN(hal_spi)

DYNALIB_FN(0, hal_spi, HAL_SPI_Begin, void(HAL_SPI_Interface, uint16_t))
 80a2260:	b508      	push	{r3, lr}
 80a2262:	4b02      	ldr	r3, [pc, #8]	; (80a226c <HAL_SPI_Begin+0xc>)
 80a2264:	681b      	ldr	r3, [r3, #0]
 80a2266:	681b      	ldr	r3, [r3, #0]
 80a2268:	9301      	str	r3, [sp, #4]
 80a226a:	bd08      	pop	{r3, pc}
 80a226c:	080601b4 	.word	0x080601b4

080a2270 <HAL_SPI_Send_Receive_Data>:
DYNALIB_FN(1, hal_spi, HAL_SPI_End, void(HAL_SPI_Interface))
DYNALIB_FN(2, hal_spi, HAL_SPI_Set_Bit_Order, void(HAL_SPI_Interface, uint8_t))
DYNALIB_FN(3, hal_spi, HAL_SPI_Set_Data_Mode, void(HAL_SPI_Interface, uint8_t))
DYNALIB_FN(4, hal_spi, HAL_SPI_Set_Clock_Divider, void(HAL_SPI_Interface, uint8_t))
DYNALIB_FN(5, hal_spi, HAL_SPI_Send_Receive_Data, uint16_t(HAL_SPI_Interface, uint16_t))
 80a2270:	b508      	push	{r3, lr}
 80a2272:	4b02      	ldr	r3, [pc, #8]	; (80a227c <HAL_SPI_Send_Receive_Data+0xc>)
 80a2274:	681b      	ldr	r3, [r3, #0]
 80a2276:	695b      	ldr	r3, [r3, #20]
 80a2278:	9301      	str	r3, [sp, #4]
 80a227a:	bd08      	pop	{r3, pc}
 80a227c:	080601b4 	.word	0x080601b4

080a2280 <HAL_SPI_Init>:
DYNALIB_FN(6, hal_spi, HAL_SPI_Is_Enabled_Old, bool(void))
DYNALIB_FN(7, hal_spi, HAL_SPI_Init, void(HAL_SPI_Interface))
 80a2280:	b508      	push	{r3, lr}
 80a2282:	4b02      	ldr	r3, [pc, #8]	; (80a228c <HAL_SPI_Init+0xc>)
 80a2284:	681b      	ldr	r3, [r3, #0]
 80a2286:	69db      	ldr	r3, [r3, #28]
 80a2288:	9301      	str	r3, [sp, #4]
 80a228a:	bd08      	pop	{r3, pc}
 80a228c:	080601b4 	.word	0x080601b4

080a2290 <HAL_SPI_Is_Enabled>:
DYNALIB_FN(8, hal_spi, HAL_SPI_Is_Enabled, bool(HAL_SPI_Interface))
 80a2290:	b508      	push	{r3, lr}
 80a2292:	4b02      	ldr	r3, [pc, #8]	; (80a229c <HAL_SPI_Is_Enabled+0xc>)
 80a2294:	681b      	ldr	r3, [r3, #0]
 80a2296:	6a1b      	ldr	r3, [r3, #32]
 80a2298:	9301      	str	r3, [sp, #4]
 80a229a:	bd08      	pop	{r3, pc}
 80a229c:	080601b4 	.word	0x080601b4

080a22a0 <HAL_SPI_Info>:
DYNALIB_FN(9, hal_spi, HAL_SPI_Info, void(HAL_SPI_Interface, hal_spi_info_t*, void*))
 80a22a0:	b508      	push	{r3, lr}
 80a22a2:	4b02      	ldr	r3, [pc, #8]	; (80a22ac <HAL_SPI_Info+0xc>)
 80a22a4:	681b      	ldr	r3, [r3, #0]
 80a22a6:	6a5b      	ldr	r3, [r3, #36]	; 0x24
 80a22a8:	9301      	str	r3, [sp, #4]
 80a22aa:	bd08      	pop	{r3, pc}
 80a22ac:	080601b4 	.word	0x080601b4

080a22b0 <HAL_SPI_Set_Settings>:
DYNALIB_FN(10, hal_spi, HAL_SPI_DMA_Transfer, void(HAL_SPI_Interface, void*, void*, uint32_t, HAL_SPI_DMA_UserCallback))
DYNALIB_FN(11, hal_spi, HAL_SPI_Begin_Ext, void(HAL_SPI_Interface, SPI_Mode, uint16_t, void*))
DYNALIB_FN(12, hal_spi, HAL_SPI_Set_Callback_On_Select, void(HAL_SPI_Interface, HAL_SPI_Select_UserCallback, void*))
DYNALIB_FN(13, hal_spi, HAL_SPI_DMA_Transfer_Cancel, void(HAL_SPI_Interface))
DYNALIB_FN(14, hal_spi, HAL_SPI_DMA_Transfer_Status, int32_t(HAL_SPI_Interface, HAL_SPI_TransferStatus*))
DYNALIB_FN(15, hal_spi, HAL_SPI_Set_Settings, int32_t(HAL_SPI_Interface, uint8_t, uint8_t, uint8_t, uint8_t, void*))
 80a22b0:	b508      	push	{r3, lr}
 80a22b2:	4b02      	ldr	r3, [pc, #8]	; (80a22bc <HAL_SPI_Set_Settings+0xc>)
 80a22b4:	681b      	ldr	r3, [r3, #0]
 80a22b6:	6bdb      	ldr	r3, [r3, #60]	; 0x3c
 80a22b8:	9301      	str	r3, [sp, #4]
 80a22ba:	bd08      	pop	{r3, pc}
 80a22bc:	080601b4 	.word	0x080601b4

080a22c0 <HAL_RNG_GetRandomNumber>:

DYNALIB_BEGIN(hal)

#if PLATFORM_ID > 3
DYNALIB_FN(0, hal, HAL_RNG_Configuration, void(void))
DYNALIB_FN(1, hal, HAL_RNG_GetRandomNumber, uint32_t(void))
 80a22c0:	b508      	push	{r3, lr}
 80a22c2:	4b02      	ldr	r3, [pc, #8]	; (80a22cc <HAL_RNG_GetRandomNumber+0xc>)
 80a22c4:	681b      	ldr	r3, [r3, #0]
 80a22c6:	685b      	ldr	r3, [r3, #4]
 80a22c8:	9301      	str	r3, [sp, #4]
 80a22ca:	bd08      	pop	{r3, pc}
 80a22cc:	0806019c 	.word	0x0806019c

080a22d0 <HAL_Delay_Microseconds>:
#else
#define BASE_IDX 0
#endif

DYNALIB_FN(BASE_IDX + 0, hal, HAL_Delay_Milliseconds, void(uint32_t))
DYNALIB_FN(BASE_IDX + 1, hal, HAL_Delay_Microseconds, void(uint32_t))
 80a22d0:	b508      	push	{r3, lr}
 80a22d2:	4b02      	ldr	r3, [pc, #8]	; (80a22dc <HAL_Delay_Microseconds+0xc>)
 80a22d4:	681b      	ldr	r3, [r3, #0]
 80a22d6:	68db      	ldr	r3, [r3, #12]
 80a22d8:	9301      	str	r3, [sp, #4]
 80a22da:	bd08      	pop	{r3, pc}
 80a22dc:	0806019c 	.word	0x0806019c

080a22e0 <HAL_Timer_Get_Micro_Seconds>:
DYNALIB_FN(BASE_IDX + 2, hal, HAL_Timer_Get_Micro_Seconds, system_tick_t(void))
 80a22e0:	b508      	push	{r3, lr}
 80a22e2:	4b02      	ldr	r3, [pc, #8]	; (80a22ec <HAL_Timer_Get_Micro_Seconds+0xc>)
 80a22e4:	681b      	ldr	r3, [r3, #0]
 80a22e6:	691b      	ldr	r3, [r3, #16]
 80a22e8:	9301      	str	r3, [sp, #4]
 80a22ea:	bd08      	pop	{r3, pc}
 80a22ec:	0806019c 	.word	0x0806019c

080a22f0 <HAL_Timer_Get_Milli_Seconds>:
DYNALIB_FN(BASE_IDX + 3, hal, HAL_Timer_Get_Milli_Seconds, system_tick_t(void))
 80a22f0:	b508      	push	{r3, lr}
 80a22f2:	4b02      	ldr	r3, [pc, #8]	; (80a22fc <HAL_Timer_Get_Milli_Seconds+0xc>)
 80a22f4:	681b      	ldr	r3, [r3, #0]
 80a22f6:	695b      	ldr	r3, [r3, #20]
 80a22f8:	9301      	str	r3, [sp, #4]
 80a22fa:	bd08      	pop	{r3, pc}
 80a22fc:	0806019c 	.word	0x0806019c

080a2300 <os_mutex_create>:
DYNALIB_FN(8, hal_concurrent, os_timer_create, int(os_timer_t*, unsigned, void(*)(os_timer_t), void*, bool, void*))
DYNALIB_FN(9, hal_concurrent, os_timer_destroy, int(os_timer_t, void*))
DYNALIB_FN(10, hal_concurrent, os_timer_get_id, int(os_timer_t, void**))
DYNALIB_FN(11, hal_concurrent, os_timer_change, int(os_timer_t, os_timer_change_t, bool, unsigned, unsigned, void*))

DYNALIB_FN(12, hal_concurrent, os_mutex_create, int(os_mutex_t*))
 80a2300:	b508      	push	{r3, lr}
 80a2302:	4b02      	ldr	r3, [pc, #8]	; (80a230c <os_mutex_create+0xc>)
 80a2304:	681b      	ldr	r3, [r3, #0]
 80a2306:	6b1b      	ldr	r3, [r3, #48]	; 0x30
 80a2308:	9301      	str	r3, [sp, #4]
 80a230a:	bd08      	pop	{r3, pc}
 80a230c:	080601d0 	.word	0x080601d0

080a2310 <os_mutex_destroy>:
DYNALIB_FN(13, hal_concurrent, os_mutex_destroy, int(os_mutex_t))
 80a2310:	b508      	push	{r3, lr}
 80a2312:	4b02      	ldr	r3, [pc, #8]	; (80a231c <os_mutex_destroy+0xc>)
 80a2314:	681b      	ldr	r3, [r3, #0]
 80a2316:	6b5b      	ldr	r3, [r3, #52]	; 0x34
 80a2318:	9301      	str	r3, [sp, #4]
 80a231a:	bd08      	pop	{r3, pc}
 80a231c:	080601d0 	.word	0x080601d0

080a2320 <os_mutex_recursive_create>:
DYNALIB_FN(14, hal_concurrent, os_mutex_lock, int(os_mutex_t))
DYNALIB_FN(15, hal_concurrent, os_mutex_trylock, int(os_mutex_t))
DYNALIB_FN(16, hal_concurrent, os_mutex_unlock, int(os_mutex_t))

DYNALIB_FN(17, hal_concurrent, os_mutex_recursive_create, int(os_mutex_recursive_t*))
 80a2320:	b508      	push	{r3, lr}
 80a2322:	4b02      	ldr	r3, [pc, #8]	; (80a232c <os_mutex_recursive_create+0xc>)
 80a2324:	681b      	ldr	r3, [r3, #0]
 80a2326:	6c5b      	ldr	r3, [r3, #68]	; 0x44
 80a2328:	9301      	str	r3, [sp, #4]
 80a232a:	bd08      	pop	{r3, pc}
 80a232c:	080601d0 	.word	0x080601d0

080a2330 <os_mutex_recursive_destroy>:
DYNALIB_FN(18, hal_concurrent, os_mutex_recursive_destroy, int(os_mutex_recursive_t))
 80a2330:	b508      	push	{r3, lr}
 80a2332:	4b02      	ldr	r3, [pc, #8]	; (80a233c <os_mutex_recursive_destroy+0xc>)
 80a2334:	681b      	ldr	r3, [r3, #0]
 80a2336:	6c9b      	ldr	r3, [r3, #72]	; 0x48
 80a2338:	9301      	str	r3, [sp, #4]
 80a233a:	bd08      	pop	{r3, pc}
 80a233c:	080601d0 	.word	0x080601d0

080a2340 <os_mutex_recursive_lock>:
DYNALIB_FN(19, hal_concurrent, os_mutex_recursive_lock, int(os_mutex_recursive_t))
 80a2340:	b508      	push	{r3, lr}
 80a2342:	4b02      	ldr	r3, [pc, #8]	; (80a234c <os_mutex_recursive_lock+0xc>)
 80a2344:	681b      	ldr	r3, [r3, #0]
 80a2346:	6cdb      	ldr	r3, [r3, #76]	; 0x4c
 80a2348:	9301      	str	r3, [sp, #4]
 80a234a:	bd08      	pop	{r3, pc}
 80a234c:	080601d0 	.word	0x080601d0

080a2350 <os_mutex_recursive_unlock>:
DYNALIB_FN(20, hal_concurrent, os_mutex_recursive_trylock, int(os_mutex_recursive_t))
DYNALIB_FN(21, hal_concurrent, os_mutex_recursive_unlock, int(os_mutex_recursive_t))
 80a2350:	b508      	push	{r3, lr}
 80a2352:	4b02      	ldr	r3, [pc, #8]	; (80a235c <os_mutex_recursive_unlock+0xc>)
 80a2354:	681b      	ldr	r3, [r3, #0]
 80a2356:	6d5b      	ldr	r3, [r3, #84]	; 0x54
 80a2358:	9301      	str	r3, [sp, #4]
 80a235a:	bd08      	pop	{r3, pc}
 80a235c:	080601d0 	.word	0x080601d0

080a2360 <HAL_USART_Init>:
#define BASE_IDX 6 // Base index for all subsequent functions
#else
#define BASE_IDX 0
#endif

DYNALIB_FN(BASE_IDX + 0, hal_usart, HAL_USART_Init, void(HAL_USART_Serial, Ring_Buffer*, Ring_Buffer*))
 80a2360:	b508      	push	{r3, lr}
 80a2362:	4b02      	ldr	r3, [pc, #8]	; (80a236c <HAL_USART_Init+0xc>)
 80a2364:	681b      	ldr	r3, [r3, #0]
 80a2366:	699b      	ldr	r3, [r3, #24]
 80a2368:	9301      	str	r3, [sp, #4]
 80a236a:	bd08      	pop	{r3, pc}
 80a236c:	080601c4 	.word	0x080601c4

080a2370 <HAL_USART_End>:
DYNALIB_FN(BASE_IDX + 1, hal_usart, HAL_USART_Begin, void(HAL_USART_Serial, uint32_t))
DYNALIB_FN(BASE_IDX + 2, hal_usart, HAL_USART_End, void(HAL_USART_Serial))
 80a2370:	b508      	push	{r3, lr}
 80a2372:	4b02      	ldr	r3, [pc, #8]	; (80a237c <HAL_USART_End+0xc>)
 80a2374:	681b      	ldr	r3, [r3, #0]
 80a2376:	6a1b      	ldr	r3, [r3, #32]
 80a2378:	9301      	str	r3, [sp, #4]
 80a237a:	bd08      	pop	{r3, pc}
 80a237c:	080601c4 	.word	0x080601c4

080a2380 <HAL_USART_Write_Data>:
DYNALIB_FN(BASE_IDX + 3, hal_usart, HAL_USART_Write_Data, uint32_t(HAL_USART_Serial, uint8_t))
 80a2380:	b508      	push	{r3, lr}
 80a2382:	4b02      	ldr	r3, [pc, #8]	; (80a238c <HAL_USART_Write_Data+0xc>)
 80a2384:	681b      	ldr	r3, [r3, #0]
 80a2386:	6a5b      	ldr	r3, [r3, #36]	; 0x24
 80a2388:	9301      	str	r3, [sp, #4]
 80a238a:	bd08      	pop	{r3, pc}
 80a238c:	080601c4 	.word	0x080601c4

080a2390 <HAL_USART_Available_Data>:
DYNALIB_FN(BASE_IDX + 4, hal_usart, HAL_USART_Available_Data, int32_t(HAL_USART_Serial))
 80a2390:	b508      	push	{r3, lr}
 80a2392:	4b02      	ldr	r3, [pc, #8]	; (80a239c <HAL_USART_Available_Data+0xc>)
 80a2394:	681b      	ldr	r3, [r3, #0]
 80a2396:	6a9b      	ldr	r3, [r3, #40]	; 0x28
 80a2398:	9301      	str	r3, [sp, #4]
 80a239a:	bd08      	pop	{r3, pc}
 80a239c:	080601c4 	.word	0x080601c4

080a23a0 <HAL_USART_Read_Data>:
DYNALIB_FN(BASE_IDX + 5, hal_usart, HAL_USART_Read_Data, int32_t(HAL_USART_Serial))
 80a23a0:	b508      	push	{r3, lr}
 80a23a2:	4b02      	ldr	r3, [pc, #8]	; (80a23ac <HAL_USART_Read_Data+0xc>)
 80a23a4:	681b      	ldr	r3, [r3, #0]
 80a23a6:	6adb      	ldr	r3, [r3, #44]	; 0x2c
 80a23a8:	9301      	str	r3, [sp, #4]
 80a23aa:	bd08      	pop	{r3, pc}
 80a23ac:	080601c4 	.word	0x080601c4

080a23b0 <HAL_USART_Peek_Data>:
DYNALIB_FN(BASE_IDX + 6, hal_usart, HAL_USART_Peek_Data, int32_t(HAL_USART_Serial))
 80a23b0:	b508      	push	{r3, lr}
 80a23b2:	4b02      	ldr	r3, [pc, #8]	; (80a23bc <HAL_USART_Peek_Data+0xc>)
 80a23b4:	681b      	ldr	r3, [r3, #0]
 80a23b6:	6b1b      	ldr	r3, [r3, #48]	; 0x30
 80a23b8:	9301      	str	r3, [sp, #4]
 80a23ba:	bd08      	pop	{r3, pc}
 80a23bc:	080601c4 	.word	0x080601c4

080a23c0 <HAL_USART_Flush_Data>:
DYNALIB_FN(BASE_IDX + 7, hal_usart, HAL_USART_Flush_Data, void(HAL_USART_Serial))
 80a23c0:	b508      	push	{r3, lr}
 80a23c2:	4b02      	ldr	r3, [pc, #8]	; (80a23cc <HAL_USART_Flush_Data+0xc>)
 80a23c4:	681b      	ldr	r3, [r3, #0]
 80a23c6:	6b5b      	ldr	r3, [r3, #52]	; 0x34
 80a23c8:	9301      	str	r3, [sp, #4]
 80a23ca:	bd08      	pop	{r3, pc}
 80a23cc:	080601c4 	.word	0x080601c4

080a23d0 <HAL_USART_Is_Enabled>:
DYNALIB_FN(BASE_IDX + 8, hal_usart, HAL_USART_Is_Enabled, bool(HAL_USART_Serial))
 80a23d0:	b508      	push	{r3, lr}
 80a23d2:	4b02      	ldr	r3, [pc, #8]	; (80a23dc <HAL_USART_Is_Enabled+0xc>)
 80a23d4:	681b      	ldr	r3, [r3, #0]
 80a23d6:	6b9b      	ldr	r3, [r3, #56]	; 0x38
 80a23d8:	9301      	str	r3, [sp, #4]
 80a23da:	bd08      	pop	{r3, pc}
 80a23dc:	080601c4 	.word	0x080601c4

080a23e0 <HAL_USART_Available_Data_For_Write>:
DYNALIB_FN(BASE_IDX + 9, hal_usart, HAL_USART_Half_Duplex, void(HAL_USART_Serial, bool))
DYNALIB_FN(BASE_IDX + 10, hal_usart, HAL_USART_Available_Data_For_Write, int32_t(HAL_USART_Serial))
 80a23e0:	b508      	push	{r3, lr}
 80a23e2:	4b02      	ldr	r3, [pc, #8]	; (80a23ec <HAL_USART_Available_Data_For_Write+0xc>)
 80a23e4:	681b      	ldr	r3, [r3, #0]
 80a23e6:	6c1b      	ldr	r3, [r3, #64]	; 0x40
 80a23e8:	9301      	str	r3, [sp, #4]
 80a23ea:	bd08      	pop	{r3, pc}
 80a23ec:	080601c4 	.word	0x080601c4

080a23f0 <HAL_USART_BeginConfig>:
#define BASE_IDX2 (BASE_IDX+13)
#else
#define BASE_IDX2 (BASE_IDX+11)
#endif

DYNALIB_FN(BASE_IDX2 + 0, hal_usart, HAL_USART_BeginConfig, void(HAL_USART_Serial serial, uint32_t baud, uint32_t config, void *ptr))
 80a23f0:	b508      	push	{r3, lr}
 80a23f2:	4b02      	ldr	r3, [pc, #8]	; (80a23fc <HAL_USART_BeginConfig+0xc>)
 80a23f4:	681b      	ldr	r3, [r3, #0]
 80a23f6:	6cdb      	ldr	r3, [r3, #76]	; 0x4c
 80a23f8:	9301      	str	r3, [sp, #4]
 80a23fa:	bd08      	pop	{r3, pc}
 80a23fc:	080601c4 	.word	0x080601c4

080a2400 <HAL_I2C_Set_Speed>:
#define BASE_IDX 16 // Base index for all subsequent functions
#else
#define BASE_IDX 0
#endif

DYNALIB_FN(BASE_IDX + 0, hal_i2c, HAL_I2C_Set_Speed, void(HAL_I2C_Interface, uint32_t, void*))
 80a2400:	b508      	push	{r3, lr}
 80a2402:	4b02      	ldr	r3, [pc, #8]	; (80a240c <HAL_I2C_Set_Speed+0xc>)
 80a2404:	681b      	ldr	r3, [r3, #0]
 80a2406:	6c1b      	ldr	r3, [r3, #64]	; 0x40
 80a2408:	9301      	str	r3, [sp, #4]
 80a240a:	bd08      	pop	{r3, pc}
 80a240c:	080601ac 	.word	0x080601ac

080a2410 <HAL_I2C_Begin>:
DYNALIB_FN(BASE_IDX + 1, hal_i2c, HAL_I2C_Enable_DMA_Mode, void(HAL_I2C_Interface, bool, void*))
DYNALIB_FN(BASE_IDX + 2, hal_i2c, HAL_I2C_Stretch_Clock, void(HAL_I2C_Interface, bool, void*))
DYNALIB_FN(BASE_IDX + 3, hal_i2c, HAL_I2C_Begin, void(HAL_I2C_Interface, I2C_Mode, uint8_t, void*))
 80a2410:	b508      	push	{r3, lr}
 80a2412:	4b02      	ldr	r3, [pc, #8]	; (80a241c <HAL_I2C_Begin+0xc>)
 80a2414:	681b      	ldr	r3, [r3, #0]
 80a2416:	6cdb      	ldr	r3, [r3, #76]	; 0x4c
 80a2418:	9301      	str	r3, [sp, #4]
 80a241a:	bd08      	pop	{r3, pc}
 80a241c:	080601ac 	.word	0x080601ac

080a2420 <HAL_I2C_Begin_Transmission>:
DYNALIB_FN(BASE_IDX + 4, hal_i2c, HAL_I2C_End, void(HAL_I2C_Interface, void*))
DYNALIB_FN(BASE_IDX + 5, hal_i2c, HAL_I2C_Request_Data, uint32_t(HAL_I2C_Interface, uint8_t, uint8_t, uint8_t, void*))
DYNALIB_FN(BASE_IDX + 6, hal_i2c, HAL_I2C_Begin_Transmission, void(HAL_I2C_Interface, uint8_t, const HAL_I2C_Transmission_Config*))
 80a2420:	b508      	push	{r3, lr}
 80a2422:	4b02      	ldr	r3, [pc, #8]	; (80a242c <HAL_I2C_Begin_Transmission+0xc>)
 80a2424:	681b      	ldr	r3, [r3, #0]
 80a2426:	6d9b      	ldr	r3, [r3, #88]	; 0x58
 80a2428:	9301      	str	r3, [sp, #4]
 80a242a:	bd08      	pop	{r3, pc}
 80a242c:	080601ac 	.word	0x080601ac

080a2430 <HAL_I2C_End_Transmission>:
DYNALIB_FN(BASE_IDX + 7, hal_i2c, HAL_I2C_End_Transmission, uint8_t(HAL_I2C_Interface, uint8_t, void*))
 80a2430:	b508      	push	{r3, lr}
 80a2432:	4b02      	ldr	r3, [pc, #8]	; (80a243c <HAL_I2C_End_Transmission+0xc>)
 80a2434:	681b      	ldr	r3, [r3, #0]
 80a2436:	6ddb      	ldr	r3, [r3, #92]	; 0x5c
 80a2438:	9301      	str	r3, [sp, #4]
 80a243a:	bd08      	pop	{r3, pc}
 80a243c:	080601ac 	.word	0x080601ac

080a2440 <HAL_I2C_Write_Data>:
DYNALIB_FN(BASE_IDX + 8, hal_i2c, HAL_I2C_Write_Data, uint32_t(HAL_I2C_Interface, uint8_t, void*))
 80a2440:	b508      	push	{r3, lr}
 80a2442:	4b02      	ldr	r3, [pc, #8]	; (80a244c <HAL_I2C_Write_Data+0xc>)
 80a2444:	681b      	ldr	r3, [r3, #0]
 80a2446:	6e1b      	ldr	r3, [r3, #96]	; 0x60
 80a2448:	9301      	str	r3, [sp, #4]
 80a244a:	bd08      	pop	{r3, pc}
 80a244c:	080601ac 	.word	0x080601ac

080a2450 <HAL_I2C_Available_Data>:
DYNALIB_FN(BASE_IDX + 9, hal_i2c, HAL_I2C_Available_Data, int32_t(HAL_I2C_Interface, void*))
 80a2450:	b508      	push	{r3, lr}
 80a2452:	4b02      	ldr	r3, [pc, #8]	; (80a245c <HAL_I2C_Available_Data+0xc>)
 80a2454:	681b      	ldr	r3, [r3, #0]
 80a2456:	6e5b      	ldr	r3, [r3, #100]	; 0x64
 80a2458:	9301      	str	r3, [sp, #4]
 80a245a:	bd08      	pop	{r3, pc}
 80a245c:	080601ac 	.word	0x080601ac

080a2460 <HAL_I2C_Read_Data>:
DYNALIB_FN(BASE_IDX + 10, hal_i2c, HAL_I2C_Read_Data, int32_t(HAL_I2C_Interface, void*))
 80a2460:	b508      	push	{r3, lr}
 80a2462:	4b02      	ldr	r3, [pc, #8]	; (80a246c <HAL_I2C_Read_Data+0xc>)
 80a2464:	681b      	ldr	r3, [r3, #0]
 80a2466:	6e9b      	ldr	r3, [r3, #104]	; 0x68
 80a2468:	9301      	str	r3, [sp, #4]
 80a246a:	bd08      	pop	{r3, pc}
 80a246c:	080601ac 	.word	0x080601ac

080a2470 <HAL_I2C_Peek_Data>:
DYNALIB_FN(BASE_IDX + 11, hal_i2c, HAL_I2C_Peek_Data, int32_t(HAL_I2C_Interface, void*))
 80a2470:	b508      	push	{r3, lr}
 80a2472:	4b02      	ldr	r3, [pc, #8]	; (80a247c <HAL_I2C_Peek_Data+0xc>)
 80a2474:	681b      	ldr	r3, [r3, #0]
 80a2476:	6edb      	ldr	r3, [r3, #108]	; 0x6c
 80a2478:	9301      	str	r3, [sp, #4]
 80a247a:	bd08      	pop	{r3, pc}
 80a247c:	080601ac 	.word	0x080601ac

080a2480 <HAL_I2C_Flush_Data>:
DYNALIB_FN(BASE_IDX + 12, hal_i2c, HAL_I2C_Flush_Data, void(HAL_I2C_Interface, void*))
 80a2480:	b508      	push	{r3, lr}
 80a2482:	4b02      	ldr	r3, [pc, #8]	; (80a248c <HAL_I2C_Flush_Data+0xc>)
 80a2484:	681b      	ldr	r3, [r3, #0]
 80a2486:	6f1b      	ldr	r3, [r3, #112]	; 0x70
 80a2488:	9301      	str	r3, [sp, #4]
 80a248a:	bd08      	pop	{r3, pc}
 80a248c:	080601ac 	.word	0x080601ac

080a2490 <HAL_I2C_Is_Enabled>:
DYNALIB_FN(BASE_IDX + 13, hal_i2c, HAL_I2C_Is_Enabled, bool(HAL_I2C_Interface, void*))
 80a2490:	b508      	push	{r3, lr}
 80a2492:	4b02      	ldr	r3, [pc, #8]	; (80a249c <HAL_I2C_Is_Enabled+0xc>)
 80a2494:	681b      	ldr	r3, [r3, #0]
 80a2496:	6f5b      	ldr	r3, [r3, #116]	; 0x74
 80a2498:	9301      	str	r3, [sp, #4]
 80a249a:	bd08      	pop	{r3, pc}
 80a249c:	080601ac 	.word	0x080601ac

080a24a0 <HAL_I2C_Init>:
DYNALIB_FN(BASE_IDX + 14, hal_i2c, HAL_I2C_Set_Callback_On_Receive, void(HAL_I2C_Interface, void(*)(int), void*))
DYNALIB_FN(BASE_IDX + 15, hal_i2c, HAL_I2C_Set_Callback_On_Request, void(HAL_I2C_Interface, void(*)(void), void*))
DYNALIB_FN(BASE_IDX + 16, hal_i2c, HAL_I2C_Init, int(HAL_I2C_Interface, const HAL_I2C_Config*))
 80a24a0:	b508      	push	{r3, lr}
 80a24a2:	4b03      	ldr	r3, [pc, #12]	; (80a24b0 <HAL_I2C_Init+0x10>)
 80a24a4:	681b      	ldr	r3, [r3, #0]
 80a24a6:	f8d3 3080 	ldr.w	r3, [r3, #128]	; 0x80
 80a24aa:	9301      	str	r3, [sp, #4]
 80a24ac:	bd08      	pop	{r3, pc}
 80a24ae:	0000      	.short	0x0000
 80a24b0:	080601ac 	.word	0x080601ac

080a24b4 <HAL_USB_USART_Init>:
#endif

DYNALIB_BEGIN(hal_usb)

#ifdef USB_CDC_ENABLE
DYNALIB_FN(0, hal_usb, HAL_USB_USART_Init, void(HAL_USB_USART_Serial, const HAL_USB_USART_Config*))
 80a24b4:	b508      	push	{r3, lr}
 80a24b6:	4b02      	ldr	r3, [pc, #8]	; (80a24c0 <HAL_USB_USART_Init+0xc>)
 80a24b8:	681b      	ldr	r3, [r3, #0]
 80a24ba:	681b      	ldr	r3, [r3, #0]
 80a24bc:	9301      	str	r3, [sp, #4]
 80a24be:	bd08      	pop	{r3, pc}
 80a24c0:	080601d8 	.word	0x080601d8

080a24c4 <HAL_USB_USART_Available_Data>:
DYNALIB_FN(1, hal_usb, HAL_USB_USART_Begin, void(HAL_USB_USART_Serial, uint32_t, void *))
DYNALIB_FN(2, hal_usb, HAL_USB_USART_End, void(HAL_USB_USART_Serial))
DYNALIB_FN(3, hal_usb, HAL_USB_USART_Baud_Rate, unsigned int(HAL_USB_USART_Serial))
DYNALIB_FN(4, hal_usb, HAL_USB_USART_Available_Data, int32_t(HAL_USB_USART_Serial))
 80a24c4:	b508      	push	{r3, lr}
 80a24c6:	4b02      	ldr	r3, [pc, #8]	; (80a24d0 <HAL_USB_USART_Available_Data+0xc>)
 80a24c8:	681b      	ldr	r3, [r3, #0]
 80a24ca:	691b      	ldr	r3, [r3, #16]
 80a24cc:	9301      	str	r3, [sp, #4]
 80a24ce:	bd08      	pop	{r3, pc}
 80a24d0:	080601d8 	.word	0x080601d8

080a24d4 <HAL_USB_USART_Available_Data_For_Write>:
DYNALIB_FN(5, hal_usb, HAL_USB_USART_Available_Data_For_Write, int32_t(HAL_USB_USART_Serial))
 80a24d4:	b508      	push	{r3, lr}
 80a24d6:	4b02      	ldr	r3, [pc, #8]	; (80a24e0 <HAL_USB_USART_Available_Data_For_Write+0xc>)
 80a24d8:	681b      	ldr	r3, [r3, #0]
 80a24da:	695b      	ldr	r3, [r3, #20]
 80a24dc:	9301      	str	r3, [sp, #4]
 80a24de:	bd08      	pop	{r3, pc}
 80a24e0:	080601d8 	.word	0x080601d8

080a24e4 <HAL_USB_USART_Receive_Data>:
DYNALIB_FN(6, hal_usb, HAL_USB_USART_Receive_Data, int32_t(HAL_USB_USART_Serial, uint8_t))
 80a24e4:	b508      	push	{r3, lr}
 80a24e6:	4b02      	ldr	r3, [pc, #8]	; (80a24f0 <HAL_USB_USART_Receive_Data+0xc>)
 80a24e8:	681b      	ldr	r3, [r3, #0]
 80a24ea:	699b      	ldr	r3, [r3, #24]
 80a24ec:	9301      	str	r3, [sp, #4]
 80a24ee:	bd08      	pop	{r3, pc}
 80a24f0:	080601d8 	.word	0x080601d8

080a24f4 <HAL_USB_USART_Send_Data>:
DYNALIB_FN(7, hal_usb, HAL_USB_USART_Send_Data, int32_t(HAL_USB_USART_Serial, uint8_t))
 80a24f4:	b508      	push	{r3, lr}
 80a24f6:	4b02      	ldr	r3, [pc, #8]	; (80a2500 <HAL_USB_USART_Send_Data+0xc>)
 80a24f8:	681b      	ldr	r3, [r3, #0]
 80a24fa:	69db      	ldr	r3, [r3, #28]
 80a24fc:	9301      	str	r3, [sp, #4]
 80a24fe:	bd08      	pop	{r3, pc}
 80a2500:	080601d8 	.word	0x080601d8

080a2504 <HAL_USB_USART_Flush_Data>:
DYNALIB_FN(8, hal_usb, HAL_USB_USART_Flush_Data, void(HAL_USB_USART_Serial))
 80a2504:	b508      	push	{r3, lr}
 80a2506:	4b02      	ldr	r3, [pc, #8]	; (80a2510 <HAL_USB_USART_Flush_Data+0xc>)
 80a2508:	681b      	ldr	r3, [r3, #0]
 80a250a:	6a1b      	ldr	r3, [r3, #32]
 80a250c:	9301      	str	r3, [sp, #4]
 80a250e:	bd08      	pop	{r3, pc}
 80a2510:	080601d8 	.word	0x080601d8

080a2514 <inet_gethostbyname>:
DYNALIB_FN(14, hal_wlan, wlan_set_error_count, void(uint32_t))
DYNALIB_FN(15, hal_wlan, wlan_fetch_ipconfig, int(WLanConfig*))
DYNALIB_FN(16, hal_wlan, wlan_setup, void(void))

DYNALIB_FN(17, hal_wlan, HAL_NET_SetNetWatchDog, uint32_t(uint32_t))
DYNALIB_FN(18, hal_wlan, inet_gethostbyname, int(const char*, uint16_t, HAL_IPAddress*, network_interface_t, void*))
 80a2514:	b508      	push	{r3, lr}
 80a2516:	4b02      	ldr	r3, [pc, #8]	; (80a2520 <inet_gethostbyname+0xc>)
 80a2518:	681b      	ldr	r3, [r3, #0]
 80a251a:	6c9b      	ldr	r3, [r3, #72]	; 0x48
 80a251c:	9301      	str	r3, [sp, #4]
 80a251e:	bd08      	pop	{r3, pc}
 80a2520:	080601c0 	.word	0x080601c0

080a2524 <panic_>:
DYNALIB_FN(9, services, LED_Toggle, void(Led_TypeDef))
DYNALIB_FN(10, services, LED_Fade, void(Led_TypeDef))
DYNALIB_FN(11, services, Get_LED_Brightness, uint8_t(void))

DYNALIB_FN(12, services, set_logger_output, void(debug_output_fn, LoggerOutputLevel)) // Deprecated
DYNALIB_FN(13, services, panic_, void(ePanicCode, void*, void(*)(uint32_t)))
 80a2524:	b508      	push	{r3, lr}
 80a2526:	4b02      	ldr	r3, [pc, #8]	; (80a2530 <panic_+0xc>)
 80a2528:	681b      	ldr	r3, [r3, #0]
 80a252a:	6b5b      	ldr	r3, [r3, #52]	; 0x34
 80a252c:	9301      	str	r3, [sp, #4]
 80a252e:	bd08      	pop	{r3, pc}
 80a2530:	080201a8 	.word	0x080201a8

080a2534 <set_system_mode>:
#endif

DYNALIB_BEGIN(system)

DYNALIB_FN(0, system, system_mode, System_Mode_TypeDef(void))
DYNALIB_FN(1, system, set_system_mode, void(System_Mode_TypeDef))
 80a2534:	b508      	push	{r3, lr}
 80a2536:	4b02      	ldr	r3, [pc, #8]	; (80a2540 <set_system_mode+0xc>)
 80a2538:	681b      	ldr	r3, [r3, #0]
 80a253a:	685b      	ldr	r3, [r3, #4]
 80a253c:	9301      	str	r3, [sp, #4]
 80a253e:	bd08      	pop	{r3, pc}
 80a2540:	080601a4 	.word	0x080601a4

080a2544 <system_delay_ms>:

DYNALIB_FN(2, system, set_ymodem_serial_flash_update_handler, void(ymodem_serial_flash_update_handler))
DYNALIB_FN(3, system, system_firmwareUpdate, bool(Stream*, void*))
DYNALIB_FN(4, system, system_fileTransfer, bool(system_file_transfer_t*, void*))

DYNALIB_FN(5, system, system_delay_ms, void(unsigned long, bool))
 80a2544:	b508      	push	{r3, lr}
 80a2546:	4b02      	ldr	r3, [pc, #8]	; (80a2550 <system_delay_ms+0xc>)
 80a2548:	681b      	ldr	r3, [r3, #0]
 80a254a:	695b      	ldr	r3, [r3, #20]
 80a254c:	9301      	str	r3, [sp, #4]
 80a254e:	bd08      	pop	{r3, pc}
 80a2550:	080601a4 	.word	0x080601a4

080a2554 <system_thread_set_state>:
DYNALIB_FN(6, system, system_sleep, int(Spark_Sleep_TypeDef, long, uint32_t, void*))
DYNALIB_FN(7, system, system_sleep_pin, int(uint16_t, uint16_t, long, uint32_t, void*))
DYNALIB_FN(8, system, system_subscribe_event, int(system_event_t, system_event_handler_t*, void*))
DYNALIB_FN(9, system, system_unsubscribe_event, void(system_event_t, system_event_handler_t*, void*))
DYNALIB_FN(10, system, system_button_pushed_duration, uint16_t(uint8_t, void*))
DYNALIB_FN(11, system, system_thread_set_state, void(spark::feature::State, void*))
 80a2554:	b508      	push	{r3, lr}
 80a2556:	4b02      	ldr	r3, [pc, #8]	; (80a2560 <system_thread_set_state+0xc>)
 80a2558:	681b      	ldr	r3, [r3, #0]
 80a255a:	6adb      	ldr	r3, [r3, #44]	; 0x2c
 80a255c:	9301      	str	r3, [sp, #4]
 80a255e:	bd08      	pop	{r3, pc}
 80a2560:	080601a4 	.word	0x080601a4

080a2564 <application_thread_current>:
DYNALIB_FN(15, system, system_get_flag, int(system_flag_t, uint8_t*, void*))
DYNALIB_FN(16, system, Spark_Prepare_For_Firmware_Update, int(FileTransfer::Descriptor&, uint32_t, void*))
DYNALIB_FN(17, system, Spark_Save_Firmware_Chunk, int(FileTransfer::Descriptor&, const uint8_t*, void*))
DYNALIB_FN(18, system, Spark_Finish_Firmware_Update, int(FileTransfer::Descriptor&, uint32_t, void*))

DYNALIB_FN(19, system, application_thread_current, uint8_t(void*))
 80a2564:	b508      	push	{r3, lr}
 80a2566:	4b02      	ldr	r3, [pc, #8]	; (80a2570 <application_thread_current+0xc>)
 80a2568:	681b      	ldr	r3, [r3, #0]
 80a256a:	6cdb      	ldr	r3, [r3, #76]	; 0x4c
 80a256c:	9301      	str	r3, [sp, #4]
 80a256e:	bd08      	pop	{r3, pc}
 80a2570:	080601a4 	.word	0x080601a4

080a2574 <application_thread_invoke>:
DYNALIB_FN(20, system, system_thread_current, uint8_t(void*))
DYNALIB_FN(21, system, application_thread_invoke, uint8_t(void(*)(void*), void*, void*))
 80a2574:	b508      	push	{r3, lr}
 80a2576:	4b02      	ldr	r3, [pc, #8]	; (80a2580 <application_thread_invoke+0xc>)
 80a2578:	681b      	ldr	r3, [r3, #0]
 80a257a:	6d5b      	ldr	r3, [r3, #84]	; 0x54
 80a257c:	9301      	str	r3, [sp, #4]
 80a257e:	bd08      	pop	{r3, pc}
 80a2580:	080601a4 	.word	0x080601a4

080a2584 <system_ctrl_set_app_request_handler>:
DYNALIB_FN(BASE_IDX + 6, system, led_pattern_period, uint16_t(int, int, void*))
DYNALIB_FN(BASE_IDX + 7, system, system_set_tester_handlers, int(system_tester_handlers_t*, void*))
DYNALIB_FN(BASE_IDX + 8, system, system_format_diag_data, int(const uint16_t*, size_t, unsigned, appender_fn, void*, void*))

// Control requests
DYNALIB_FN(BASE_IDX + 9, system, system_ctrl_set_app_request_handler, int(ctrl_request_handler_fn, void*))
 80a2584:	b508      	push	{r3, lr}
 80a2586:	4b03      	ldr	r3, [pc, #12]	; (80a2594 <system_ctrl_set_app_request_handler+0x10>)
 80a2588:	681b      	ldr	r3, [r3, #0]
 80a258a:	f8d3 3090 	ldr.w	r3, [r3, #144]	; 0x90
 80a258e:	9301      	str	r3, [sp, #4]
 80a2590:	bd08      	pop	{r3, pc}
 80a2592:	0000      	.short	0x0000
 80a2594:	080601a4 	.word	0x080601a4

080a2598 <system_ctrl_set_result>:
DYNALIB_FN(BASE_IDX + 10, system, system_ctrl_alloc_reply_data, int(ctrl_request*, size_t, void*))
DYNALIB_FN(BASE_IDX + 11, system, system_ctrl_free_request_data, void(ctrl_request*, void*))
DYNALIB_FN(BASE_IDX + 12, system, system_ctrl_set_result, void(ctrl_request*, int, ctrl_completion_handler_fn, void*, void*))
 80a2598:	b508      	push	{r3, lr}
 80a259a:	4b03      	ldr	r3, [pc, #12]	; (80a25a8 <system_ctrl_set_result+0x10>)
 80a259c:	681b      	ldr	r3, [r3, #0]
 80a259e:	f8d3 309c 	ldr.w	r3, [r3, #156]	; 0x9c
 80a25a2:	9301      	str	r3, [sp, #4]
 80a25a4:	bd08      	pop	{r3, pc}
 80a25a6:	0000      	.short	0x0000
 80a25a8:	080601a4 	.word	0x080601a4

080a25ac <network_connect>:
#endif

DYNALIB_BEGIN(system_net)

DYNALIB_FN(0, system_net, network_config, const void*(network_handle_t, uint32_t, void*))
DYNALIB_FN(1, system_net, network_connect, void(network_handle_t, uint32_t, uint32_t, void*))
 80a25ac:	b508      	push	{r3, lr}
 80a25ae:	4b02      	ldr	r3, [pc, #8]	; (80a25b8 <network_connect+0xc>)
 80a25b0:	681b      	ldr	r3, [r3, #0]
 80a25b2:	685b      	ldr	r3, [r3, #4]
 80a25b4:	9301      	str	r3, [sp, #4]
 80a25b6:	bd08      	pop	{r3, pc}
 80a25b8:	080601c8 	.word	0x080601c8

080a25bc <network_connecting>:
DYNALIB_FN(2, system_net, network_connecting, bool(network_handle_t, uint32_t, void*))
 80a25bc:	b508      	push	{r3, lr}
 80a25be:	4b02      	ldr	r3, [pc, #8]	; (80a25c8 <network_connecting+0xc>)
 80a25c0:	681b      	ldr	r3, [r3, #0]
 80a25c2:	689b      	ldr	r3, [r3, #8]
 80a25c4:	9301      	str	r3, [sp, #4]
 80a25c6:	bd08      	pop	{r3, pc}
 80a25c8:	080601c8 	.word	0x080601c8

080a25cc <network_disconnect>:
DYNALIB_FN(3, system_net, network_disconnect, void(network_handle_t, uint32_t, void*))
 80a25cc:	b508      	push	{r3, lr}
 80a25ce:	4b02      	ldr	r3, [pc, #8]	; (80a25d8 <network_disconnect+0xc>)
 80a25d0:	681b      	ldr	r3, [r3, #0]
 80a25d2:	68db      	ldr	r3, [r3, #12]
 80a25d4:	9301      	str	r3, [sp, #4]
 80a25d6:	bd08      	pop	{r3, pc}
 80a25d8:	080601c8 	.word	0x080601c8

080a25dc <network_ready>:
DYNALIB_FN(4, system_net, network_ready, bool(network_handle_t, uint32_t, void*))
 80a25dc:	b508      	push	{r3, lr}
 80a25de:	4b02      	ldr	r3, [pc, #8]	; (80a25e8 <network_ready+0xc>)
 80a25e0:	681b      	ldr	r3, [r3, #0]
 80a25e2:	691b      	ldr	r3, [r3, #16]
 80a25e4:	9301      	str	r3, [sp, #4]
 80a25e6:	bd08      	pop	{r3, pc}
 80a25e8:	080601c8 	.word	0x080601c8

080a25ec <network_on>:
DYNALIB_FN(5, system_net, network_on, void(network_handle_t, uint32_t, uint32_t, void*))
 80a25ec:	b508      	push	{r3, lr}
 80a25ee:	4b02      	ldr	r3, [pc, #8]	; (80a25f8 <network_on+0xc>)
 80a25f0:	681b      	ldr	r3, [r3, #0]
 80a25f2:	695b      	ldr	r3, [r3, #20]
 80a25f4:	9301      	str	r3, [sp, #4]
 80a25f6:	bd08      	pop	{r3, pc}
 80a25f8:	080601c8 	.word	0x080601c8

080a25fc <network_off>:
DYNALIB_FN(6, system_net, network_off, void(network_handle_t, uint32_t, uint32_t, void*))
 80a25fc:	b508      	push	{r3, lr}
 80a25fe:	4b02      	ldr	r3, [pc, #8]	; (80a2608 <network_off+0xc>)
 80a2600:	681b      	ldr	r3, [r3, #0]
 80a2602:	699b      	ldr	r3, [r3, #24]
 80a2604:	9301      	str	r3, [sp, #4]
 80a2606:	bd08      	pop	{r3, pc}
 80a2608:	080601c8 	.word	0x080601c8

080a260c <network_listen>:
DYNALIB_FN(7, system_net, network_listen, void(network_handle_t, uint32_t, void*))
 80a260c:	b508      	push	{r3, lr}
 80a260e:	4b02      	ldr	r3, [pc, #8]	; (80a2618 <network_listen+0xc>)
 80a2610:	681b      	ldr	r3, [r3, #0]
 80a2612:	69db      	ldr	r3, [r3, #28]
 80a2614:	9301      	str	r3, [sp, #4]
 80a2616:	bd08      	pop	{r3, pc}
 80a2618:	080601c8 	.word	0x080601c8

080a261c <network_listening>:
DYNALIB_FN(8, system_net, network_listening, bool(network_handle_t, uint32_t, void*))
 80a261c:	b508      	push	{r3, lr}
 80a261e:	4b02      	ldr	r3, [pc, #8]	; (80a2628 <network_listening+0xc>)
 80a2620:	681b      	ldr	r3, [r3, #0]
 80a2622:	6a1b      	ldr	r3, [r3, #32]
 80a2624:	9301      	str	r3, [sp, #4]
 80a2626:	bd08      	pop	{r3, pc}
 80a2628:	080601c8 	.word	0x080601c8

080a262c <network_set_listen_timeout>:
DYNALIB_FN(9, system_net, network_has_credentials, bool(network_handle_t, uint32_t, void*))
DYNALIB_FN(10, system_net, network_set_credentials, int(network_handle_t, uint32_t, NetworkCredentials*, void*))
DYNALIB_FN(11, system_net, network_clear_credentials, bool(network_handle_t, uint32_t, NetworkCredentials*, void*))
DYNALIB_FN(12, system_net, network_set_listen_timeout, void(network_handle_t, uint16_t, void*))
 80a262c:	b508      	push	{r3, lr}
 80a262e:	4b02      	ldr	r3, [pc, #8]	; (80a2638 <network_set_listen_timeout+0xc>)
 80a2630:	681b      	ldr	r3, [r3, #0]
 80a2632:	6b1b      	ldr	r3, [r3, #48]	; 0x30
 80a2634:	9301      	str	r3, [sp, #4]
 80a2636:	bd08      	pop	{r3, pc}
 80a2638:	080601c8 	.word	0x080601c8

080a263c <network_get_listen_timeout>:
DYNALIB_FN(13, system_net, network_get_listen_timeout, uint16_t(network_handle_t, uint32_t, void*))
 80a263c:	b508      	push	{r3, lr}
 80a263e:	4b02      	ldr	r3, [pc, #8]	; (80a2648 <network_get_listen_timeout+0xc>)
 80a2640:	681b      	ldr	r3, [r3, #0]
 80a2642:	6b5b      	ldr	r3, [r3, #52]	; 0x34
 80a2644:	9301      	str	r3, [sp, #4]
 80a2646:	bd08      	pop	{r3, pc}
 80a2648:	080601c8 	.word	0x080601c8

080a264c <spark_variable>:
#endif


DYNALIB_BEGIN(system_cloud)

DYNALIB_FN(0, system_cloud, spark_variable, bool(const char*, const void*, Spark_Data_TypeDef, spark_variable_t*))
 80a264c:	b508      	push	{r3, lr}
 80a264e:	4b02      	ldr	r3, [pc, #8]	; (80a2658 <spark_variable+0xc>)
 80a2650:	681b      	ldr	r3, [r3, #0]
 80a2652:	681b      	ldr	r3, [r3, #0]
 80a2654:	9301      	str	r3, [sp, #4]
 80a2656:	bd08      	pop	{r3, pc}
 80a2658:	080601cc 	.word	0x080601cc

080a265c <spark_process>:
DYNALIB_FN(1, system_cloud, spark_function, bool(const char*, p_user_function_int_str_t, void*))
DYNALIB_FN(2, system_cloud, spark_process, void(void))
 80a265c:	b508      	push	{r3, lr}
 80a265e:	4b02      	ldr	r3, [pc, #8]	; (80a2668 <spark_process+0xc>)
 80a2660:	681b      	ldr	r3, [r3, #0]
 80a2662:	689b      	ldr	r3, [r3, #8]
 80a2664:	9301      	str	r3, [sp, #4]
 80a2666:	bd08      	pop	{r3, pc}
 80a2668:	080601cc 	.word	0x080601cc

080a266c <spark_cloud_flag_connected>:
DYNALIB_FN(3, system_cloud, spark_cloud_flag_connect, void(void))
DYNALIB_FN(4, system_cloud, spark_cloud_flag_disconnect, void(void))
DYNALIB_FN(5, system_cloud, spark_cloud_flag_connected, bool(void))
 80a266c:	b508      	push	{r3, lr}
 80a266e:	4b02      	ldr	r3, [pc, #8]	; (80a2678 <spark_cloud_flag_connected+0xc>)
 80a2670:	681b      	ldr	r3, [r3, #0]
 80a2672:	695b      	ldr	r3, [r3, #20]
 80a2674:	9301      	str	r3, [sp, #4]
 80a2676:	bd08      	pop	{r3, pc}
 80a2678:	080601cc 	.word	0x080601cc

080a267c <spark_send_event>:
DYNALIB_FN(6, system_cloud, system_cloud_protocol_instance, ProtocolFacade*(void))
DYNALIB_FN(7, system_cloud, spark_deviceID, String(void))
DYNALIB_FN(8, system_cloud, spark_send_event, bool(const char*, const char*, int, uint32_t, void*))
 80a267c:	b508      	push	{r3, lr}
 80a267e:	4b02      	ldr	r3, [pc, #8]	; (80a2688 <spark_send_event+0xc>)
 80a2680:	681b      	ldr	r3, [r3, #0]
 80a2682:	6a1b      	ldr	r3, [r3, #32]
 80a2684:	9301      	str	r3, [sp, #4]
 80a2686:	bd08      	pop	{r3, pc}
 80a2688:	080601cc 	.word	0x080601cc

080a268c <spark_set_random_seed_from_cloud_handler>:
DYNALIB_FN(10, system_cloud, spark_unsubscribe, void(void*))
DYNALIB_FN(11, system_cloud, spark_sync_time, bool(void*))
DYNALIB_FN(12, system_cloud, spark_sync_time_pending, bool(void*))
DYNALIB_FN(13, system_cloud, spark_sync_time_last, system_tick_t(time_t*, void*))
DYNALIB_FN(14, system_cloud, spark_set_connection_property, int(unsigned, unsigned, particle::protocol::connection_properties_t*, void*))
DYNALIB_FN(15, system_cloud, spark_set_random_seed_from_cloud_handler, int(void (*handler)(unsigned int), void*))
 80a268c:	b508      	push	{r3, lr}
 80a268e:	4b02      	ldr	r3, [pc, #8]	; (80a2698 <spark_set_random_seed_from_cloud_handler+0xc>)
 80a2690:	681b      	ldr	r3, [r3, #0]
 80a2692:	6bdb      	ldr	r3, [r3, #60]	; 0x3c
 80a2694:	9301      	str	r3, [sp, #4]
 80a2696:	bd08      	pop	{r3, pc}
 80a2698:	080601cc 	.word	0x080601cc

080a269c <malloc>:
#include <assert.h>
#endif

DYNALIB_BEGIN(rt)

DYNALIB_FN(0, rt, malloc, void*(size_t))
 80a269c:	b508      	push	{r3, lr}
 80a269e:	4b02      	ldr	r3, [pc, #8]	; (80a26a8 <malloc+0xc>)
 80a26a0:	681b      	ldr	r3, [r3, #0]
 80a26a2:	681b      	ldr	r3, [r3, #0]
 80a26a4:	9301      	str	r3, [sp, #4]
 80a26a6:	bd08      	pop	{r3, pc}
 80a26a8:	080601a0 	.word	0x080601a0

080a26ac <free>:
DYNALIB_FN(1, rt, free, void(void*))
 80a26ac:	b508      	push	{r3, lr}
 80a26ae:	4b02      	ldr	r3, [pc, #8]	; (80a26b8 <free+0xc>)
 80a26b0:	681b      	ldr	r3, [r3, #0]
 80a26b2:	685b      	ldr	r3, [r3, #4]
 80a26b4:	9301      	str	r3, [sp, #4]
 80a26b6:	bd08      	pop	{r3, pc}
 80a26b8:	080601a0 	.word	0x080601a0

080a26bc <vsnprintf>:
DYNALIB_FN(4, rt, siprintf, int(char*, const char*, ...))
DYNALIB_FN(5, rt, sscanf, int(const char*, const char*, ...))
DYNALIB_FN(6, rt, siscanf, int(const char*, const char*, ...))
DYNALIB_FN(7, rt, snprintf, int(char*, size_t, const char*, ...))
DYNALIB_FN(8, rt, sniprintf, int(char*, size_t, const char*, ...))
DYNALIB_FN(9, rt, vsnprintf, int(char*, size_t, const char*, va_list))
 80a26bc:	b508      	push	{r3, lr}
 80a26be:	4b02      	ldr	r3, [pc, #8]	; (80a26c8 <vsnprintf+0xc>)
 80a26c0:	681b      	ldr	r3, [r3, #0]
 80a26c2:	6a5b      	ldr	r3, [r3, #36]	; 0x24
 80a26c4:	9301      	str	r3, [sp, #4]
 80a26c6:	bd08      	pop	{r3, pc}
 80a26c8:	080601a0 	.word	0x080601a0

080a26cc <abort>:
DYNALIB_FN(10, rt, vsniprintf, int(char*, size_t, const char*, va_list))
DYNALIB_FN(11, rt, abort, void(void))
 80a26cc:	b508      	push	{r3, lr}
 80a26ce:	4b02      	ldr	r3, [pc, #8]	; (80a26d8 <abort+0xc>)
 80a26d0:	681b      	ldr	r3, [r3, #0]
 80a26d2:	6adb      	ldr	r3, [r3, #44]	; 0x2c
 80a26d4:	9301      	str	r3, [sp, #4]
 80a26d6:	bd08      	pop	{r3, pc}
 80a26d8:	080601a0 	.word	0x080601a0

080a26dc <_malloc_r>:
DYNALIB_FN(12, rt, _malloc_r, void*(struct _reent*, size_t))
 80a26dc:	b508      	push	{r3, lr}
 80a26de:	4b02      	ldr	r3, [pc, #8]	; (80a26e8 <_malloc_r+0xc>)
 80a26e0:	681b      	ldr	r3, [r3, #0]
 80a26e2:	6b1b      	ldr	r3, [r3, #48]	; 0x30
 80a26e4:	9301      	str	r3, [sp, #4]
 80a26e6:	bd08      	pop	{r3, pc}
 80a26e8:	080601a0 	.word	0x080601a0

080a26ec <_ZN8SPIClassD1Ev>:
  RecursiveMutex _mutex;
#endif

public:
  SPIClass(HAL_SPI_Interface spi);
  virtual ~SPIClass() {};
 80a26ec:	b510      	push	{r4, lr}
 80a26ee:	4b04      	ldr	r3, [pc, #16]	; (80a2700 <_ZN8SPIClassD1Ev+0x14>)
 80a26f0:	4604      	mov	r4, r0
 80a26f2:	6003      	str	r3, [r0, #0]
        dispose();
    }

    void dispose()
    {
        if (handle_) {
 80a26f4:	68c0      	ldr	r0, [r0, #12]
 80a26f6:	b108      	cbz	r0, 80a26fc <_ZN8SPIClassD1Ev+0x10>
            os_mutex_recursive_destroy(handle_);
 80a26f8:	f7ff fe1a 	bl	80a2330 <os_mutex_recursive_destroy>
 80a26fc:	4620      	mov	r0, r4
 80a26fe:	bd10      	pop	{r4, pc}
 80a2700:	080a57a8 	.word	0x080a57a8

080a2704 <_ZN8SPIClassD0Ev>:
 80a2704:	b510      	push	{r4, lr}
 80a2706:	4604      	mov	r4, r0
 80a2708:	f7ff fff0 	bl	80a26ec <_ZN8SPIClassD1Ev>
 80a270c:	4620      	mov	r0, r4
 80a270e:	2110      	movs	r1, #16
 80a2710:	f001 fa82 	bl	80a3c18 <_ZdlPvj>
 80a2714:	4620      	mov	r0, r4
 80a2716:	bd10      	pop	{r4, pc}

080a2718 <_ZN14RecursiveMutex4lockEv>:
            handle_ = nullptr;
        }
    }

    void lock() { os_mutex_recursive_lock(handle_); }
 80a2718:	6800      	ldr	r0, [r0, #0]
 80a271a:	f7ff be11 	b.w	80a2340 <os_mutex_recursive_lock>

080a271e <_ZN14RecursiveMutex6unlockEv>:
    bool trylock() { return os_mutex_recursive_trylock(handle_)==0; }
    void unlock() { os_mutex_recursive_unlock(handle_); }
 80a271e:	6800      	ldr	r0, [r0, #0]
 80a2720:	f7ff be16 	b.w	80a2350 <os_mutex_recursive_unlock>

080a2724 <_ZN8SPIClassC1E17HAL_SPI_Interface>:
    }
    return particle::__SPISettings(info->clock, info->bit_order, info->data_mode);
}
} // namespace

SPIClass::SPIClass(HAL_SPI_Interface spi)
 80a2724:	b570      	push	{r4, r5, r6, lr}
 80a2726:	4604      	mov	r4, r0
 80a2728:	460e      	mov	r6, r1
 80a272a:	4b07      	ldr	r3, [pc, #28]	; (80a2748 <_ZN8SPIClassC1E17HAL_SPI_Interface+0x24>)
    /**
     * Creates a shared mutex.
     */
    RecursiveMutex(os_mutex_recursive_t handle) : handle_(handle) {}

    RecursiveMutex() : handle_(nullptr)
 80a272c:	2500      	movs	r5, #0
 80a272e:	6003      	str	r3, [r0, #0]
 80a2730:	f840 5f0c 	str.w	r5, [r0, #12]!
    {
        os_mutex_recursive_create(&handle_);
 80a2734:	f7ff fdf4 	bl	80a2320 <os_mutex_recursive_create>
{
    _spi = spi;
    HAL_SPI_Init(_spi);
 80a2738:	4630      	mov	r0, r6
}
} // namespace

SPIClass::SPIClass(HAL_SPI_Interface spi)
{
    _spi = spi;
 80a273a:	7126      	strb	r6, [r4, #4]
    HAL_SPI_Init(_spi);
 80a273c:	f7ff fda0 	bl	80a2280 <HAL_SPI_Init>
    _dividerReference = SPI_CLK_SYSTEM; // 0 indicates the system clock
 80a2740:	60a5      	str	r5, [r4, #8]
}
 80a2742:	4620      	mov	r0, r4
 80a2744:	bd70      	pop	{r4, r5, r6, pc}
 80a2746:	bf00      	nop
 80a2748:	080a57a8 	.word	0x080a57a8

080a274c <_ZN8SPIClass5beginEv>:

void SPIClass::begin()
{
 80a274c:	b538      	push	{r3, r4, r5, lr}
 80a274e:	4605      	mov	r5, r0
  int lock()
  {
#if HAL_PLATFORM_SPI_HAL_THREAD_SAFETY
    return HAL_SPI_Acquire(_spi, nullptr);
#elif PLATFORM_THREADING
    _mutex.lock();
 80a2750:	f100 040c 	add.w	r4, r0, #12
 80a2754:	4620      	mov	r0, r4
 80a2756:	f7ff ffdf 	bl	80a2718 <_ZN14RecursiveMutex4lockEv>
    // TODO: Fetch default pin from HAL
    if (!lock())
    {
        HAL_SPI_Begin(_spi, SPI_DEFAULT_SS);
 80a275a:	7928      	ldrb	r0, [r5, #4]
 80a275c:	f64f 71ff 	movw	r1, #65535	; 0xffff
 80a2760:	f7ff fd7e 	bl	80a2260 <HAL_SPI_Begin>
  void unlock()
  {
#if HAL_PLATFORM_SPI_HAL_THREAD_SAFETY
    HAL_SPI_Release(_spi, nullptr);
#elif PLATFORM_THREADING
    _mutex.unlock();
 80a2764:	4620      	mov	r0, r4
 80a2766:	f7ff ffda 	bl	80a271e <_ZN14RecursiveMutex6unlockEv>
 80a276a:	bd38      	pop	{r3, r4, r5, pc}

080a276c <_ZN8SPIClass14endTransactionEv>:

    return 0;
}

void SPIClass::endTransaction()
{
 80a276c:	b508      	push	{r3, lr}
 80a276e:	300c      	adds	r0, #12
 80a2770:	f7ff ffd5 	bl	80a271e <_ZN14RecursiveMutex6unlockEv>
 80a2774:	bd08      	pop	{r3, pc}
	...

080a2778 <_ZN8SPIClass19computeClockDividerEjjRhRj>:
void SPIClass::computeClockDivider(unsigned reference, unsigned targetSpeed, uint8_t& divider,
                                   unsigned& clock)
{
    clock = reference;
    uint8_t scale = 0;
    clock >>= 1; // div2 is the first
 80a2778:	0840      	lsrs	r0, r0, #1
    }
}

void SPIClass::computeClockDivider(unsigned reference, unsigned targetSpeed, uint8_t& divider,
                                   unsigned& clock)
{
 80a277a:	b530      	push	{r4, r5, lr}
    clock = reference;
    uint8_t scale = 0;
    clock >>= 1; // div2 is the first
 80a277c:	6018      	str	r0, [r3, #0]
 80a277e:	2400      	movs	r4, #0
    while (clock > targetSpeed && scale < 7)
 80a2780:	6818      	ldr	r0, [r3, #0]
 80a2782:	b2e5      	uxtb	r5, r4
 80a2784:	4288      	cmp	r0, r1
 80a2786:	d906      	bls.n	80a2796 <_ZN8SPIClass19computeClockDividerEjjRhRj+0x1e>
 80a2788:	3401      	adds	r4, #1
 80a278a:	2c08      	cmp	r4, #8
 80a278c:	d002      	beq.n	80a2794 <_ZN8SPIClass19computeClockDividerEjjRhRj+0x1c>
    {
        clock >>= 1;
 80a278e:	0840      	lsrs	r0, r0, #1
 80a2790:	6018      	str	r0, [r3, #0]
                                   unsigned& clock)
{
    clock = reference;
    uint8_t scale = 0;
    clock >>= 1; // div2 is the first
    while (clock > targetSpeed && scale < 7)
 80a2792:	e7f5      	b.n	80a2780 <_ZN8SPIClass19computeClockDividerEjjRhRj+0x8>
 80a2794:	2507      	movs	r5, #7
    {
        clock >>= 1;
        scale++;
    }
    divider = clock_divisors[scale];
 80a2796:	4b02      	ldr	r3, [pc, #8]	; (80a27a0 <_ZN8SPIClass19computeClockDividerEjjRhRj+0x28>)
 80a2798:	5d5b      	ldrb	r3, [r3, r5]
 80a279a:	7013      	strb	r3, [r2, #0]
 80a279c:	bd30      	pop	{r4, r5, pc}
 80a279e:	bf00      	nop
 80a27a0:	080a57b0 	.word	0x080a57b0

080a27a4 <_ZN8SPIClass16beginTransactionERKN8particle13__SPISettingsE>:
{
    return lock();
}

int32_t SPIClass::beginTransaction(const particle::__SPISettings& settings)
{
 80a27a4:	e92d 43f0 	stmdb	sp!, {r4, r5, r6, r7, r8, r9, lr}
 80a27a8:	4680      	mov	r8, r0
 80a27aa:	b08f      	sub	sp, #60	; 0x3c
  int lock()
  {
#if HAL_PLATFORM_SPI_HAL_THREAD_SAFETY
    return HAL_SPI_Acquire(_spi, nullptr);
#elif PLATFORM_THREADING
    _mutex.lock();
 80a27ac:	300c      	adds	r0, #12
 80a27ae:	460e      	mov	r6, r1
 80a27b0:	f7ff ffb2 	bl	80a2718 <_ZN14RecursiveMutex4lockEv>
    // Lock peripheral
    CHECK(lock());

    // Collect existing SPI info
    hal_spi_info_t spi_info;
    querySpiInfo(_spi, &spi_info);
 80a27b4:	f898 4004 	ldrb.w	r4, [r8, #4]
 * \warning This method is NOT THREADSAFE and callers will need to utilize
 *          HAL synchronization primatives.
 */
static void querySpiInfo(HAL_SPI_Interface spi, hal_spi_info_t* info)
{
    memset(info, 0, sizeof(hal_spi_info_t));
 80a27b8:	2214      	movs	r2, #20
 80a27ba:	2100      	movs	r1, #0
 80a27bc:	a809      	add	r0, sp, #36	; 0x24
 80a27be:	f002 f9b0 	bl	80a4b22 <memset>
    info->version = HAL_SPI_INFO_VERSION_1;
 80a27c2:	230b      	movs	r3, #11
    HAL_SPI_Info(spi, info, nullptr);
 80a27c4:	4620      	mov	r0, r4
 80a27c6:	2200      	movs	r2, #0
 80a27c8:	a909      	add	r1, sp, #36	; 0x24
 *          HAL synchronization primatives.
 */
static void querySpiInfo(HAL_SPI_Interface spi, hal_spi_info_t* info)
{
    memset(info, 0, sizeof(hal_spi_info_t));
    info->version = HAL_SPI_INFO_VERSION_1;
 80a27ca:	f8ad 3024 	strh.w	r3, [sp, #36]	; 0x24
    HAL_SPI_Info(spi, info, nullptr);
 80a27ce:	f7ff fd67 	bl	80a22a0 <HAL_SPI_Info>
/**
 * \brief Extract SPI Settings from SPI Info Structure
 */
static particle::__SPISettings spiSettingsFromSpiInfo(hal_spi_info_t* info)
{
    if (!info || !info->enabled || info->default_settings)
 80a27d2:	f89d 402d 	ldrb.w	r4, [sp, #45]	; 0x2d
 80a27d6:	b14c      	cbz	r4, 80a27ec <_ZN8SPIClass16beginTransactionERKN8particle13__SPISettingsE+0x48>
 80a27d8:	f89d 502c 	ldrb.w	r5, [sp, #44]	; 0x2c
 80a27dc:	b92d      	cbnz	r5, 80a27ea <_ZN8SPIClass16beginTransactionERKN8particle13__SPISettingsE+0x46>
    {
        return particle::__SPISettings();
    }
    return particle::__SPISettings(info->clock, info->bit_order, info->data_mode);
 80a27de:	9f0c      	ldr	r7, [sp, #48]	; 0x30
 80a27e0:	f89d 9034 	ldrb.w	r9, [sp, #52]	; 0x34
 80a27e4:	f89d 4035 	ldrb.w	r4, [sp, #53]	; 0x35
 80a27e8:	e003      	b.n	80a27f2 <_ZN8SPIClass16beginTransactionERKN8particle13__SPISettingsE+0x4e>
      dataMode_{dataMode}
  {
  }

  __SPISettings()
  {
 80a27ea:	2400      	movs	r4, #0
 80a27ec:	46a1      	mov	r9, r4
 80a27ee:	4627      	mov	r7, r4
 80a27f0:	2501      	movs	r5, #1
 80a27f2:	7933      	ldrb	r3, [r6, #4]
  }

  bool operator==(const __SPISettings& other) const
  {
    if (default_ && other.default_)
 80a27f4:	b10d      	cbz	r5, 80a27fa <_ZN8SPIClass16beginTransactionERKN8particle13__SPISettingsE+0x56>
 80a27f6:	2b00      	cmp	r3, #0
 80a27f8:	d13f      	bne.n	80a287a <_ZN8SPIClass16beginTransactionERKN8particle13__SPISettingsE+0xd6>
      return true;

    if (default_ == other.default_ &&
 80a27fa:	429d      	cmp	r5, r3
 80a27fc:	d10b      	bne.n	80a2816 <_ZN8SPIClass16beginTransactionERKN8particle13__SPISettingsE+0x72>
 80a27fe:	68b2      	ldr	r2, [r6, #8]
 80a2800:	42ba      	cmp	r2, r7
 80a2802:	d108      	bne.n	80a2816 <_ZN8SPIClass16beginTransactionERKN8particle13__SPISettingsE+0x72>
        clock_ == other.clock_ &&
        bitOrder_ == other.bitOrder_ &&
 80a2804:	f88d 9020 	strb.w	r9, [sp, #32]
 80a2808:	f88d 4021 	strb.w	r4, [sp, #33]	; 0x21
 80a280c:	f8bd 1020 	ldrh.w	r1, [sp, #32]
 80a2810:	89b2      	ldrh	r2, [r6, #12]
 80a2812:	4291      	cmp	r1, r2
 80a2814:	d031      	beq.n	80a287a <_ZN8SPIClass16beginTransactionERKN8particle13__SPISettingsE+0xd6>
    particle::__SPISettings spi_settings = spiSettingsFromSpiInfo(&spi_info);

    // Reconfigure SPI peripheral (if necessary)
    if (settings != spi_settings)
    {
        if (settings.default_)
 80a2816:	b13b      	cbz	r3, 80a2828 <_ZN8SPIClass16beginTransactionERKN8particle13__SPISettingsE+0x84>
        {
            HAL_SPI_Set_Settings(_spi, settings.default_, 0, 0, 0, nullptr);
 80a2818:	2300      	movs	r3, #0
 80a281a:	f898 0004 	ldrb.w	r0, [r8, #4]
 80a281e:	9301      	str	r3, [sp, #4]
 80a2820:	9300      	str	r3, [sp, #0]
 80a2822:	461a      	mov	r2, r3
 80a2824:	2101      	movs	r1, #1
 80a2826:	e016      	b.n	80a2856 <_ZN8SPIClass16beginTransactionERKN8particle13__SPISettingsE+0xb2>
        }
        else
        {
            // Compute valid clock value and clock divider from supplied clock value
            uint8_t divisor = 0;
 80a2828:	f88d 300f 	strb.w	r3, [sp, #15]
            unsigned int clock; // intentionally left uninitialized
            computeClockDivider((unsigned int)spi_info.system_clock, settings.clock_, divisor,
                                clock);
 80a282c:	68b1      	ldr	r1, [r6, #8]
 80a282e:	ab04      	add	r3, sp, #16
 80a2830:	f10d 020f 	add.w	r2, sp, #15
 80a2834:	980a      	ldr	r0, [sp, #40]	; 0x28
 80a2836:	f7ff ff9f 	bl	80a2778 <_ZN8SPIClass19computeClockDividerEjjRhRj>
 80a283a:	7931      	ldrb	r1, [r6, #4]
    return false;
  }

  bool operator<=(const __SPISettings& other) const
  {
    if (default_ && other.default_)
 80a283c:	b105      	cbz	r5, 80a2840 <_ZN8SPIClass16beginTransactionERKN8particle13__SPISettingsE+0x9c>
 80a283e:	b9c9      	cbnz	r1, 80a2874 <_ZN8SPIClass16beginTransactionERKN8particle13__SPISettingsE+0xd0>
      return true;

    if (default_ == other.default_ &&
 80a2840:	42a9      	cmp	r1, r5
 80a2842:	d00b      	beq.n	80a285c <_ZN8SPIClass16beginTransactionERKN8particle13__SPISettingsE+0xb8>

            // Ensure inequality aside from computed clock value
            if (!(spi_settings <= settings && clock == spi_settings.clock_))
            {
                HAL_SPI_Set_Settings(_spi, settings.default_, divisor, settings.bitOrder_,
                                     settings.dataMode_, nullptr);
 80a2844:	2400      	movs	r4, #0
 80a2846:	9401      	str	r4, [sp, #4]
 80a2848:	7b74      	ldrb	r4, [r6, #13]
 80a284a:	7b33      	ldrb	r3, [r6, #12]
 80a284c:	f89d 200f 	ldrb.w	r2, [sp, #15]
 80a2850:	f898 0004 	ldrb.w	r0, [r8, #4]
 80a2854:	9400      	str	r4, [sp, #0]
 80a2856:	f7ff fd2b 	bl	80a22b0 <HAL_SPI_Set_Settings>
 80a285a:	e00e      	b.n	80a287a <_ZN8SPIClass16beginTransactionERKN8particle13__SPISettingsE+0xd6>
 80a285c:	68b3      	ldr	r3, [r6, #8]
 80a285e:	42bb      	cmp	r3, r7
 80a2860:	d3f0      	bcc.n	80a2844 <_ZN8SPIClass16beginTransactionERKN8particle13__SPISettingsE+0xa0>
        clock_ <= other.clock_ &&
        bitOrder_ == other.bitOrder_ &&
 80a2862:	f88d 9020 	strb.w	r9, [sp, #32]
 80a2866:	f88d 4021 	strb.w	r4, [sp, #33]	; 0x21
 80a286a:	f8bd 2020 	ldrh.w	r2, [sp, #32]
 80a286e:	89b3      	ldrh	r3, [r6, #12]
 80a2870:	429a      	cmp	r2, r3
 80a2872:	d1e7      	bne.n	80a2844 <_ZN8SPIClass16beginTransactionERKN8particle13__SPISettingsE+0xa0>
            unsigned int clock; // intentionally left uninitialized
            computeClockDivider((unsigned int)spi_info.system_clock, settings.clock_, divisor,
                                clock);

            // Ensure inequality aside from computed clock value
            if (!(spi_settings <= settings && clock == spi_settings.clock_))
 80a2874:	9b04      	ldr	r3, [sp, #16]
 80a2876:	42bb      	cmp	r3, r7
 80a2878:	d1e4      	bne.n	80a2844 <_ZN8SPIClass16beginTransactionERKN8particle13__SPISettingsE+0xa0>
            }
        }
    }

    return 0;
}
 80a287a:	2000      	movs	r0, #0
 80a287c:	b00f      	add	sp, #60	; 0x3c
 80a287e:	e8bd 83f0 	ldmia.w	sp!, {r4, r5, r6, r7, r8, r9, pc}

080a2882 <_ZN8SPIClass8transferEh>:

    return clock;
}

byte SPIClass::transfer(byte _data)
{
 80a2882:	b570      	push	{r4, r5, r6, lr}
 80a2884:	4605      	mov	r5, r0
 80a2886:	460e      	mov	r6, r1
  int lock()
  {
#if HAL_PLATFORM_SPI_HAL_THREAD_SAFETY
    return HAL_SPI_Acquire(_spi, nullptr);
#elif PLATFORM_THREADING
    _mutex.lock();
 80a2888:	f100 040c 	add.w	r4, r0, #12
 80a288c:	4620      	mov	r0, r4
 80a288e:	f7ff ff43 	bl	80a2718 <_ZN14RecursiveMutex4lockEv>
    uint16_t result = 0;
    if (!lock())
    {
        result = HAL_SPI_Send_Receive_Data(_spi, _data);
 80a2892:	4631      	mov	r1, r6
 80a2894:	7928      	ldrb	r0, [r5, #4]
 80a2896:	f7ff fceb 	bl	80a2270 <HAL_SPI_Send_Receive_Data>
 80a289a:	4605      	mov	r5, r0
  void unlock()
  {
#if HAL_PLATFORM_SPI_HAL_THREAD_SAFETY
    HAL_SPI_Release(_spi, nullptr);
#elif PLATFORM_THREADING
    _mutex.unlock();
 80a289c:	4620      	mov	r0, r4
 80a289e:	f7ff ff3e 	bl	80a271e <_ZN14RecursiveMutex6unlockEv>
        unlock();
    }
    return static_cast<byte>(result);
}
 80a28a2:	b2e8      	uxtb	r0, r5
 80a28a4:	bd70      	pop	{r4, r5, r6, pc}

080a28a6 <_ZN8SPIClass9isEnabledEv>:
bool SPIClass::isEnabled()
{
    // XXX: pinAvailable() will call this method potentially even from
    // interrupt context. `enabled` flag in HAL is usually just a volatile
    // variable, so it's fine not to acquire the lock here.
    return HAL_SPI_Is_Enabled(_spi);
 80a28a6:	7900      	ldrb	r0, [r0, #4]
 80a28a8:	f7ff bcf2 	b.w	80a2290 <HAL_SPI_Is_Enabled>

080a28ac <_ZN17SystemSleepResult22freeWakeupSourceMemoryEv.isra.2>:
    operator SleepResult() {
        return toSleepResult();
    }

private:
    void freeWakeupSourceMemory() {
 80a28ac:	b510      	push	{r4, lr}
 80a28ae:	4604      	mov	r4, r0
        if (wakeupSource_) {
 80a28b0:	6800      	ldr	r0, [r0, #0]
 80a28b2:	b118      	cbz	r0, 80a28bc <_ZN17SystemSleepResult22freeWakeupSourceMemoryEv.isra.2+0x10>
            free(wakeupSource_);
 80a28b4:	f7ff fefa 	bl	80a26ac <free>
            wakeupSource_ = nullptr;
 80a28b8:	2300      	movs	r3, #0
 80a28ba:	6023      	str	r3, [r4, #0]
 80a28bc:	bd10      	pop	{r4, pc}

080a28be <_ZN11SystemClassD1Ev>:
    system_error_t error_;
    SleepResult compatResult_;
};


class SystemClass {
 80a28be:	b510      	push	{r4, lr}
 80a28c0:	4604      	mov	r4, r0
        }
        return *this;
    }

    ~SystemSleepResult() {
        freeWakeupSourceMemory();
 80a28c2:	f7ff fff3 	bl	80a28ac <_ZN17SystemSleepResult22freeWakeupSourceMemoryEv.isra.2>
    system_error_t error_;
    SleepResult compatResult_;
};


class SystemClass {
 80a28c6:	4620      	mov	r0, r4
 80a28c8:	bd10      	pop	{r4, pc}
	...

080a28cc <_GLOBAL__sub_I_System>:
    WAKEUP_REASON_PIN_OR_RTC = 3,
    WAKEUP_REASON_UNKNOWN = 4
};

struct SleepResult {
    SleepResult() {}
 80a28cc:	f64f 73ff 	movw	r3, #65535	; 0xffff
    return wokenUpByRtc();
}

system_error_t SleepResult::error() const {
    return err_;
 80a28d0:	b510      	push	{r4, lr}

class SystemSleepResult {
public:
    SystemSleepResult()
            : wakeupSource_(nullptr),
              error_(SYSTEM_ERROR_NONE) {
 80a28d2:	4c08      	ldr	r4, [pc, #32]	; (80a28f4 <_GLOBAL__sub_I_System+0x28>)
 80a28d4:	2000      	movs	r0, #0
 80a28d6:	6020      	str	r0, [r4, #0]
 80a28d8:	80a0      	strh	r0, [r4, #4]
    WAKEUP_REASON_PIN_OR_RTC = 3,
    WAKEUP_REASON_UNKNOWN = 4
};

struct SleepResult {
    SleepResult() {}
 80a28da:	71a0      	strb	r0, [r4, #6]
 80a28dc:	8120      	strh	r0, [r4, #8]
 80a28de:	8163      	strh	r3, [r4, #10]

class SystemClass {
public:

    SystemClass(System_Mode_TypeDef mode = DEFAULT) {
        set_system_mode(mode);
 80a28e0:	f7ff fe28 	bl	80a2534 <set_system_mode>

#if Wiring_LogConfig
extern void(*log_process_ctrl_request_callback)(ctrl_request* req);
#endif

SystemClass System;
 80a28e4:	4620      	mov	r0, r4
    return wokenUpByRtc();
}

system_error_t SleepResult::error() const {
    return err_;
 80a28e6:	e8bd 4010 	ldmia.w	sp!, {r4, lr}

#if Wiring_LogConfig
extern void(*log_process_ctrl_request_callback)(ctrl_request* req);
#endif

SystemClass System;
 80a28ea:	4a03      	ldr	r2, [pc, #12]	; (80a28f8 <_GLOBAL__sub_I_System+0x2c>)
 80a28ec:	4903      	ldr	r1, [pc, #12]	; (80a28fc <_GLOBAL__sub_I_System+0x30>)
 80a28ee:	f001 b985 	b.w	80a3bfc <__aeabi_atexit>
 80a28f2:	bf00      	nop
 80a28f4:	2000016c 	.word	0x2000016c
 80a28f8:	20000080 	.word	0x20000080
 80a28fc:	080a28bf 	.word	0x080a28bf

080a2900 <_ZN5Print5writeEPKhj>:

// Public Methods //////////////////////////////////////////////////////////////

/* default implementation: may be overridden */
size_t Print::write(const uint8_t *buffer, size_t size)
{
 80a2900:	b5f8      	push	{r3, r4, r5, r6, r7, lr}
 80a2902:	4606      	mov	r6, r0
 80a2904:	460d      	mov	r5, r1
 80a2906:	188f      	adds	r7, r1, r2
  size_t n = 0;
 80a2908:	2400      	movs	r4, #0
  while (size--) {
 80a290a:	42bd      	cmp	r5, r7
 80a290c:	d00c      	beq.n	80a2928 <_ZN5Print5writeEPKhj+0x28>
     int chunk = write(*buffer++);
 80a290e:	6833      	ldr	r3, [r6, #0]
 80a2910:	f815 1b01 	ldrb.w	r1, [r5], #1
 80a2914:	689b      	ldr	r3, [r3, #8]
 80a2916:	4630      	mov	r0, r6
 80a2918:	4798      	blx	r3
     if (chunk>=0)
 80a291a:	2800      	cmp	r0, #0
 80a291c:	db01      	blt.n	80a2922 <_ZN5Print5writeEPKhj+0x22>
         n += chunk;
 80a291e:	4404      	add	r4, r0

/* default implementation: may be overridden */
size_t Print::write(const uint8_t *buffer, size_t size)
{
  size_t n = 0;
  while (size--) {
 80a2920:	e7f3      	b.n	80a290a <_ZN5Print5writeEPKhj+0xa>
     int chunk = write(*buffer++);
 80a2922:	2c00      	cmp	r4, #0
 80a2924:	bf08      	it	eq
 80a2926:	4604      	moveq	r4, r0
             n = chunk;
         break;
     }
  }
  return n;
}
 80a2928:	4620      	mov	r0, r4
 80a292a:	bdf8      	pop	{r3, r4, r5, r6, r7, pc}

080a292c <_ZN5Print5writeEPKc>:

    int getWriteError() { return write_error; }
    void clearWriteError() { setWriteError(0); }

    virtual size_t write(uint8_t) = 0;
    size_t write(const char *str) {
 80a292c:	b570      	push	{r4, r5, r6, lr}
 80a292e:	4605      	mov	r5, r0
      if (str == NULL) return 0;
 80a2930:	460c      	mov	r4, r1
      return write((const uint8_t *)str, strlen(str));
    }
 80a2932:	4608      	mov	r0, r1
    int getWriteError() { return write_error; }
    void clearWriteError() { setWriteError(0); }

    virtual size_t write(uint8_t) = 0;
    size_t write(const char *str) {
      if (str == NULL) return 0;
 80a2934:	b149      	cbz	r1, 80a294a <_ZN5Print5writeEPKc+0x1e>
      return write((const uint8_t *)str, strlen(str));
 80a2936:	f002 f940 	bl	80a4bba <strlen>
 80a293a:	682b      	ldr	r3, [r5, #0]
 80a293c:	4602      	mov	r2, r0
 80a293e:	4621      	mov	r1, r4
 80a2940:	4628      	mov	r0, r5
    }
 80a2942:	e8bd 4070 	ldmia.w	sp!, {r4, r5, r6, lr}
    void clearWriteError() { setWriteError(0); }

    virtual size_t write(uint8_t) = 0;
    size_t write(const char *str) {
      if (str == NULL) return 0;
      return write((const uint8_t *)str, strlen(str));
 80a2946:	68db      	ldr	r3, [r3, #12]
 80a2948:	4718      	bx	r3
    }
 80a294a:	bd70      	pop	{r4, r5, r6, pc}

080a294c <_ZN5Print5printEPKc>:
 80a294c:	b508      	push	{r3, lr}
 80a294e:	f7ff ffed 	bl	80a292c <_ZN5Print5writeEPKc>
 80a2952:	bd08      	pop	{r3, pc}

080a2954 <_ZN5Print5printEc>:
  return write(str);
}

size_t Print::print(char c)
{
  return write(c);
 80a2954:	6803      	ldr	r3, [r0, #0]
 80a2956:	689b      	ldr	r3, [r3, #8]
 80a2958:	4718      	bx	r3

080a295a <_ZN5Print7printlnEv>:
{
  return print(reinterpret_cast<const char*>(str));
}

size_t Print::println(void)
{
 80a295a:	b538      	push	{r3, r4, r5, lr}
  size_t n = print('\r');
 80a295c:	210d      	movs	r1, #13
{
  return print(reinterpret_cast<const char*>(str));
}

size_t Print::println(void)
{
 80a295e:	4605      	mov	r5, r0
  size_t n = print('\r');
 80a2960:	f7ff fff8 	bl	80a2954 <_ZN5Print5printEc>
  n += print('\n');
 80a2964:	210a      	movs	r1, #10
  return print(reinterpret_cast<const char*>(str));
}

size_t Print::println(void)
{
  size_t n = print('\r');
 80a2966:	4604      	mov	r4, r0
  n += print('\n');
 80a2968:	4628      	mov	r0, r5
 80a296a:	f7ff fff3 	bl	80a2954 <_ZN5Print5printEc>
  return n;
}
 80a296e:	4420      	add	r0, r4
 80a2970:	bd38      	pop	{r3, r4, r5, pc}

080a2972 <_ZN5Print7printlnEPKc>:

size_t Print::println(const char c[])
{
 80a2972:	b538      	push	{r3, r4, r5, lr}
 80a2974:	4605      	mov	r5, r0
  return n;
}

size_t Print::print(const char str[])
{
  return write(str);
 80a2976:	f7ff ffd9 	bl	80a292c <_ZN5Print5writeEPKc>
 80a297a:	4604      	mov	r4, r0
}

size_t Print::println(const char c[])
{
  size_t n = print(c);
  n += println();
 80a297c:	4628      	mov	r0, r5
 80a297e:	f7ff ffec 	bl	80a295a <_ZN5Print7printlnEv>
  return n;
}
 80a2982:	4420      	add	r0, r4
 80a2984:	bd38      	pop	{r3, r4, r5, pc}

080a2986 <_ZN5Print7printlnEPK19__FlashStringHelper>:
   return n;
 }

size_t Print::println(const __FlashStringHelper* str)
{
  return println(reinterpret_cast<const char*>(str));
 80a2986:	f7ff bff4 	b.w	80a2972 <_ZN5Print7printlnEPKc>

080a298a <_ZN5Print11printNumberEmh>:
  char *str = &buf[sizeof(buf) - 1];

  *str = '\0';

  // prevent crash if called with base == 1
  if (base < 2) base = 10;
 80a298a:	2a01      	cmp	r2, #1
 80a298c:	bf98      	it	ls
 80a298e:	220a      	movls	r2, #10
  return println(reinterpret_cast<const char*>(str));
}

// Private Methods /////////////////////////////////////////////////////////////

size_t Print::printNumber(unsigned long n, uint8_t base) {
 80a2990:	b530      	push	{r4, r5, lr}
 80a2992:	460b      	mov	r3, r1
 80a2994:	b08b      	sub	sp, #44	; 0x2c
  char buf[8 * sizeof(n) + 1]; // Assumes 8-bit chars plus zero byte.
  char *str = &buf[sizeof(buf) - 1];

  *str = '\0';
 80a2996:	2100      	movs	r1, #0
 80a2998:	f88d 1024 	strb.w	r1, [sp, #36]	; 0x24
 80a299c:	f10d 0423 	add.w	r4, sp, #35	; 0x23
  // prevent crash if called with base == 1
  if (base < 2) base = 10;

  do {
   decltype(n) m = n;
   n /= base;
 80a29a0:	fbb3 f5f2 	udiv	r5, r3, r2
   char c = m - base * n;
 80a29a4:	fb05 3312 	mls	r3, r5, r2, r3
 80a29a8:	b2db      	uxtb	r3, r3
   *--str = c < 10 ? c + '0' : c + 'A' - 10;
 80a29aa:	2b09      	cmp	r3, #9
 80a29ac:	bf94      	ite	ls
 80a29ae:	3330      	addls	r3, #48	; 0x30
 80a29b0:	3337      	addhi	r3, #55	; 0x37
 80a29b2:	b2db      	uxtb	r3, r3
 80a29b4:	4621      	mov	r1, r4
 80a29b6:	f804 3901 	strb.w	r3, [r4], #-1
 80a29ba:	462b      	mov	r3, r5
  *str = '\0';

  // prevent crash if called with base == 1
  if (base < 2) base = 10;

  do {
 80a29bc:	2d00      	cmp	r5, #0
 80a29be:	d1ef      	bne.n	80a29a0 <_ZN5Print11printNumberEmh+0x16>
   n /= base;
   char c = m - base * n;
   *--str = c < 10 ? c + '0' : c + 'A' - 10;
  } while(n);

  return write(str);
 80a29c0:	f7ff ffb4 	bl	80a292c <_ZN5Print5writeEPKc>
}
 80a29c4:	b00b      	add	sp, #44	; 0x2c
 80a29c6:	bd30      	pop	{r4, r5, pc}

080a29c8 <_ZN5Print10printFloatEdh>:

  return write(str);
}

size_t Print::printFloat(double number, uint8_t digits)
{
 80a29c8:	e92d 47f0 	stmdb	sp!, {r4, r5, r6, r7, r8, r9, sl, lr}
  size_t n = 0;

  if (isnan(number)) return print("nan");
 80a29cc:	4619      	mov	r1, r3

  return write(str);
}

size_t Print::printFloat(double number, uint8_t digits)
{
 80a29ce:	4680      	mov	r8, r0
  size_t n = 0;

  if (isnan(number)) return print("nan");
 80a29d0:	4610      	mov	r0, r2

  return write(str);
}

size_t Print::printFloat(double number, uint8_t digits)
{
 80a29d2:	4617      	mov	r7, r2
 80a29d4:	461e      	mov	r6, r3
 80a29d6:	f89d 5020 	ldrb.w	r5, [sp, #32]
  size_t n = 0;

  if (isnan(number)) return print("nan");
 80a29da:	f001 fecd 	bl	80a4778 <__aeabi_dcmpun>
 80a29de:	b108      	cbz	r0, 80a29e4 <_ZN5Print10printFloatEdh+0x1c>
  return n;
}

size_t Print::print(const char str[])
{
  return write(str);
 80a29e0:	494d      	ldr	r1, [pc, #308]	; (80a2b18 <_ZN5Print10printFloatEdh+0x150>)
 80a29e2:	e012      	b.n	80a2a0a <_ZN5Print10printFloatEdh+0x42>
size_t Print::printFloat(double number, uint8_t digits)
{
  size_t n = 0;

  if (isnan(number)) return print("nan");
  if (isinf(number)) return print("inf");
 80a29e4:	f026 4400 	bic.w	r4, r6, #2147483648	; 0x80000000
 80a29e8:	f04f 32ff 	mov.w	r2, #4294967295
 80a29ec:	4b4b      	ldr	r3, [pc, #300]	; (80a2b1c <_ZN5Print10printFloatEdh+0x154>)
 80a29ee:	4638      	mov	r0, r7
 80a29f0:	4621      	mov	r1, r4
 80a29f2:	f001 fec1 	bl	80a4778 <__aeabi_dcmpun>
 80a29f6:	b968      	cbnz	r0, 80a2a14 <_ZN5Print10printFloatEdh+0x4c>
 80a29f8:	f04f 32ff 	mov.w	r2, #4294967295
 80a29fc:	4b47      	ldr	r3, [pc, #284]	; (80a2b1c <_ZN5Print10printFloatEdh+0x154>)
 80a29fe:	4638      	mov	r0, r7
 80a2a00:	4621      	mov	r1, r4
 80a2a02:	f001 fe9b 	bl	80a473c <__aeabi_dcmple>
 80a2a06:	b928      	cbnz	r0, 80a2a14 <_ZN5Print10printFloatEdh+0x4c>
  return n;
}

size_t Print::print(const char str[])
{
  return write(str);
 80a2a08:	4945      	ldr	r1, [pc, #276]	; (80a2b20 <_ZN5Print10printFloatEdh+0x158>)
 80a2a0a:	4640      	mov	r0, r8
 80a2a0c:	f7ff ff8e 	bl	80a292c <_ZN5Print5writeEPKc>
size_t Print::printFloat(double number, uint8_t digits)
{
  size_t n = 0;

  if (isnan(number)) return print("nan");
  if (isinf(number)) return print("inf");
 80a2a10:	e8bd 87f0 	ldmia.w	sp!, {r4, r5, r6, r7, r8, r9, sl, pc}
  if (number > 4294967040.0) return print ("ovf");  // constant determined empirically
 80a2a14:	f04f 4260 	mov.w	r2, #3758096384	; 0xe0000000
 80a2a18:	4b42      	ldr	r3, [pc, #264]	; (80a2b24 <_ZN5Print10printFloatEdh+0x15c>)
 80a2a1a:	4638      	mov	r0, r7
 80a2a1c:	4631      	mov	r1, r6
 80a2a1e:	f001 fea1 	bl	80a4764 <__aeabi_dcmpgt>
 80a2a22:	b108      	cbz	r0, 80a2a28 <_ZN5Print10printFloatEdh+0x60>
  return n;
}

size_t Print::print(const char str[])
{
  return write(str);
 80a2a24:	4940      	ldr	r1, [pc, #256]	; (80a2b28 <_ZN5Print10printFloatEdh+0x160>)
 80a2a26:	e7f0      	b.n	80a2a0a <_ZN5Print10printFloatEdh+0x42>
  size_t n = 0;

  if (isnan(number)) return print("nan");
  if (isinf(number)) return print("inf");
  if (number > 4294967040.0) return print ("ovf");  // constant determined empirically
  if (number <-4294967040.0) return print ("ovf");  // constant determined empirically
 80a2a28:	f04f 4260 	mov.w	r2, #3758096384	; 0xe0000000
 80a2a2c:	4b3f      	ldr	r3, [pc, #252]	; (80a2b2c <_ZN5Print10printFloatEdh+0x164>)
 80a2a2e:	4638      	mov	r0, r7
 80a2a30:	4631      	mov	r1, r6
 80a2a32:	f001 fe79 	bl	80a4728 <__aeabi_dcmplt>
 80a2a36:	2800      	cmp	r0, #0
 80a2a38:	d1f4      	bne.n	80a2a24 <_ZN5Print10printFloatEdh+0x5c>

  // Handle negative numbers
  if (number < 0.0)
 80a2a3a:	2200      	movs	r2, #0
 80a2a3c:	2300      	movs	r3, #0
 80a2a3e:	4638      	mov	r0, r7
 80a2a40:	4631      	mov	r1, r6
 80a2a42:	f001 fe71 	bl	80a4728 <__aeabi_dcmplt>
 80a2a46:	b138      	cbz	r0, 80a2a58 <_ZN5Print10printFloatEdh+0x90>
  {
     n += print('-');
 80a2a48:	212d      	movs	r1, #45	; 0x2d
 80a2a4a:	4640      	mov	r0, r8
 80a2a4c:	f7ff ff82 	bl	80a2954 <_ZN5Print5printEc>
     number = -number;
 80a2a50:	f106 4600 	add.w	r6, r6, #2147483648	; 0x80000000
  if (number <-4294967040.0) return print ("ovf");  // constant determined empirically

  // Handle negative numbers
  if (number < 0.0)
  {
     n += print('-');
 80a2a54:	4604      	mov	r4, r0
 80a2a56:	e000      	b.n	80a2a5a <_ZN5Print10printFloatEdh+0x92>
  return write(str);
}

size_t Print::printFloat(double number, uint8_t digits)
{
  size_t n = 0;
 80a2a58:	4604      	mov	r4, r0
     n += print('-');
     number = -number;
  }

  // Round correctly so that print(1.999, 2) prints as "2.00"
  double rounding = 0.5;
 80a2a5a:	4935      	ldr	r1, [pc, #212]	; (80a2b30 <_ZN5Print10printFloatEdh+0x168>)
  return write(str);
}

size_t Print::printFloat(double number, uint8_t digits)
{
  size_t n = 0;
 80a2a5c:	f04f 0900 	mov.w	r9, #0
     n += print('-');
     number = -number;
  }

  // Round correctly so that print(1.999, 2) prints as "2.00"
  double rounding = 0.5;
 80a2a60:	2000      	movs	r0, #0
  for (uint8_t i=0; i<digits; ++i)
 80a2a62:	fa5f f389 	uxtb.w	r3, r9
 80a2a66:	429d      	cmp	r5, r3
 80a2a68:	d906      	bls.n	80a2a78 <_ZN5Print10printFloatEdh+0xb0>
    rounding /= 10.0;
 80a2a6a:	2200      	movs	r2, #0
 80a2a6c:	4b31      	ldr	r3, [pc, #196]	; (80a2b34 <_ZN5Print10printFloatEdh+0x16c>)
 80a2a6e:	f001 fd13 	bl	80a4498 <__aeabi_ddiv>
 80a2a72:	f109 0901 	add.w	r9, r9, #1
 80a2a76:	e7f4      	b.n	80a2a62 <_ZN5Print10printFloatEdh+0x9a>

  number += rounding;
 80a2a78:	463a      	mov	r2, r7
 80a2a7a:	4633      	mov	r3, r6
 80a2a7c:	f001 fa30 	bl	80a3ee0 <__adddf3>
 80a2a80:	460f      	mov	r7, r1
 80a2a82:	4606      	mov	r6, r0

  // Extract the integer part of the number and print it
  unsigned long int_part = (unsigned long)number;
 80a2a84:	f001 feb6 	bl	80a47f4 <__aeabi_d2uiz>
            t = print('-');
            val = -n;
        } else {
            val = n;
        }
        return printNumber(val, base) + t;
 80a2a88:	220a      	movs	r2, #10
 80a2a8a:	4601      	mov	r1, r0
 80a2a8c:	4681      	mov	r9, r0
 80a2a8e:	4640      	mov	r0, r8
 80a2a90:	f7ff ff7b 	bl	80a298a <_ZN5Print11printNumberEmh>
  double remainder = number - (double)int_part;
  n += print(int_part);
 80a2a94:	4404      	add	r4, r0

  // Print the decimal point, but only if there are digits beyond
  if (digits > 0) {
 80a2a96:	b3e5      	cbz	r5, 80a2b12 <_ZN5Print10printFloatEdh+0x14a>

  number += rounding;

  // Extract the integer part of the number and print it
  unsigned long int_part = (unsigned long)number;
  double remainder = number - (double)int_part;
 80a2a98:	4648      	mov	r0, r9
 80a2a9a:	f001 fb5d 	bl	80a4158 <__aeabi_ui2d>
 80a2a9e:	4602      	mov	r2, r0
 80a2aa0:	460b      	mov	r3, r1
 80a2aa2:	4630      	mov	r0, r6
 80a2aa4:	4639      	mov	r1, r7
 80a2aa6:	f001 fa19 	bl	80a3edc <__aeabi_dsub>
 80a2aaa:	4606      	mov	r6, r0
 80a2aac:	460f      	mov	r7, r1
  return n;
}

size_t Print::print(const char str[])
{
  return write(str);
 80a2aae:	4640      	mov	r0, r8
 80a2ab0:	4921      	ldr	r1, [pc, #132]	; (80a2b38 <_ZN5Print10printFloatEdh+0x170>)
 80a2ab2:	f7ff ff3b 	bl	80a292c <_ZN5Print5writeEPKc>
  double remainder = number - (double)int_part;
  n += print(int_part);

  // Print the decimal point, but only if there are digits beyond
  if (digits > 0) {
    n += print(".");
 80a2ab6:	4404      	add	r4, r0
  }

  // Extract digits from the remainder one at a time
  while (digits-- > 0)
  {
    remainder *= 10.0;
 80a2ab8:	2200      	movs	r2, #0
 80a2aba:	4b1e      	ldr	r3, [pc, #120]	; (80a2b34 <_ZN5Print10printFloatEdh+0x16c>)
 80a2abc:	4630      	mov	r0, r6
 80a2abe:	4639      	mov	r1, r7
 80a2ac0:	f001 fbc0 	bl	80a4244 <__aeabi_dmul>
 80a2ac4:	4606      	mov	r6, r0
 80a2ac6:	460f      	mov	r7, r1
    int toPrint = int(remainder);
 80a2ac8:	f001 fe6c 	bl	80a47a4 <__aeabi_d2iz>
        return write(n);
    } else {
        size_t t = 0;
        using PrintNumberType = typename PrintNumberTypeSelector<T>::type;
        PrintNumberType val;
        if (n < 0 && base == 10) {
 80a2acc:	f1b0 0a00 	subs.w	sl, r0, #0
 80a2ad0:	da07      	bge.n	80a2ae2 <_ZN5Print10printFloatEdh+0x11a>
            t = print('-');
 80a2ad2:	212d      	movs	r1, #45	; 0x2d
 80a2ad4:	4640      	mov	r0, r8
 80a2ad6:	f7ff ff3d 	bl	80a2954 <_ZN5Print5printEc>
            val = -n;
 80a2ada:	f1ca 0100 	rsb	r1, sl, #0
    } else {
        size_t t = 0;
        using PrintNumberType = typename PrintNumberTypeSelector<T>::type;
        PrintNumberType val;
        if (n < 0 && base == 10) {
            t = print('-');
 80a2ade:	4681      	mov	r9, r0
 80a2ae0:	e002      	b.n	80a2ae8 <_ZN5Print10printFloatEdh+0x120>
            val = -n;
        } else {
            val = n;
 80a2ae2:	4651      	mov	r1, sl
size_t Print::print(T n, int base)
{
    if (base == 0) {
        return write(n);
    } else {
        size_t t = 0;
 80a2ae4:	f04f 0900 	mov.w	r9, #0
            t = print('-');
            val = -n;
        } else {
            val = n;
        }
        return printNumber(val, base) + t;
 80a2ae8:	220a      	movs	r2, #10
 80a2aea:	4640      	mov	r0, r8
 80a2aec:	f7ff ff4d 	bl	80a298a <_ZN5Print11printNumberEmh>
    n += print(toPrint);
 80a2af0:	4448      	add	r0, r9
 80a2af2:	4404      	add	r4, r0
    remainder -= toPrint;
 80a2af4:	4650      	mov	r0, sl
 80a2af6:	f001 fb3f 	bl	80a4178 <__aeabi_i2d>
 80a2afa:	4602      	mov	r2, r0
 80a2afc:	460b      	mov	r3, r1
 80a2afe:	4630      	mov	r0, r6
 80a2b00:	4639      	mov	r1, r7
 80a2b02:	f001 f9eb 	bl	80a3edc <__aeabi_dsub>
 80a2b06:	3d01      	subs	r5, #1
  if (digits > 0) {
    n += print(".");
  }

  // Extract digits from the remainder one at a time
  while (digits-- > 0)
 80a2b08:	f015 05ff 	ands.w	r5, r5, #255	; 0xff
  {
    remainder *= 10.0;
    int toPrint = int(remainder);
    n += print(toPrint);
    remainder -= toPrint;
 80a2b0c:	4606      	mov	r6, r0
 80a2b0e:	460f      	mov	r7, r1
  if (digits > 0) {
    n += print(".");
  }

  // Extract digits from the remainder one at a time
  while (digits-- > 0)
 80a2b10:	d1d2      	bne.n	80a2ab8 <_ZN5Print10printFloatEdh+0xf0>
  number += rounding;

  // Extract the integer part of the number and print it
  unsigned long int_part = (unsigned long)number;
  double remainder = number - (double)int_part;
  n += print(int_part);
 80a2b12:	4620      	mov	r0, r4
 80a2b14:	e8bd 87f0 	ldmia.w	sp!, {r4, r5, r6, r7, r8, r9, sl, pc}
 80a2b18:	080a57b8 	.word	0x080a57b8
 80a2b1c:	7fefffff 	.word	0x7fefffff
 80a2b20:	080a57c2 	.word	0x080a57c2
 80a2b24:	41efffff 	.word	0x41efffff
 80a2b28:	080a57bc 	.word	0x080a57bc
 80a2b2c:	c1efffff 	.word	0xc1efffff
 80a2b30:	3fe00000 	.word	0x3fe00000
 80a2b34:	40240000 	.word	0x40240000
 80a2b38:	080a57c0 	.word	0x080a57c0

080a2b3c <_ZN5Print5printEfi>:
{
  return write(c);
}

size_t Print::print(float n, int digits)
{
 80a2b3c:	b537      	push	{r0, r1, r2, r4, r5, lr}
 80a2b3e:	4605      	mov	r5, r0
 80a2b40:	4614      	mov	r4, r2
  return printFloat((double)n, digits);
 80a2b42:	4608      	mov	r0, r1
 80a2b44:	f001 fb2a 	bl	80a419c <__aeabi_f2d>
 80a2b48:	b2e4      	uxtb	r4, r4
 80a2b4a:	4602      	mov	r2, r0
 80a2b4c:	9400      	str	r4, [sp, #0]
 80a2b4e:	460b      	mov	r3, r1
 80a2b50:	4628      	mov	r0, r5
 80a2b52:	f7ff ff39 	bl	80a29c8 <_ZN5Print10printFloatEdh>
}
 80a2b56:	b003      	add	sp, #12
 80a2b58:	bd30      	pop	{r4, r5, pc}

080a2b5a <_ZN5Print11printf_implEbPKcz>:

  return n;
}

size_t Print::printf_impl(bool newline, const char* format, ...)
{
 80a2b5a:	b40c      	push	{r2, r3}
 80a2b5c:	e92d 43f0 	stmdb	sp!, {r4, r5, r6, r7, r8, r9, lr}
 80a2b60:	b087      	sub	sp, #28
 80a2b62:	af00      	add	r7, sp, #0
 80a2b64:	f107 0438 	add.w	r4, r7, #56	; 0x38
 80a2b68:	f854 9b04 	ldr.w	r9, [r4], #4
 80a2b6c:	4605      	mov	r5, r0
 80a2b6e:	460e      	mov	r6, r1
    const int bufsize = 20;
    char test[bufsize];
    va_list marker;
    va_start(marker, format);
    size_t n = vsnprintf(test, bufsize, format, marker);
 80a2b70:	4623      	mov	r3, r4
 80a2b72:	464a      	mov	r2, r9
 80a2b74:	2114      	movs	r1, #20
 80a2b76:	1d38      	adds	r0, r7, #4
size_t Print::printf_impl(bool newline, const char* format, ...)
{
    const int bufsize = 20;
    char test[bufsize];
    va_list marker;
    va_start(marker, format);
 80a2b78:	603c      	str	r4, [r7, #0]
    size_t n = vsnprintf(test, bufsize, format, marker);
 80a2b7a:	f7ff fd9f 	bl	80a26bc <vsnprintf>
    va_end(marker);

    if (n<bufsize)
 80a2b7e:	2813      	cmp	r0, #19
 80a2b80:	d805      	bhi.n	80a2b8e <_ZN5Print11printf_implEbPKcz+0x34>
  return n;
}

size_t Print::print(const char str[])
{
  return write(str);
 80a2b82:	1d39      	adds	r1, r7, #4
 80a2b84:	4628      	mov	r0, r5
 80a2b86:	f7ff fed1 	bl	80a292c <_ZN5Print5writeEPKc>
 80a2b8a:	4604      	mov	r4, r0
 80a2b8c:	e013      	b.n	80a2bb6 <_ZN5Print11printf_implEbPKcz+0x5c>
    {
        n = print(test);
    }
    else
    {
        char bigger[n+1];
 80a2b8e:	f100 0308 	add.w	r3, r0, #8
 80a2b92:	f023 0307 	bic.w	r3, r3, #7
        va_start(marker, format);
        n = vsnprintf(bigger, n+1, format, marker);
        va_end(marker);
        n = print(bigger);
 80a2b96:	46e8      	mov	r8, sp
    {
        n = print(test);
    }
    else
    {
        char bigger[n+1];
 80a2b98:	ebad 0d03 	sub.w	sp, sp, r3
        va_start(marker, format);
        n = vsnprintf(bigger, n+1, format, marker);
 80a2b9c:	1c41      	adds	r1, r0, #1
 80a2b9e:	4623      	mov	r3, r4
 80a2ba0:	464a      	mov	r2, r9
 80a2ba2:	4668      	mov	r0, sp
        n = print(test);
    }
    else
    {
        char bigger[n+1];
        va_start(marker, format);
 80a2ba4:	603c      	str	r4, [r7, #0]
        n = vsnprintf(bigger, n+1, format, marker);
 80a2ba6:	f7ff fd89 	bl	80a26bc <vsnprintf>
  return n;
}

size_t Print::print(const char str[])
{
  return write(str);
 80a2baa:	4669      	mov	r1, sp
 80a2bac:	4628      	mov	r0, r5
 80a2bae:	f7ff febd 	bl	80a292c <_ZN5Print5writeEPKc>
 80a2bb2:	4604      	mov	r4, r0
 80a2bb4:	46c5      	mov	sp, r8
        va_start(marker, format);
        n = vsnprintf(bigger, n+1, format, marker);
        va_end(marker);
        n = print(bigger);
    }
    if (newline)
 80a2bb6:	b11e      	cbz	r6, 80a2bc0 <_ZN5Print11printf_implEbPKcz+0x66>
        n += println();
 80a2bb8:	4628      	mov	r0, r5
 80a2bba:	f7ff fece 	bl	80a295a <_ZN5Print7printlnEv>
 80a2bbe:	4404      	add	r4, r0
    return n;
}
 80a2bc0:	4620      	mov	r0, r4
 80a2bc2:	371c      	adds	r7, #28
 80a2bc4:	46bd      	mov	sp, r7
 80a2bc6:	e8bd 43f0 	ldmia.w	sp!, {r4, r5, r6, r7, r8, r9, lr}
 80a2bca:	b002      	add	sp, #8
 80a2bcc:	4770      	bx	lr

080a2bce <_ZN5spark9WiFiClass2onEv>:
    bool ready(void) {
        return network_ready(*this, 0, NULL);
    }

    void on(void) {
        network_on(*this, 0, 0, NULL);
 80a2bce:	2300      	movs	r3, #0
 80a2bd0:	461a      	mov	r2, r3
 80a2bd2:	4619      	mov	r1, r3
 80a2bd4:	6840      	ldr	r0, [r0, #4]
 80a2bd6:	f7ff bd09 	b.w	80a25ec <network_on>

080a2bda <_ZNSt14__shared_countILN9__gnu_cxx12_Lock_policyE0EEC1ERKS2_>:
	if (_M_pi != nullptr)
	  _M_pi->_M_release();
      }

      __shared_count(const __shared_count& __r) noexcept
      : _M_pi(__r._M_pi)
 80a2bda:	680b      	ldr	r3, [r1, #0]
 80a2bdc:	6003      	str	r3, [r0, #0]
      {
	if (_M_pi != 0)
 80a2bde:	b113      	cbz	r3, 80a2be6 <_ZNSt14__shared_countILN9__gnu_cxx12_Lock_policyE0EEC1ERKS2_+0xc>
    }

  template<>
    inline void
    _Sp_counted_base<_S_single>::_M_add_ref_copy()
    { ++_M_use_count; }
 80a2be0:	685a      	ldr	r2, [r3, #4]
 80a2be2:	3201      	adds	r2, #1
 80a2be4:	605a      	str	r2, [r3, #4]
      __shared_count(const __shared_count& __r) noexcept
      : _M_pi(__r._M_pi)
      {
	if (_M_pi != 0)
	  _M_pi->_M_add_ref_copy();
      }
 80a2be6:	4770      	bx	lr

080a2be8 <_GLOBAL__sub_I__ZN5spark3LogE>:
    // This handler doesn't support direct logging
}

// spark::Logger
inline spark::Logger::Logger(const char *name) :
        name_(name) {
 80a2be8:	4a01      	ldr	r2, [pc, #4]	; (80a2bf0 <_GLOBAL__sub_I__ZN5spark3LogE+0x8>)
 80a2bea:	4b02      	ldr	r3, [pc, #8]	; (80a2bf4 <_GLOBAL__sub_I__ZN5spark3LogE+0xc>)
 80a2bec:	601a      	str	r2, [r3, #0]
 80a2bee:	4770      	bx	lr
 80a2bf0:	080a583c 	.word	0x080a583c
 80a2bf4:	20000178 	.word	0x20000178

080a2bf8 <_GLOBAL__sub_I_TIME_FORMAT_DEFAULT>:
            calendar_time_cache = Convert_UnixTime_To_CalendarTime(unix_time);
            unix_time_cache = unix_time;
    }
}

const char* TimeClass::format_spec = TIME_FORMAT_DEFAULT;
 80a2bf8:	4b02      	ldr	r3, [pc, #8]	; (80a2c04 <_GLOBAL__sub_I_TIME_FORMAT_DEFAULT+0xc>)
 80a2bfa:	681a      	ldr	r2, [r3, #0]
 80a2bfc:	4b02      	ldr	r3, [pc, #8]	; (80a2c08 <_GLOBAL__sub_I_TIME_FORMAT_DEFAULT+0x10>)
 80a2bfe:	601a      	str	r2, [r3, #0]
 80a2c00:	4770      	bx	lr
 80a2c02:	bf00      	nop
 80a2c04:	20000014 	.word	0x20000014
 80a2c08:	2000017c 	.word	0x2000017c

080a2c0c <delay>:
    return (value - fromStart) * (toEnd - toStart) / (fromEnd - fromStart) + toStart;
}

void delay(unsigned long ms)
{
    system_delay_ms(ms, false);
 80a2c0c:	2100      	movs	r1, #0
 80a2c0e:	f7ff bc99 	b.w	80a2544 <system_delay_ms>

080a2c12 <_ZNSt14_Function_baseD1Ev>:
	}
      };

    _Function_base() : _M_manager(nullptr) { }

    ~_Function_base()
 80a2c12:	b510      	push	{r4, lr}
    {
      if (_M_manager)
 80a2c14:	6883      	ldr	r3, [r0, #8]
	}
      };

    _Function_base() : _M_manager(nullptr) { }

    ~_Function_base()
 80a2c16:	4604      	mov	r4, r0
    {
      if (_M_manager)
 80a2c18:	b113      	cbz	r3, 80a2c20 <_ZNSt14_Function_baseD1Ev+0xe>
	_M_manager(_M_functor, _M_functor, __destroy_functor);
 80a2c1a:	2203      	movs	r2, #3
 80a2c1c:	4601      	mov	r1, r0
 80a2c1e:	4798      	blx	r3
    }
 80a2c20:	4620      	mov	r0, r4
 80a2c22:	bd10      	pop	{r4, pc}

080a2c24 <_ZN8RGBClassD1Ev>:
#include "rgbled.h"

typedef void (raw_rgb_change_handler_t)(uint8_t, uint8_t, uint8_t);
typedef std::function<raw_rgb_change_handler_t> wiring_rgb_change_handler_t;

class RGBClass {
 80a2c24:	b510      	push	{r4, lr}
 80a2c26:	4604      	mov	r4, r0
   *  @ingroup functors
   *
   *  Polymorphic function wrapper.
   */
  template<typename _Res, typename... _ArgTypes>
    class function<_Res(_ArgTypes...)>
 80a2c28:	f7ff fff3 	bl	80a2c12 <_ZNSt14_Function_baseD1Ev>
 80a2c2c:	4620      	mov	r0, r4
 80a2c2e:	bd10      	pop	{r4, pc}

080a2c30 <_ZSt4swapISt9_Any_dataEvRT_S2_>:
   *  @param  __b  Another thing of arbitrary type.
   *  @return   Nothing.
  */
  template<typename _Tp>
    inline void
    swap(_Tp& __a, _Tp& __b)
 80a2c30:	b513      	push	{r0, r1, r4, lr}
 80a2c32:	460b      	mov	r3, r1
 80a2c34:	4604      	mov	r4, r0
#endif
    {
      // concept requirements
      __glibcxx_function_requires(_SGIAssignableConcept<_Tp>)

      _Tp __tmp = _GLIBCXX_MOVE(__a);
 80a2c36:	c803      	ldmia	r0, {r0, r1}
 80a2c38:	e88d 0003 	stmia.w	sp, {r0, r1}
      __a = _GLIBCXX_MOVE(__b);
 80a2c3c:	e893 0003 	ldmia.w	r3, {r0, r1}
 80a2c40:	e884 0003 	stmia.w	r4, {r0, r1}
      __b = _GLIBCXX_MOVE(__tmp);
 80a2c44:	e89d 0003 	ldmia.w	sp, {r0, r1}
 80a2c48:	e883 0003 	stmia.w	r3, {r0, r1}
    }
 80a2c4c:	b002      	add	sp, #8
 80a2c4e:	bd10      	pop	{r4, pc}

080a2c50 <_GLOBAL__sub_I_RGB>:
	{
	  _Base::_M_init_functor(__functor, std::__addressof(__f.get()));
	}
      };

    _Function_base() : _M_manager(nullptr) { }
 80a2c50:	4803      	ldr	r0, [pc, #12]	; (80a2c60 <_GLOBAL__sub_I_RGB+0x10>)
 80a2c52:	2300      	movs	r3, #0
 80a2c54:	6083      	str	r3, [r0, #8]
#include "spark_wiring_rgb.h"
#include "spark_wiring_interrupts.h"

#include "core_hal.h"

RGBClass RGB;
 80a2c56:	4a03      	ldr	r2, [pc, #12]	; (80a2c64 <_GLOBAL__sub_I_RGB+0x14>)
 80a2c58:	4903      	ldr	r1, [pc, #12]	; (80a2c68 <_GLOBAL__sub_I_RGB+0x18>)
 80a2c5a:	f000 bfcf 	b.w	80a3bfc <__aeabi_atexit>
 80a2c5e:	bf00      	nop
 80a2c60:	20000180 	.word	0x20000180
 80a2c64:	20000080 	.word	0x20000080
 80a2c68:	080a2c25 	.word	0x080a2c25

080a2c6c <serialEventRun>:

/**
 * Provides background processing of serial data.
 */
void serialEventRun()
{
 80a2c6c:	b508      	push	{r3, lr}
    if (serialEvent && Serial.available()>0)
 80a2c6e:	4b14      	ldr	r3, [pc, #80]	; (80a2cc0 <serialEventRun+0x54>)
 80a2c70:	b133      	cbz	r3, 80a2c80 <serialEventRun+0x14>
 80a2c72:	f000 fc2b 	bl	80a34cc <_Z16_fetch_usbserialv>
 80a2c76:	6803      	ldr	r3, [r0, #0]
 80a2c78:	691b      	ldr	r3, [r3, #16]
 80a2c7a:	4798      	blx	r3
 80a2c7c:	2800      	cmp	r0, #0
 80a2c7e:	dc16      	bgt.n	80a2cae <serialEventRun+0x42>
        serialEvent();

    if (serialEvent1 && Serial1.available()>0)
 80a2c80:	4b10      	ldr	r3, [pc, #64]	; (80a2cc4 <serialEventRun+0x58>)
 80a2c82:	b133      	cbz	r3, 80a2c92 <serialEventRun+0x26>
 80a2c84:	f000 fd68 	bl	80a3758 <_Z22__fetch_global_Serial1v>
 80a2c88:	6803      	ldr	r3, [r0, #0]
 80a2c8a:	691b      	ldr	r3, [r3, #16]
 80a2c8c:	4798      	blx	r3
 80a2c8e:	2800      	cmp	r0, #0
 80a2c90:	dc10      	bgt.n	80a2cb4 <serialEventRun+0x48>
        serialEvent1();

#if Wiring_Serial2
    if (serialEventRun2) serialEventRun2();
 80a2c92:	4b0d      	ldr	r3, [pc, #52]	; (80a2cc8 <serialEventRun+0x5c>)
 80a2c94:	b10b      	cbz	r3, 80a2c9a <serialEventRun+0x2e>
 80a2c96:	f3af 8000 	nop.w
#if Wiring_Serial5
    if (serialEventRun5) serialEventRun5();
#endif

#if Wiring_USBSerial1
    if (usbSerialEvent1 && USBSerial1.available()>0)
 80a2c9a:	4b0c      	ldr	r3, [pc, #48]	; (80a2ccc <serialEventRun+0x60>)
 80a2c9c:	b17b      	cbz	r3, 80a2cbe <serialEventRun+0x52>
 80a2c9e:	f000 fc51 	bl	80a3544 <_Z17_fetch_usbserial1v>
 80a2ca2:	6803      	ldr	r3, [r0, #0]
 80a2ca4:	691b      	ldr	r3, [r3, #16]
 80a2ca6:	4798      	blx	r3
 80a2ca8:	2800      	cmp	r0, #0
 80a2caa:	dc06      	bgt.n	80a2cba <serialEventRun+0x4e>
 80a2cac:	bd08      	pop	{r3, pc}
 * Provides background processing of serial data.
 */
void serialEventRun()
{
    if (serialEvent && Serial.available()>0)
        serialEvent();
 80a2cae:	f3af 8000 	nop.w
 80a2cb2:	e7e5      	b.n	80a2c80 <serialEventRun+0x14>

    if (serialEvent1 && Serial1.available()>0)
        serialEvent1();
 80a2cb4:	f3af 8000 	nop.w
 80a2cb8:	e7eb      	b.n	80a2c92 <serialEventRun+0x26>
    if (serialEventRun5) serialEventRun5();
#endif

#if Wiring_USBSerial1
    if (usbSerialEvent1 && USBSerial1.available()>0)
        usbSerialEvent1();
 80a2cba:	f3af 8000 	nop.w
 80a2cbe:	bd08      	pop	{r3, pc}
	...

080a2cd0 <_post_loop>:
#if Wiring_Serial5
void serialEvent5() __attribute__((weak));
#endif

void _post_loop()
{
 80a2cd0:	b508      	push	{r3, lr}
	serialEventRun();
 80a2cd2:	f7ff ffcb 	bl	80a2c6c <serialEventRun>
		return !timeout_fn;
	}

	static inline system_tick_t current_time()
	{
		return HAL_Timer_Get_Milli_Seconds();
 80a2cd6:	f7ff fb0b 	bl	80a22f0 <HAL_Timer_Get_Milli_Seconds>
	/**
	 * Lifesign that the application is still working normally.
	 */
	static void checkin()
	{
		last_checkin = current_time();
 80a2cda:	4b01      	ldr	r3, [pc, #4]	; (80a2ce0 <_post_loop+0x10>)
 80a2cdc:	6018      	str	r0, [r3, #0]
 80a2cde:	bd08      	pop	{r3, pc}
 80a2ce0:	20000678 	.word	0x20000678

080a2ce4 <_Z33system_initialize_user_backup_ramv>:
 * the dynamically linked application module.
 */
void system_initialize_user_backup_ram()
{
    size_t len = &link_global_retained_end-&link_global_retained_start;
    memcpy(&link_global_retained_start, &link_global_retained_initial_values, len);
 80a2ce4:	4802      	ldr	r0, [pc, #8]	; (80a2cf0 <_Z33system_initialize_user_backup_ramv+0xc>)
 80a2ce6:	4a03      	ldr	r2, [pc, #12]	; (80a2cf4 <_Z33system_initialize_user_backup_ramv+0x10>)
 80a2ce8:	4903      	ldr	r1, [pc, #12]	; (80a2cf8 <_Z33system_initialize_user_backup_ramv+0x14>)
 80a2cea:	1a12      	subs	r2, r2, r0
 80a2cec:	f001 bf0e 	b.w	80a4b0c <memcpy>
 80a2cf0:	40024000 	.word	0x40024000
 80a2cf4:	40024004 	.word	0x40024004
 80a2cf8:	080a5aa0 	.word	0x080a5aa0

080a2cfc <_Z27ctrl_request_custom_handlerP12ctrl_request>:
bool __backup_ram_was_valid() { return false; }

#endif

// Default handler for CTRL_REQUEST_APP_CUSTOM requests
void __attribute((weak)) ctrl_request_custom_handler(ctrl_request* req) {
 80a2cfc:	b507      	push	{r0, r1, r2, lr}
    system_ctrl_set_result(req, SYSTEM_ERROR_NOT_SUPPORTED, nullptr, nullptr, nullptr);
 80a2cfe:	2300      	movs	r3, #0
 80a2d00:	9300      	str	r3, [sp, #0]
 80a2d02:	461a      	mov	r2, r3
 80a2d04:	f06f 0177 	mvn.w	r1, #119	; 0x77
 80a2d08:	f7ff fc46 	bl	80a2598 <system_ctrl_set_result>
}
 80a2d0c:	b003      	add	sp, #12
 80a2d0e:	f85d fb04 	ldr.w	pc, [sp], #4
	...

080a2d14 <_ZL20ctrl_request_handlerP12ctrl_request>:
// Callback invoked to process a logging configuration request
void(*log_process_ctrl_request_callback)(ctrl_request* req) = nullptr;
#endif

// Application handler for control requests
static void ctrl_request_handler(ctrl_request* req) {
 80a2d14:	b507      	push	{r0, r1, r2, lr}
    switch (req->type) {
 80a2d16:	8843      	ldrh	r3, [r0, #2]
 80a2d18:	2b0a      	cmp	r3, #10
 80a2d1a:	d008      	beq.n	80a2d2e <_ZL20ctrl_request_handlerP12ctrl_request+0x1a>
 80a2d1c:	2b50      	cmp	r3, #80	; 0x50
 80a2d1e:	d109      	bne.n	80a2d34 <_ZL20ctrl_request_handlerP12ctrl_request+0x20>
#if Wiring_LogConfig
    case CTRL_REQUEST_LOG_CONFIG: {
        if (log_process_ctrl_request_callback) {
 80a2d20:	4b09      	ldr	r3, [pc, #36]	; (80a2d48 <_ZL20ctrl_request_handlerP12ctrl_request+0x34>)
 80a2d22:	681b      	ldr	r3, [r3, #0]
 80a2d24:	b13b      	cbz	r3, 80a2d36 <_ZL20ctrl_request_handlerP12ctrl_request+0x22>
    }
    default:
        system_ctrl_set_result(req, SYSTEM_ERROR_NOT_SUPPORTED, nullptr, nullptr, nullptr);
        break;
    }
}
 80a2d26:	b003      	add	sp, #12
 80a2d28:	f85d eb04 	ldr.w	lr, [sp], #4
static void ctrl_request_handler(ctrl_request* req) {
    switch (req->type) {
#if Wiring_LogConfig
    case CTRL_REQUEST_LOG_CONFIG: {
        if (log_process_ctrl_request_callback) {
            log_process_ctrl_request_callback(req);
 80a2d2c:	4718      	bx	r3
        }
        break;
    }
#endif
    case CTRL_REQUEST_APP_CUSTOM: {
        ctrl_request_custom_handler(req);
 80a2d2e:	f7ff ffe5 	bl	80a2cfc <_Z27ctrl_request_custom_handlerP12ctrl_request>
        break;
 80a2d32:	e006      	b.n	80a2d42 <_ZL20ctrl_request_handlerP12ctrl_request+0x2e>
    }
    default:
        system_ctrl_set_result(req, SYSTEM_ERROR_NOT_SUPPORTED, nullptr, nullptr, nullptr);
 80a2d34:	2300      	movs	r3, #0
 80a2d36:	9300      	str	r3, [sp, #0]
 80a2d38:	461a      	mov	r2, r3
 80a2d3a:	f06f 0177 	mvn.w	r1, #119	; 0x77
 80a2d3e:	f7ff fc2b 	bl	80a2598 <system_ctrl_set_result>
        break;
    }
}
 80a2d42:	b003      	add	sp, #12
 80a2d44:	f85d fb04 	ldr.w	pc, [sp], #4
 80a2d48:	20000190 	.word	0x20000190

080a2d4c <module_user_init_hook>:

void module_user_init_hook()
{
 80a2d4c:	b538      	push	{r3, r4, r5, lr}
#if HAL_PLATFORM_BACKUP_RAM
    backup_ram_was_valid_ =  __backup_sram_signature==signature;
 80a2d4e:	4c10      	ldr	r4, [pc, #64]	; (80a2d90 <module_user_init_hook+0x44>)
 80a2d50:	4d10      	ldr	r5, [pc, #64]	; (80a2d94 <module_user_init_hook+0x48>)
 80a2d52:	6823      	ldr	r3, [r4, #0]
 80a2d54:	42ab      	cmp	r3, r5
 80a2d56:	4b10      	ldr	r3, [pc, #64]	; (80a2d98 <module_user_init_hook+0x4c>)
 80a2d58:	bf0c      	ite	eq
 80a2d5a:	2201      	moveq	r2, #1
 80a2d5c:	2200      	movne	r2, #0
 80a2d5e:	701a      	strb	r2, [r3, #0]
    if (!backup_ram_was_valid_) {
 80a2d60:	d002      	beq.n	80a2d68 <module_user_init_hook+0x1c>
        system_initialize_user_backup_ram();
 80a2d62:	f7ff ffbf 	bl	80a2ce4 <_Z33system_initialize_user_backup_ramv>
        __backup_sram_signature = signature;
 80a2d66:	6025      	str	r5, [r4, #0]
    }
#endif

#if HAL_PLATFORM_RNG
    // Initialize the default stdlib PRNG using hardware RNG as a seed
    const uint32_t seed = HAL_RNG_GetRandomNumber();
 80a2d68:	f7ff faaa 	bl	80a22c0 <HAL_RNG_GetRandomNumber>
 80a2d6c:	4604      	mov	r4, r0
    srand(seed);
 80a2d6e:	f001 fee1 	bl	80a4b34 <srand>

    // If the user defines random_seed_from_cloud, call it with a seed value
    // generated by a hardware RNG as well.
    if (random_seed_from_cloud) {
 80a2d72:	4b0a      	ldr	r3, [pc, #40]	; (80a2d9c <module_user_init_hook+0x50>)
 80a2d74:	b113      	cbz	r3, 80a2d7c <module_user_init_hook+0x30>
        random_seed_from_cloud(seed);
 80a2d76:	4620      	mov	r0, r4
 80a2d78:	f3af 8000 	nop.w
    }
#endif
    // Register the random_seed_from_cloud handler
    spark_set_random_seed_from_cloud_handler(&random_seed_from_cloud, nullptr);
 80a2d7c:	2100      	movs	r1, #0
 80a2d7e:	4807      	ldr	r0, [pc, #28]	; (80a2d9c <module_user_init_hook+0x50>)
 80a2d80:	f7ff fc84 	bl	80a268c <spark_set_random_seed_from_cloud_handler>

    // Register application handler for the control requests
    system_ctrl_set_app_request_handler(ctrl_request_handler, nullptr);
}
 80a2d84:	e8bd 4038 	ldmia.w	sp!, {r3, r4, r5, lr}
#endif
    // Register the random_seed_from_cloud handler
    spark_set_random_seed_from_cloud_handler(&random_seed_from_cloud, nullptr);

    // Register application handler for the control requests
    system_ctrl_set_app_request_handler(ctrl_request_handler, nullptr);
 80a2d88:	2100      	movs	r1, #0
 80a2d8a:	4805      	ldr	r0, [pc, #20]	; (80a2da0 <module_user_init_hook+0x54>)
 80a2d8c:	f7ff bbfa 	b.w	80a2584 <system_ctrl_set_app_request_handler>
 80a2d90:	40024000 	.word	0x40024000
 80a2d94:	9a271c1e 	.word	0x9a271c1e
 80a2d98:	20000194 	.word	0x20000194
 80a2d9c:	00000000 	.word	0x00000000
 80a2da0:	080a2d15 	.word	0x080a2d15

080a2da4 <_ZNSt15_Sp_counted_ptrIPN8particle6detail10FutureImplIbNS1_13FutureContextEEELN9__gnu_cxx12_Lock_policyE0EED1Ev>:
    class __shared_count;


  // Counted ptr with no deleter or allocator support
  template<typename _Ptr, _Lock_policy _Lp>
    class _Sp_counted_ptr final : public _Sp_counted_base<_Lp>
 80a2da4:	4770      	bx	lr

080a2da6 <_ZNSt15_Sp_counted_ptrIPN8particle6detail10FutureImplIbNS1_13FutureContextEEELN9__gnu_cxx12_Lock_policyE0EE14_M_get_deleterERKSt9type_info>:
      _M_destroy() noexcept
      { delete this; }

      virtual void*
      _M_get_deleter(const std::type_info&) noexcept
      { return nullptr; }
 80a2da6:	2000      	movs	r0, #0
 80a2da8:	4770      	bx	lr

080a2daa <_ZNSt15_Sp_counted_ptrIPN8particle6detail10FutureImplIbNS1_13FutureContextEEELN9__gnu_cxx12_Lock_policyE0EED0Ev>:
    class __shared_count;


  // Counted ptr with no deleter or allocator support
  template<typename _Ptr, _Lock_policy _Lp>
    class _Sp_counted_ptr final : public _Sp_counted_base<_Lp>
 80a2daa:	b510      	push	{r4, lr}
 80a2dac:	4604      	mov	r4, r0
 80a2dae:	2110      	movs	r1, #16
 80a2db0:	f000 ff32 	bl	80a3c18 <_ZdlPvj>
 80a2db4:	4620      	mov	r0, r4
 80a2db6:	bd10      	pop	{r4, pc}

080a2db8 <_ZNSt15_Sp_counted_ptrIPN8particle6detail10FutureImplIbNS1_13FutureContextEEELN9__gnu_cxx12_Lock_policyE0EE10_M_destroyEv>:
      virtual void
      _M_dispose() noexcept
      { delete _M_ptr; }

      virtual void
      _M_destroy() noexcept
 80a2db8:	b508      	push	{r3, lr}
      { delete this; }
 80a2dba:	b108      	cbz	r0, 80a2dc0 <_ZNSt15_Sp_counted_ptrIPN8particle6detail10FutureImplIbNS1_13FutureContextEEELN9__gnu_cxx12_Lock_policyE0EE10_M_destroyEv+0x8>
 80a2dbc:	f7ff fff5 	bl	80a2daa <_ZNSt15_Sp_counted_ptrIPN8particle6detail10FutureImplIbNS1_13FutureContextEEELN9__gnu_cxx12_Lock_policyE0EED0Ev>
 80a2dc0:	bd08      	pop	{r3, pc}

080a2dc2 <_ZN8particle5ErrorC1EOS0_>:

} // namespace particle

inline particle::Error::Error(Type type) :
        msg_(nullptr),
        type_(type) {
 80a2dc2:	2200      	movs	r2, #0
 80a2dc4:	6002      	str	r2, [r0, #0]
 80a2dc6:	f64f 729c 	movw	r2, #65436	; 0xff9c
 80a2dca:	8082      	strh	r2, [r0, #4]

inline particle::Error::Error(const Error& error) :
        Error(error.type_, error.msg_) {
}

inline particle::Error::Error(Error&& error) :
 80a2dcc:	b510      	push	{r4, lr}
    {
      // concept requirements
      __glibcxx_function_requires(_SGIAssignableConcept<_Tp>)

      _Tp __tmp = _GLIBCXX_MOVE(__a);
      __a = _GLIBCXX_MOVE(__b);
 80a2dce:	f9b1 4004 	ldrsh.w	r4, [r1, #4]
 80a2dd2:	8084      	strh	r4, [r0, #4]
      __b = _GLIBCXX_MOVE(__tmp);
 80a2dd4:	808a      	strh	r2, [r1, #4]
#endif
    {
      // concept requirements
      __glibcxx_function_requires(_SGIAssignableConcept<_Tp>)

      _Tp __tmp = _GLIBCXX_MOVE(__a);
 80a2dd6:	6802      	ldr	r2, [r0, #0]
      __a = _GLIBCXX_MOVE(__b);
 80a2dd8:	680c      	ldr	r4, [r1, #0]
 80a2dda:	6004      	str	r4, [r0, #0]
      __b = _GLIBCXX_MOVE(__tmp);
 80a2ddc:	600a      	str	r2, [r1, #0]
        Error() {
    swap(*this, error);
}
 80a2dde:	bd10      	pop	{r4, pc}

080a2de0 <_ZN8particle5ErrorD1Ev>:

inline particle::Error::~Error() {
 80a2de0:	b510      	push	{r4, lr}
 80a2de2:	4604      	mov	r4, r0
    free((void*)msg_);
 80a2de4:	6800      	ldr	r0, [r0, #0]
 80a2de6:	f7ff fc61 	bl	80a26ac <free>
}
 80a2dea:	4620      	mov	r0, r4
 80a2dec:	bd10      	pop	{r4, pc}

080a2dee <_ZNSt15_Sp_counted_ptrIPN8particle6detail10FutureImplIbNS1_13FutureContextEEELN9__gnu_cxx12_Lock_policyE0EE10_M_disposeEv>:
      explicit
      _Sp_counted_ptr(_Ptr __p) noexcept
      : _M_ptr(__p) { }

      virtual void
      _M_dispose() noexcept
 80a2dee:	b538      	push	{r3, r4, r5, lr}
      { delete _M_ptr; }
 80a2df0:	68c4      	ldr	r4, [r0, #12]
 80a2df2:	b1f4      	cbz	r4, 80a2e32 <_ZNSt15_Sp_counted_ptrIPN8particle6detail10FutureImplIbNS1_13FutureContextEEELN9__gnu_cxx12_Lock_policyE0EE10_M_disposeEv+0x44>

      _Tp
      load(memory_order __m = memory_order_seq_cst) const noexcept
      { 
        _Tp tmp;
	__atomic_load(&_M_i, &tmp, __m);
 80a2df4:	7823      	ldrb	r3, [r4, #0]
    ~FutureImpl() {
        // Call destructor of the appropriate unnamed enum's field
        const State s = this->state();
        if (s == State::SUCCEEDED) {
            result_.~ResultT();
        } else if (s == State::FAILED) {
 80a2df6:	2b02      	cmp	r3, #2
 80a2df8:	d103      	bne.n	80a2e02 <_ZNSt15_Sp_counted_ptrIPN8particle6detail10FutureImplIbNS1_13FutureContextEEELN9__gnu_cxx12_Lock_policyE0EE10_M_disposeEv+0x14>
            error_.~Error();
 80a2dfa:	f104 000c 	add.w	r0, r4, #12
 80a2dfe:	f7ff ffef 	bl	80a2de0 <_ZN8particle5ErrorD1Ev>
      {
        memory_order __b = __m & __memory_order_mask;
	__glibcxx_assert(__b != memory_order_release);
	__glibcxx_assert(__b != memory_order_acq_rel);

	return __atomic_load_n(&_M_p, __m);
 80a2e02:	6865      	ldr	r5, [r4, #4]
    // Completion callback types
    typedef typename detail::FutureCallbackTypes<ResultT>::OnSuccess OnSuccessCallback;
    typedef typename detail::FutureCallbackTypes<ResultT>::OnError OnErrorCallback;

    ~FutureImplBase() {
        delete onSuccess_.load(std::memory_order_relaxed);
 80a2e04:	b135      	cbz	r5, 80a2e14 <_ZNSt15_Sp_counted_ptrIPN8particle6detail10FutureImplIbNS1_13FutureContextEEELN9__gnu_cxx12_Lock_policyE0EE10_M_disposeEv+0x26>
   *  @ingroup functors
   *
   *  Polymorphic function wrapper.
   */
  template<typename _Res, typename... _ArgTypes>
    class function<_Res(_ArgTypes...)>
 80a2e06:	4628      	mov	r0, r5
 80a2e08:	f7ff ff03 	bl	80a2c12 <_ZNSt14_Function_baseD1Ev>
 80a2e0c:	2110      	movs	r1, #16
 80a2e0e:	4628      	mov	r0, r5
 80a2e10:	f000 ff02 	bl	80a3c18 <_ZdlPvj>
 80a2e14:	68a5      	ldr	r5, [r4, #8]
        delete onError_.load(std::memory_order_relaxed);
 80a2e16:	b135      	cbz	r5, 80a2e26 <_ZNSt15_Sp_counted_ptrIPN8particle6detail10FutureImplIbNS1_13FutureContextEEELN9__gnu_cxx12_Lock_policyE0EE10_M_disposeEv+0x38>
 80a2e18:	4628      	mov	r0, r5
 80a2e1a:	f7ff fefa 	bl	80a2c12 <_ZNSt14_Function_baseD1Ev>
 80a2e1e:	2110      	movs	r1, #16
 80a2e20:	4628      	mov	r0, r5
 80a2e22:	f000 fef9 	bl	80a3c18 <_ZdlPvj>
 80a2e26:	4620      	mov	r0, r4
 80a2e28:	e8bd 4038 	ldmia.w	sp!, {r3, r4, r5, lr}
 80a2e2c:	2114      	movs	r1, #20
 80a2e2e:	f000 bef3 	b.w	80a3c18 <_ZdlPvj>
 80a2e32:	bd38      	pop	{r3, r4, r5, pc}

080a2e34 <_ZN8particle6FutureIbNS_6detail13FutureContextEEC1ESt10shared_ptrINS1_10FutureImplIbS2_EEE>:
};

template<typename ResultT, typename ContextT = detail::FutureContext>
class Future: public FutureBase<ResultT, ContextT> {
public:
    using FutureBase<ResultT, ContextT>::FutureBase;
 80a2e34:	b513      	push	{r0, r1, r4, lr}
 80a2e36:	4604      	mov	r4, r0
      }

      void
      _M_swap(__shared_count& __r) noexcept
      {
	_Sp_counted_base<_Lp>* __tmp = __r._M_pi;
 80a2e38:	e891 0005 	ldmia.w	r1, {r0, r2}
	__r._M_pi = _M_pi;
 80a2e3c:	2300      	movs	r3, #0
 80a2e3e:	604b      	str	r3, [r1, #4]

      __shared_ptr(__shared_ptr&& __r) noexcept
      : _M_ptr(__r._M_ptr), _M_refcount()
      {
	_M_refcount._M_swap(__r._M_refcount);
	__r._M_ptr = 0;
 80a2e40:	600b      	str	r3, [r1, #0]
	__shared_ptr(const __shared_ptr<_Tp1, _Lp>& __r) noexcept
	: _M_ptr(__r._M_ptr), _M_refcount(__r._M_refcount)
	{ }

      __shared_ptr(__shared_ptr&& __r) noexcept
      : _M_ptr(__r._M_ptr), _M_refcount()
 80a2e42:	6020      	str	r0, [r4, #0]
      void
      _M_swap(__shared_count& __r) noexcept
      {
	_Sp_counted_base<_Lp>* __tmp = __r._M_pi;
	__r._M_pi = _M_pi;
	_M_pi = __tmp;
 80a2e44:	6062      	str	r2, [r4, #4]
	: _M_ptr(__p), _M_refcount(__r._M_refcount) // never throws
	{ }

      __shared_ptr(const __shared_ptr&) noexcept = default;
      __shared_ptr& operator=(const __shared_ptr&) noexcept = default;
      ~__shared_ptr() = default;
 80a2e46:	a801      	add	r0, sp, #4

      void
      _M_swap(__shared_count& __r) noexcept
      {
	_Sp_counted_base<_Lp>* __tmp = __r._M_pi;
	__r._M_pi = _M_pi;
 80a2e48:	9301      	str	r3, [sp, #4]

      __shared_ptr(__shared_ptr&& __r) noexcept
      : _M_ptr(__r._M_ptr), _M_refcount()
      {
	_M_refcount._M_swap(__r._M_refcount);
	__r._M_ptr = 0;
 80a2e4a:	9300      	str	r3, [sp, #0]
	: _M_ptr(__p), _M_refcount(__r._M_refcount) // never throws
	{ }

      __shared_ptr(const __shared_ptr&) noexcept = default;
      __shared_ptr& operator=(const __shared_ptr&) noexcept = default;
      ~__shared_ptr() = default;
 80a2e4c:	f7fd fa8b 	bl	80a0366 <_ZNSt14__shared_countILN9__gnu_cxx12_Lock_policyE0EED1Ev>
 80a2e50:	4620      	mov	r0, r4
 80a2e52:	b002      	add	sp, #8
 80a2e54:	bd10      	pop	{r4, pc}

080a2e56 <_ZN8particle11PromiseBaseIbNS_6detail13FutureContextEE11fromDataPtrEPv>:
        // TODO: Use custom reference counting object to avoid unnecessary memory allocation
        return new detail::FutureImplPtr<ResultT, ContextT>(p_);
    }

    // Unwraps promise from an object pointer created via dataPtr() method
    static Promise<ResultT, ContextT> fromDataPtr(void* data) {
 80a2e56:	b5f7      	push	{r0, r1, r2, r4, r5, r6, r7, lr}
      template<typename _Tp1>
	__shared_ptr(const __shared_ptr<_Tp1, _Lp>& __r, _Tp* __p) noexcept
	: _M_ptr(__p), _M_refcount(__r._M_refcount) // never throws
	{ }

      __shared_ptr(const __shared_ptr&) noexcept = default;
 80a2e58:	460c      	mov	r4, r1
 80a2e5a:	4606      	mov	r6, r0
 80a2e5c:	460f      	mov	r7, r1
 80a2e5e:	f854 3b04 	ldr.w	r3, [r4], #4
 80a2e62:	ad02      	add	r5, sp, #8
 80a2e64:	f845 3d08 	str.w	r3, [r5, #-8]!
 80a2e68:	4621      	mov	r1, r4
 80a2e6a:	a801      	add	r0, sp, #4
 80a2e6c:	f7ff feb5 	bl	80a2bda <_ZNSt14__shared_countILN9__gnu_cxx12_Lock_policyE0EEC1ERKS2_>
        auto d = static_cast<detail::FutureImplPtr<ResultT, ContextT>*>(data);
        const Promise<ResultT, ContextT> p(*d);
 80a2e70:	4629      	mov	r1, r5
 80a2e72:	4630      	mov	r0, r6
 80a2e74:	f7ff ffde 	bl	80a2e34 <_ZN8particle6FutureIbNS_6detail13FutureContextEEC1ESt10shared_ptrINS1_10FutureImplIbS2_EEE>
      __shared_ptr& operator=(const __shared_ptr&) noexcept = default;
      ~__shared_ptr() = default;
 80a2e78:	a801      	add	r0, sp, #4
 80a2e7a:	f7fd fa74 	bl	80a0366 <_ZNSt14__shared_countILN9__gnu_cxx12_Lock_policyE0EED1Ev>
 80a2e7e:	4620      	mov	r0, r4
 80a2e80:	f7fd fa71 	bl	80a0366 <_ZNSt14__shared_countILN9__gnu_cxx12_Lock_policyE0EED1Ev>
        delete d;
 80a2e84:	4638      	mov	r0, r7
 80a2e86:	2108      	movs	r1, #8
 80a2e88:	f000 fec6 	bl	80a3c18 <_ZdlPvj>
        return p;
    }
 80a2e8c:	4630      	mov	r0, r6
 80a2e8e:	b003      	add	sp, #12
 80a2e90:	bdf0      	pop	{r4, r5, r6, r7, pc}
	...

080a2e94 <_ZNSt14__shared_countILN9__gnu_cxx12_Lock_policyE0EEC1IPN8particle6detail10FutureImplIbNS5_13FutureContextEEEEET_>:
      constexpr __shared_count() noexcept : _M_pi(0)
      { }

      template<typename _Ptr>
        explicit
	__shared_count(_Ptr __p) : _M_pi(0)
 80a2e94:	b538      	push	{r3, r4, r5, lr}
 80a2e96:	2300      	movs	r3, #0
 80a2e98:	4604      	mov	r4, r0
 80a2e9a:	6003      	str	r3, [r0, #0]
	{
	  __try
	    {
	      _M_pi = new _Sp_counted_ptr<_Ptr, _Lp>(__p);
 80a2e9c:	2010      	movs	r0, #16
      constexpr __shared_count() noexcept : _M_pi(0)
      { }

      template<typename _Ptr>
        explicit
	__shared_count(_Ptr __p) : _M_pi(0)
 80a2e9e:	460d      	mov	r5, r1
	{
	  __try
	    {
	      _M_pi = new _Sp_counted_ptr<_Ptr, _Lp>(__p);
 80a2ea0:	f7fd f8fd 	bl	80a009e <_Znwj>
 80a2ea4:	b128      	cbz	r0, 80a2eb2 <_ZNSt14__shared_countILN9__gnu_cxx12_Lock_policyE0EEC1IPN8particle6detail10FutureImplIbNS5_13FutureContextEEEEET_+0x1e>
    class _Sp_counted_base
    : public _Mutex_base<_Lp>
    {
    public:  
      _Sp_counted_base() noexcept
      : _M_use_count(1), _M_weak_count(1) { }
 80a2ea6:	2301      	movs	r3, #1
 80a2ea8:	6043      	str	r3, [r0, #4]
 80a2eaa:	6083      	str	r3, [r0, #8]
    class _Sp_counted_ptr final : public _Sp_counted_base<_Lp>
    {
    public:
      explicit
      _Sp_counted_ptr(_Ptr __p) noexcept
      : _M_ptr(__p) { }
 80a2eac:	4b02      	ldr	r3, [pc, #8]	; (80a2eb8 <_ZNSt14__shared_countILN9__gnu_cxx12_Lock_policyE0EEC1IPN8particle6detail10FutureImplIbNS5_13FutureContextEEEEET_+0x24>)
 80a2eae:	60c5      	str	r5, [r0, #12]
 80a2eb0:	6003      	str	r3, [r0, #0]
        explicit
	__shared_count(_Ptr __p) : _M_pi(0)
	{
	  __try
	    {
	      _M_pi = new _Sp_counted_ptr<_Ptr, _Lp>(__p);
 80a2eb2:	6020      	str	r0, [r4, #0]
	  __catch(...)
	    {
	      delete __p;
	      __throw_exception_again;
	    }
	}
 80a2eb4:	4620      	mov	r0, r4
 80a2eb6:	bd38      	pop	{r3, r4, r5, pc}
 80a2eb8:	080a58dc 	.word	0x080a58dc

080a2ebc <_ZNKSt8functionIFvRKN8particle5ErrorEEEclES3_>:
  template<typename _Res, typename... _ArgTypes>
    _Res
    function<_Res(_ArgTypes...)>::
    operator()(_ArgTypes... __args) const
    {
      if (_M_empty())
 80a2ebc:	6882      	ldr	r2, [r0, #8]
	  }
      }

  template<typename _Res, typename... _ArgTypes>
    _Res
    function<_Res(_ArgTypes...)>::
 80a2ebe:	b510      	push	{r4, lr}
    operator()(_ArgTypes... __args) const
    {
      if (_M_empty())
 80a2ec0:	b90a      	cbnz	r2, 80a2ec6 <_ZNKSt8functionIFvRKN8particle5ErrorEEEclES3_+0xa>
	__throw_bad_function_call();
 80a2ec2:	f000 febc 	bl	80a3c3e <_ZSt25__throw_bad_function_callv>
      return _M_invoker(_M_functor, std::forward<_ArgTypes>(__args)...);
 80a2ec6:	68c3      	ldr	r3, [r0, #12]
    }
 80a2ec8:	e8bd 4010 	ldmia.w	sp!, {r4, lr}
    function<_Res(_ArgTypes...)>::
    operator()(_ArgTypes... __args) const
    {
      if (_M_empty())
	__throw_bad_function_call();
      return _M_invoker(_M_functor, std::forward<_ArgTypes>(__args)...);
 80a2ecc:	4718      	bx	r3

080a2ece <_ZNSt17_Function_handlerIFvvESt5_BindIFSt8functionIFvRKN8particle5ErrorEEES4_EEE9_M_invokeERKSt9_Any_data>:
    {
      typedef _Function_base::_Base_manager<_Functor> _Base;

     public:
      static void
      _M_invoke(const _Any_data& __functor, _ArgTypes&&... __args)
 80a2ece:	b508      	push	{r3, lr}
	static _Functor*
	_M_get_pointer(const _Any_data& __source)
	{
	  const _Functor* __ptr =
	    __stored_locally? std::__addressof(__source._M_access<_Functor>())
	    /* have stored a pointer */ : __source._M_access<_Functor*>();
 80a2ed0:	6800      	ldr	r0, [r0, #0]
      template<typename _Result, typename... _Args, std::size_t... _Indexes>
	_Result
	__call(tuple<_Args...>&& __args, _Index_tuple<_Indexes...>)
	{
	  return _M_f(_Mu<_Bound_args>()
		      (std::get<_Indexes>(_M_bound_args), __args)...);
 80a2ed2:	f100 0110 	add.w	r1, r0, #16
 80a2ed6:	f7ff fff1 	bl	80a2ebc <_ZNKSt8functionIFvRKN8particle5ErrorEEEclES3_>
 80a2eda:	bd08      	pop	{r3, pc}

080a2edc <_ZNKSt8functionIFvRKbEEclES1_>:
  template<typename _Res, typename... _ArgTypes>
    _Res
    function<_Res(_ArgTypes...)>::
    operator()(_ArgTypes... __args) const
    {
      if (_M_empty())
 80a2edc:	6882      	ldr	r2, [r0, #8]
	  }
      }

  template<typename _Res, typename... _ArgTypes>
    _Res
    function<_Res(_ArgTypes...)>::
 80a2ede:	b510      	push	{r4, lr}
    operator()(_ArgTypes... __args) const
    {
      if (_M_empty())
 80a2ee0:	b90a      	cbnz	r2, 80a2ee6 <_ZNKSt8functionIFvRKbEEclES1_+0xa>
	__throw_bad_function_call();
 80a2ee2:	f000 feac 	bl	80a3c3e <_ZSt25__throw_bad_function_callv>
      return _M_invoker(_M_functor, std::forward<_ArgTypes>(__args)...);
 80a2ee6:	68c3      	ldr	r3, [r0, #12]
    }
 80a2ee8:	e8bd 4010 	ldmia.w	sp!, {r4, lr}
    function<_Res(_ArgTypes...)>::
    operator()(_ArgTypes... __args) const
    {
      if (_M_empty())
	__throw_bad_function_call();
      return _M_invoker(_M_functor, std::forward<_ArgTypes>(__args)...);
 80a2eec:	4718      	bx	r3

080a2eee <_ZNSt17_Function_handlerIFvvESt5_BindIFSt8functionIFvRKbEEbEEE9_M_invokeERKSt9_Any_data>:
    {
      typedef _Function_base::_Base_manager<_Functor> _Base;

     public:
      static void
      _M_invoke(const _Any_data& __functor, _ArgTypes&&... __args)
 80a2eee:	b508      	push	{r3, lr}
	static _Functor*
	_M_get_pointer(const _Any_data& __source)
	{
	  const _Functor* __ptr =
	    __stored_locally? std::__addressof(__source._M_access<_Functor>())
	    /* have stored a pointer */ : __source._M_access<_Functor*>();
 80a2ef0:	6800      	ldr	r0, [r0, #0]
      template<typename _Result, typename... _Args, std::size_t... _Indexes>
	_Result
	__call(tuple<_Args...>&& __args, _Index_tuple<_Indexes...>)
	{
	  return _M_f(_Mu<_Bound_args>()
		      (std::get<_Indexes>(_M_bound_args), __args)...);
 80a2ef2:	f100 0110 	add.w	r1, r0, #16
 80a2ef6:	f7ff fff1 	bl	80a2edc <_ZNKSt8functionIFvRKbEEclES1_>
 80a2efa:	bd08      	pop	{r3, pc}

080a2efc <_ZNSt8functionIFvRKN8particle5ErrorEEEC1ERKS5_>:
      _Invoker_type _M_invoker;
  };

  // Out-of-line member definitions.
  template<typename _Res, typename... _ArgTypes>
    function<_Res(_ArgTypes...)>::
 80a2efc:	b538      	push	{r3, r4, r5, lr}
	{
	  _Base::_M_init_functor(__functor, std::__addressof(__f.get()));
	}
      };

    _Function_base() : _M_manager(nullptr) { }
 80a2efe:	2300      	movs	r3, #0
 80a2f00:	6083      	str	r3, [r0, #8]
 80a2f02:	688b      	ldr	r3, [r1, #8]
      _Invoker_type _M_invoker;
  };

  // Out-of-line member definitions.
  template<typename _Res, typename... _ArgTypes>
    function<_Res(_ArgTypes...)>::
 80a2f04:	4604      	mov	r4, r0
 80a2f06:	460d      	mov	r5, r1
    function(const function& __x)
    : _Function_base()
    {
      if (static_cast<bool>(__x))
 80a2f08:	b12b      	cbz	r3, 80a2f16 <_ZNSt8functionIFvRKN8particle5ErrorEEEC1ERKS5_+0x1a>
	{
	  __x._M_manager(_M_functor, __x._M_functor, __clone_functor);
 80a2f0a:	2202      	movs	r2, #2
 80a2f0c:	4798      	blx	r3
	  _M_invoker = __x._M_invoker;
 80a2f0e:	68eb      	ldr	r3, [r5, #12]
 80a2f10:	60e3      	str	r3, [r4, #12]
	  _M_manager = __x._M_manager;
 80a2f12:	68ab      	ldr	r3, [r5, #8]
 80a2f14:	60a3      	str	r3, [r4, #8]
	}
    }
 80a2f16:	4620      	mov	r0, r4
 80a2f18:	bd38      	pop	{r3, r4, r5, pc}
	...

080a2f1c <_ZN8particle11PromiseBaseIbNS_6detail13FutureContextEE8setErrorENS_5ErrorE>:

    explicit PromiseBase(detail::FutureImplPtr<ResultT, ContextT> ptr) :
            p_(std::move(ptr)) {
    }

    void setError(Error error) {
 80a2f1c:	b5f0      	push	{r4, r5, r6, r7, lr}
 80a2f1e:	b089      	sub	sp, #36	; 0x24
 80a2f20:	6804      	ldr	r4, [r0, #0]
        p_->setError(std::move(error));
 80a2f22:	4668      	mov	r0, sp
 80a2f24:	f7ff ff4d 	bl	80a2dc2 <_ZN8particle5ErrorC1EOS0_>

      bool
      compare_exchange_strong(_Tp& __e, _Tp __i, memory_order __s, 
			      memory_order __f) noexcept
      {
	return __atomic_compare_exchange(&_M_i, &__e, &__i, false, __s, __f);
 80a2f28:	f04f 0202 	mov.w	r2, #2
            onSuccess_(nullptr),
            onError_(nullptr) {
    }

    bool changeState(State state) {
        State s = State::RUNNING; // Expected state
 80a2f2c:	2300      	movs	r3, #0
 80a2f2e:	f88d 3008 	strb.w	r3, [sp, #8]
 80a2f32:	e8d4 3f4f 	ldrexb	r3, [r4]
 80a2f36:	2b00      	cmp	r3, #0
 80a2f38:	d103      	bne.n	80a2f42 <_ZN8particle11PromiseBaseIbNS_6detail13FutureContextEE8setErrorENS_5ErrorE+0x26>
 80a2f3a:	e8c4 2f41 	strexb	r1, r2, [r4]
 80a2f3e:	2900      	cmp	r1, #0
 80a2f40:	d1f7      	bne.n	80a2f32 <_ZN8particle11PromiseBaseIbNS_6detail13FutureContextEE8setErrorENS_5ErrorE+0x16>
 80a2f42:	d002      	beq.n	80a2f4a <_ZN8particle11PromiseBaseIbNS_6detail13FutureContextEE8setErrorENS_5ErrorE+0x2e>
 80a2f44:	f88d 3008 	strb.w	r3, [sp, #8]
 80a2f48:	e063      	b.n	80a3012 <_ZN8particle11PromiseBaseIbNS_6detail13FutureContextEE8setErrorENS_5ErrorE+0xf6>
        return std::move(defaultValue);
    }

    void setError(Error error) {
        if (this->changeState(State::FAILED)) {
            new(&error_) Error(std::move(error));
 80a2f4a:	f114 050c 	adds.w	r5, r4, #12
 80a2f4e:	d003      	beq.n	80a2f58 <_ZN8particle11PromiseBaseIbNS_6detail13FutureContextEE8setErrorENS_5ErrorE+0x3c>
 80a2f50:	4669      	mov	r1, sp
 80a2f52:	4628      	mov	r0, r5
 80a2f54:	f7ff ff35 	bl	80a2dc2 <_ZN8particle5ErrorC1EOS0_>
        memory_order __b = __m & __memory_order_mask;
	__glibcxx_assert(__b != memory_order_acquire);
	__glibcxx_assert(__b != memory_order_acq_rel);
	__glibcxx_assert(__b != memory_order_consume);

	__atomic_store_n(&_M_i, __i, __m);
 80a2f58:	f3bf 8f5f 	dmb	sy
 80a2f5c:	2301      	movs	r3, #1
 80a2f5e:	7063      	strb	r3, [r4, #1]

      _GLIBCXX_ALWAYS_INLINE __pointer_type
      exchange(__pointer_type __p,
	       memory_order __m = memory_order_seq_cst) noexcept
      {
	return __atomic_exchange_n(&_M_p, __p, __m);
 80a2f60:	f3bf 8f5f 	dmb	sy
 80a2f64:	f104 0308 	add.w	r3, r4, #8
 80a2f68:	2000      	movs	r0, #0
 80a2f6a:	e853 6f00 	ldrex	r6, [r3]
 80a2f6e:	e843 0200 	strex	r2, r0, [r3]
 80a2f72:	2a00      	cmp	r2, #0
 80a2f74:	d1f9      	bne.n	80a2f6a <_ZN8particle11PromiseBaseIbNS_6detail13FutureContextEE8setErrorENS_5ErrorE+0x4e>
 80a2f76:	f3bf 8f5f 	dmb	sy

    // Takes a callback from its atomic wrapper and invokes it
    template<typename FunctionT, typename... ArgsT>
    static void invokeCallback(std::atomic<std::function<FunctionT>*>& wrapper, ArgsT&&... args) {
        std::function<FunctionT>* callbackPtr = wrapper.exchange(nullptr, std::memory_order_acq_rel);
        if (callbackPtr) {
 80a2f7a:	2e00      	cmp	r6, #0
 80a2f7c:	d049      	beq.n	80a3012 <_ZN8particle11PromiseBaseIbNS_6detail13FutureContextEE8setErrorENS_5ErrorE+0xf6>
        return (application_thread_invoke(callback, data, nullptr) == 0);
    }

    // Returns true if current thread is the application thread
    static bool isApplicationThreadCurrent() {
        return (application_thread_current(nullptr) != 0);
 80a2f7e:	f7ff faf1 	bl	80a2564 <application_thread_current>
    }

    // Invokes std::function in the application context
    template<typename FunctionT, typename... ArgsT>
    static void invokeCallback(const std::function<FunctionT>& callback, ArgsT&&... args) {
        if (ContextT::isApplicationThreadCurrent()) {
 80a2f82:	b120      	cbz	r0, 80a2f8e <_ZN8particle11PromiseBaseIbNS_6detail13FutureContextEE8setErrorENS_5ErrorE+0x72>
            callback(std::forward<ArgsT>(args)...); // Synchronous call
 80a2f84:	4629      	mov	r1, r5
 80a2f86:	4630      	mov	r0, r6
 80a2f88:	f7ff ff98 	bl	80a2ebc <_ZNKSt8functionIFvRKN8particle5ErrorEEEclES3_>
 80a2f8c:	e03a      	b.n	80a3004 <_ZN8particle11PromiseBaseIbNS_6detail13FutureContextEE8setErrorENS_5ErrorE+0xe8>
	}

     public:
      template<typename... _Args>
	explicit _Bind(const _Functor& __f, _Args&&... __args)
	: _M_f(__f), _M_bound_args(std::forward<_Args>(__args)...)
 80a2f8e:	4631      	mov	r1, r6
 80a2f90:	a802      	add	r0, sp, #8
 80a2f92:	f7ff ffb3 	bl	80a2efc <_ZNSt8functionIFvRKN8particle5ErrorEEEC1ERKS5_>
inline particle::Error::Error(const char* msg) :
        Error(UNKNOWN, msg) {
}

inline particle::Error::Error(const Error& error) :
        Error(error.type_, error.msg_) {
 80a2f96:	68e0      	ldr	r0, [r4, #12]
 80a2f98:	f9b4 5010 	ldrsh.w	r5, [r4, #16]
        type_(type) {
}

inline particle::Error::Error(Type type, const char* msg) :
        msg_(msg ? (const char*)strdup(msg) : nullptr),
        type_(type) {
 80a2f9c:	b108      	cbz	r0, 80a2fa2 <_ZN8particle11PromiseBaseIbNS_6detail13FutureContextEE8setErrorENS_5ErrorE+0x86>
 80a2f9e:	f001 fdf1 	bl	80a4b84 <strdup>
 80a2fa2:	9006      	str	r0, [sp, #24]
        } else {
            // Bind all arguments and wrap resulting function into a pointer
            auto callbackPtr = new std::function<void()>(std::bind(callback, std::forward<ArgsT>(args)...));
 80a2fa4:	2010      	movs	r0, #16
 80a2fa6:	f8ad 501c 	strh.w	r5, [sp, #28]
 80a2faa:	f7fd f878 	bl	80a009e <_Znwj>
 80a2fae:	4605      	mov	r5, r0
 80a2fb0:	b1e8      	cbz	r0, 80a2fee <_ZN8particle11PromiseBaseIbNS_6detail13FutureContextEE8setErrorENS_5ErrorE+0xd2>
	{
	  _Base::_M_init_functor(__functor, std::__addressof(__f.get()));
	}
      };

    _Function_base() : _M_manager(nullptr) { }
 80a2fb2:	2700      	movs	r7, #0
 80a2fb4:	6087      	str	r7, [r0, #8]
	_M_init_functor(_Any_data& __functor, _Functor&& __f, true_type)
	{ new (__functor._M_access()) _Functor(std::move(__f)); }

	static void
	_M_init_functor(_Any_data& __functor, _Functor&& __f, false_type)
	{ __functor._M_access<_Functor*>() = new _Functor(std::move(__f)); }
 80a2fb6:	2018      	movs	r0, #24
 80a2fb8:	f7fd f871 	bl	80a009e <_Znwj>
 80a2fbc:	4604      	mov	r4, r0
 80a2fbe:	b188      	cbz	r0, 80a2fe4 <_ZN8particle11PromiseBaseIbNS_6detail13FutureContextEE8setErrorENS_5ErrorE+0xc8>
       *  Swap the targets of @c this function object and @a __f. This
       *  function will not throw an %exception.
       */
      void swap(function& __x)
      {
	std::swap(_M_functor, __x._M_functor);
 80a2fc0:	4601      	mov	r1, r0
	{
	  _Base::_M_init_functor(__functor, std::__addressof(__f.get()));
	}
      };

    _Function_base() : _M_manager(nullptr) { }
 80a2fc2:	6087      	str	r7, [r0, #8]
       *  Swap the targets of @c this function object and @a __f. This
       *  function will not throw an %exception.
       */
      void swap(function& __x)
      {
	std::swap(_M_functor, __x._M_functor);
 80a2fc4:	a802      	add	r0, sp, #8
 80a2fc6:	f7ff fe33 	bl	80a2c30 <_ZSt4swapISt9_Any_dataEvRT_S2_>
#endif
    {
      // concept requirements
      __glibcxx_function_requires(_SGIAssignableConcept<_Tp>)

      _Tp __tmp = _GLIBCXX_MOVE(__a);
 80a2fca:	9b04      	ldr	r3, [sp, #16]
      __a = _GLIBCXX_MOVE(__b);
 80a2fcc:	68a2      	ldr	r2, [r4, #8]
      __b = _GLIBCXX_MOVE(__tmp);
 80a2fce:	60a3      	str	r3, [r4, #8]
#endif
    {
      // concept requirements
      __glibcxx_function_requires(_SGIAssignableConcept<_Tp>)

      _Tp __tmp = _GLIBCXX_MOVE(__a);
 80a2fd0:	9b05      	ldr	r3, [sp, #20]
      __a = _GLIBCXX_MOVE(__b);
 80a2fd2:	9204      	str	r2, [sp, #16]
 80a2fd4:	68e2      	ldr	r2, [r4, #12]
 80a2fd6:	a906      	add	r1, sp, #24
      __b = _GLIBCXX_MOVE(__tmp);
 80a2fd8:	60e3      	str	r3, [r4, #12]
 80a2fda:	f104 0010 	add.w	r0, r4, #16
    {
      // concept requirements
      __glibcxx_function_requires(_SGIAssignableConcept<_Tp>)

      _Tp __tmp = _GLIBCXX_MOVE(__a);
      __a = _GLIBCXX_MOVE(__b);
 80a2fde:	9205      	str	r2, [sp, #20]
 80a2fe0:	f7ff feef 	bl	80a2dc2 <_ZN8particle5ErrorC1EOS0_>
	typedef _Function_handler<_Signature_type, _Functor> _My_handler;

	if (_My_handler::_M_not_empty_function(__f))
	  {
	    _My_handler::_M_init_functor(_M_functor, std::move(__f));
	    _M_invoker = &_My_handler::_M_invoke;
 80a2fe4:	4b0d      	ldr	r3, [pc, #52]	; (80a301c <_ZN8particle11PromiseBaseIbNS_6detail13FutureContextEE8setErrorENS_5ErrorE+0x100>)
	_M_init_functor(_Any_data& __functor, _Functor&& __f, true_type)
	{ new (__functor._M_access()) _Functor(std::move(__f)); }

	static void
	_M_init_functor(_Any_data& __functor, _Functor&& __f, false_type)
	{ __functor._M_access<_Functor*>() = new _Functor(std::move(__f)); }
 80a2fe6:	602c      	str	r4, [r5, #0]
	typedef _Function_handler<_Signature_type, _Functor> _My_handler;

	if (_My_handler::_M_not_empty_function(__f))
	  {
	    _My_handler::_M_init_functor(_M_functor, std::move(__f));
	    _M_invoker = &_My_handler::_M_invoke;
 80a2fe8:	60eb      	str	r3, [r5, #12]
	    _M_manager = &_My_handler::_M_manager;
 80a2fea:	4b0d      	ldr	r3, [pc, #52]	; (80a3020 <_ZN8particle11PromiseBaseIbNS_6detail13FutureContextEE8setErrorENS_5ErrorE+0x104>)
 80a2fec:	60ab      	str	r3, [r5, #8]
      static constexpr const _Head&
      _M_head(const _Head_base& __b) noexcept { return __b; }
    };

  template<std::size_t _Idx, typename _Head>
    struct _Head_base<_Idx, _Head, false>
 80a2fee:	a806      	add	r0, sp, #24
 80a2ff0:	f7ff fef6 	bl	80a2de0 <_ZN8particle5ErrorD1Ev>
   *  @ingroup functors
   *
   *  Polymorphic function wrapper.
   */
  template<typename _Res, typename... _ArgTypes>
    class function<_Res(_ArgTypes...)>
 80a2ff4:	a802      	add	r0, sp, #8
 80a2ff6:	f7ff fe0c 	bl	80a2c12 <_ZNSt14_Function_baseD1Ev>
        spark_process();
    }

    // Asynchronously invokes a callback in the application context
    static bool invokeApplicationCallback(void (*callback)(void* data), void* data) {
        return (application_thread_invoke(callback, data, nullptr) == 0);
 80a2ffa:	2200      	movs	r2, #0
 80a2ffc:	4629      	mov	r1, r5
 80a2ffe:	4809      	ldr	r0, [pc, #36]	; (80a3024 <_ZN8particle11PromiseBaseIbNS_6detail13FutureContextEE8setErrorENS_5ErrorE+0x108>)
 80a3000:	f7ff fab8 	bl	80a2574 <application_thread_invoke>
 80a3004:	4630      	mov	r0, r6
 80a3006:	f7ff fe04 	bl	80a2c12 <_ZNSt14_Function_baseD1Ev>
    template<typename FunctionT, typename... ArgsT>
    static void invokeCallback(std::atomic<std::function<FunctionT>*>& wrapper, ArgsT&&... args) {
        std::function<FunctionT>* callbackPtr = wrapper.exchange(nullptr, std::memory_order_acq_rel);
        if (callbackPtr) {
            invokeCallback(*callbackPtr, std::forward<ArgsT>(args)...);
            delete callbackPtr;
 80a300a:	2110      	movs	r1, #16
 80a300c:	4630      	mov	r0, r6
 80a300e:	f000 fe03 	bl	80a3c18 <_ZdlPvj>
    explicit PromiseBase(detail::FutureImplPtr<ResultT, ContextT> ptr) :
            p_(std::move(ptr)) {
    }

    void setError(Error error) {
        p_->setError(std::move(error));
 80a3012:	4668      	mov	r0, sp
 80a3014:	f7ff fee4 	bl	80a2de0 <_ZN8particle5ErrorD1Ev>
    }
 80a3018:	b009      	add	sp, #36	; 0x24
 80a301a:	bdf0      	pop	{r4, r5, r6, r7, pc}
 80a301c:	080a2ecf 	.word	0x080a2ecf
 80a3020:	080a3145 	.word	0x080a3145
 80a3024:	080a37a5 	.word	0x080a37a5

080a3028 <_ZN10CloudClass13publish_eventEPKcS1_iN8particle5FlagsI15PublishFlagTypehEE>:
    desc.data = (void*)data;
    desc.funcKey = funcKey;
    return spark_function(NULL, (user_function_int_str_t*)&desc, NULL);
}

Future<bool> CloudClass::publish_event(const char *eventName, const char *eventData, int ttl, PublishFlags flags) {
 80a3028:	e92d 4ff0 	stmdb	sp!, {r4, r5, r6, r7, r8, r9, sl, fp, lr}
 80a302c:	b08b      	sub	sp, #44	; 0x2c
 80a302e:	4606      	mov	r6, r0
 80a3030:	460f      	mov	r7, r1
 80a3032:	4690      	mov	r8, r2
 80a3034:	4699      	mov	r9, r3
 80a3036:	f89d a050 	ldrb.w	sl, [sp, #80]	; 0x50
    static void sleep(Spark_Sleep_TypeDef sleepMode, long seconds=0) __attribute__ ((deprecated("Please use System.sleep() instead.")))
    { SystemClass::sleep(sleepMode, seconds); }
    static void sleep(uint16_t wakeUpPin, InterruptMode edgeTriggerMode, long seconds=0) __attribute__ ((deprecated("Please use System.sleep() instead.")))
    { SystemClass::sleep(wakeUpPin, edgeTriggerMode, seconds); }

    static bool connected(void) { return spark_cloud_flag_connected(); }
 80a303a:	f7ff fb17 	bl	80a266c <spark_cloud_flag_connected>
 80a303e:	ad07      	add	r5, sp, #28
    if (!connected()) {
 80a3040:	4683      	mov	fp, r0
 80a3042:	bb30      	cbnz	r0, 80a3092 <_ZN10CloudClass13publish_eventEPKcS1_iN8particle5FlagsI15PublishFlagTypehEE+0x6a>

} // namespace particle

inline particle::Error::Error(Type type) :
        msg_(nullptr),
        type_(type) {
 80a3044:	f64f 732e 	movw	r3, #65326	; 0xff2e
 80a3048:	9005      	str	r0, [sp, #20]
    typedef typename detail::FutureImpl<ResultT, ContextT>::OnSuccessCallback OnSuccessCallback;
    typedef typename detail::FutureImpl<ResultT, ContextT>::OnErrorCallback OnErrorCallback;

    // Construct failed future
    explicit FutureBase(Error error) :
            p_(new detail::FutureImpl<ResultT, ContextT>(std::move(error))) {
 80a304a:	a905      	add	r1, sp, #20
 80a304c:	4628      	mov	r0, r5
 80a304e:	f8ad 3018 	strh.w	r3, [sp, #24]
 80a3052:	f7ff feb6 	bl	80a2dc2 <_ZN8particle5ErrorC1EOS0_>
 80a3056:	2014      	movs	r0, #20
 80a3058:	f7fd f821 	bl	80a009e <_Znwj>
 80a305c:	4604      	mov	r4, r0
 80a305e:	b158      	cbz	r0, 80a3078 <_ZN10CloudClass13publish_eventEPKcS1_iN8particle5FlagsI15PublishFlagTypehEE+0x50>
      ~atomic() noexcept = default;
      atomic(const atomic&) = delete;
      atomic& operator=(const atomic&) = delete;
      atomic& operator=(const atomic&) volatile = delete;

      constexpr atomic(_Tp __i) noexcept : _M_i(__i) { }
 80a3060:	2302      	movs	r3, #2
 80a3062:	7003      	strb	r3, [r0, #0]
      __atomic_base(const __atomic_base&) = delete;
      __atomic_base& operator=(const __atomic_base&) = delete;
      __atomic_base& operator=(const __atomic_base&) volatile = delete;

      // Requires __int_type convertible to _M_i.
      constexpr __atomic_base(__int_type __i) noexcept : _M_i (__i) { }
 80a3064:	2301      	movs	r3, #1
 80a3066:	7043      	strb	r3, [r0, #1]
      __atomic_base(const __atomic_base&) = delete;
      __atomic_base& operator=(const __atomic_base&) = delete;
      __atomic_base& operator=(const __atomic_base&) volatile = delete;

      // Requires __pointer_type convertible to _M_p.
      constexpr __atomic_base(__pointer_type __p) noexcept : _M_p (__p) { }
 80a3068:	f8c0 b004 	str.w	fp, [r0, #4]
 80a306c:	f8c0 b008 	str.w	fp, [r0, #8]
            result_(std::move(result)) {
    }

    explicit FutureImpl(Error error) :
            FutureImplBase<ResultT, ContextT>(State::FAILED),
            error_(std::move(error)) {
 80a3070:	4629      	mov	r1, r5
 80a3072:	300c      	adds	r0, #12
 80a3074:	f7ff fea5 	bl	80a2dc2 <_ZN8particle5ErrorC1EOS0_>
      : _M_ptr(0), _M_refcount()
      { }

      template<typename _Tp1>
	explicit __shared_ptr(_Tp1* __p)
        : _M_ptr(__p), _M_refcount(__p)
 80a3078:	4630      	mov	r0, r6
 80a307a:	4621      	mov	r1, r4
 80a307c:	f840 4b04 	str.w	r4, [r0], #4
 80a3080:	f7ff ff08 	bl	80a2e94 <_ZNSt14__shared_countILN9__gnu_cxx12_Lock_policyE0EEC1IPN8particle6detail10FutureImplIbNS5_13FutureContextEEEEET_>
    typedef typename detail::FutureImpl<ResultT, ContextT>::OnSuccessCallback OnSuccessCallback;
    typedef typename detail::FutureImpl<ResultT, ContextT>::OnErrorCallback OnErrorCallback;

    // Construct failed future
    explicit FutureBase(Error error) :
            p_(new detail::FutureImpl<ResultT, ContextT>(std::move(error))) {
 80a3084:	4628      	mov	r0, r5
 80a3086:	f7ff feab 	bl	80a2de0 <_ZN8particle5ErrorD1Ev>
    }

    explicit FutureBase(Error::Type error) :
            FutureBase(Error(error)) {
 80a308a:	a805      	add	r0, sp, #20
 80a308c:	f7ff fea8 	bl	80a2de0 <_ZN8particle5ErrorD1Ev>
 80a3090:	e052      	b.n	80a3138 <_ZN10CloudClass13publish_eventEPKcS1_iN8particle5FlagsI15PublishFlagTypehEE+0x110>
        return Future<bool>(Error::INVALID_STATE);
    }
    spark_send_event_data d = { sizeof(spark_send_event_data) };
 80a3092:	2400      	movs	r4, #0
 80a3094:	230c      	movs	r3, #12
// can be acquired via Future
template<typename ResultT, typename ContextT>
class PromiseBase {
public:
    PromiseBase() :
            p_(new detail::FutureImpl<ResultT, ContextT>(State::RUNNING)) {
 80a3096:	2014      	movs	r0, #20
 80a3098:	606c      	str	r4, [r5, #4]
 80a309a:	60ac      	str	r4, [r5, #8]
 80a309c:	9307      	str	r3, [sp, #28]
 80a309e:	f7fc fffe 	bl	80a009e <_Znwj>
 80a30a2:	4601      	mov	r1, r0
 80a30a4:	b118      	cbz	r0, 80a30ae <_ZN10CloudClass13publish_eventEPKcS1_iN8particle5FlagsI15PublishFlagTypehEE+0x86>
 80a30a6:	7004      	strb	r4, [r0, #0]
      __atomic_base(const __atomic_base&) = delete;
      __atomic_base& operator=(const __atomic_base&) = delete;
      __atomic_base& operator=(const __atomic_base&) volatile = delete;

      // Requires __int_type convertible to _M_i.
      constexpr __atomic_base(__int_type __i) noexcept : _M_i (__i) { }
 80a30a8:	7044      	strb	r4, [r0, #1]
      __atomic_base(const __atomic_base&) = delete;
      __atomic_base& operator=(const __atomic_base&) = delete;
      __atomic_base& operator=(const __atomic_base&) volatile = delete;

      // Requires __pointer_type convertible to _M_p.
      constexpr __atomic_base(__pointer_type __p) noexcept : _M_p (__p) { }
 80a30aa:	6044      	str	r4, [r0, #4]
 80a30ac:	6084      	str	r4, [r0, #8]
 80a30ae:	a804      	add	r0, sp, #16
 80a30b0:	9103      	str	r1, [sp, #12]
 80a30b2:	f7ff feef 	bl	80a2e94 <_ZNSt14__shared_countILN9__gnu_cxx12_Lock_policyE0EEC1IPN8particle6detail10FutureImplIbNS5_13FutureContextEEEEET_>

    // Completion handler
    Promise<bool> p;
    d.handler_callback = publishCompletionCallback;
 80a30b6:	4b22      	ldr	r3, [pc, #136]	; (80a3140 <_ZN10CloudClass13publish_eventEPKcS1_iN8particle5FlagsI15PublishFlagTypehEE+0x118>)
    }

    // Wraps this promise into an object pointer that can be passed to a C function
    void* dataPtr() const {
        // TODO: Use custom reference counting object to avoid unnecessary memory allocation
        return new detail::FutureImplPtr<ResultT, ContextT>(p_);
 80a30b8:	2008      	movs	r0, #8
 80a30ba:	9308      	str	r3, [sp, #32]
 80a30bc:	f7fc ffef 	bl	80a009e <_Znwj>
 80a30c0:	4604      	mov	r4, r0
 80a30c2:	b128      	cbz	r0, 80a30d0 <_ZN10CloudClass13publish_eventEPKcS1_iN8particle5FlagsI15PublishFlagTypehEE+0xa8>
      template<typename _Tp1>
	__shared_ptr(const __shared_ptr<_Tp1, _Lp>& __r, _Tp* __p) noexcept
	: _M_ptr(__p), _M_refcount(__r._M_refcount) // never throws
	{ }

      __shared_ptr(const __shared_ptr&) noexcept = default;
 80a30c4:	9b03      	ldr	r3, [sp, #12]
 80a30c6:	a904      	add	r1, sp, #16
 80a30c8:	f840 3b04 	str.w	r3, [r0], #4
 80a30cc:	f7ff fd85 	bl	80a2bda <_ZNSt14__shared_countILN9__gnu_cxx12_Lock_policyE0EEC1ERKS2_>
    d.handler_data = p.dataPtr();

    if (!spark_send_event(eventName, eventData, ttl, flags.value(), &d) && !p.isDone()) {
 80a30d0:	9500      	str	r5, [sp, #0]
 80a30d2:	fa5f f38a 	uxtb.w	r3, sl
 80a30d6:	464a      	mov	r2, r9
 80a30d8:	4641      	mov	r1, r8
 80a30da:	4638      	mov	r0, r7
    spark_send_event_data d = { sizeof(spark_send_event_data) };

    // Completion handler
    Promise<bool> p;
    d.handler_callback = publishCompletionCallback;
    d.handler_data = p.dataPtr();
 80a30dc:	9409      	str	r4, [sp, #36]	; 0x24

    if (!spark_send_event(eventName, eventData, ttl, flags.value(), &d) && !p.isDone()) {
 80a30de:	f7ff facd 	bl	80a267c <spark_send_event>
 80a30e2:	b920      	cbnz	r0, 80a30ee <_ZN10CloudClass13publish_eventEPKcS1_iN8particle5FlagsI15PublishFlagTypehEE+0xc6>
      {
       memory_order __b = __m & __memory_order_mask;
	__glibcxx_assert(__b != memory_order_release);
	__glibcxx_assert(__b != memory_order_acq_rel);

	return __atomic_load_n(&_M_i, __m);
 80a30e4:	9b03      	ldr	r3, [sp, #12]
 80a30e6:	785b      	ldrb	r3, [r3, #1]
 80a30e8:	f003 02ff 	and.w	r2, r3, #255	; 0xff
 80a30ec:	b183      	cbz	r3, 80a3110 <_ZN10CloudClass13publish_eventEPKcS1_iN8particle5FlagsI15PublishFlagTypehEE+0xe8>
 80a30ee:	9b03      	ldr	r3, [sp, #12]
 80a30f0:	a904      	add	r1, sp, #16
 80a30f2:	a806      	add	r0, sp, #24
 80a30f4:	9305      	str	r3, [sp, #20]
 80a30f6:	f7ff fd70 	bl	80a2bda <_ZNSt14__shared_countILN9__gnu_cxx12_Lock_policyE0EEC1ERKS2_>
    bool isDone() const {
        return p_->isDone();
    }

    Future<ResultT, ContextT> future() const {
        return Future<ResultT, ContextT>(p_);
 80a30fa:	a905      	add	r1, sp, #20
 80a30fc:	4630      	mov	r0, r6
 80a30fe:	f7ff fe99 	bl	80a2e34 <_ZN8particle6FutureIbNS_6detail13FutureContextEEC1ESt10shared_ptrINS1_10FutureImplIbS2_EEE>
      __shared_ptr& operator=(const __shared_ptr&) noexcept = default;
      ~__shared_ptr() = default;
 80a3102:	a806      	add	r0, sp, #24
 80a3104:	f7fd f92f 	bl	80a0366 <_ZNSt14__shared_countILN9__gnu_cxx12_Lock_policyE0EED1Ev>
 80a3108:	a804      	add	r0, sp, #16
 80a310a:	f7fd f92c 	bl	80a0366 <_ZNSt14__shared_countILN9__gnu_cxx12_Lock_policyE0EED1Ev>
 80a310e:	e013      	b.n	80a3138 <_ZN10CloudClass13publish_eventEPKcS1_iN8particle5FlagsI15PublishFlagTypehEE+0x110>
 80a3110:	f64f 739c 	movw	r3, #65436	; 0xff9c
        // Set generic error code in case completion callback wasn't invoked for some reason
        p.setError(Error::UNKNOWN);
 80a3114:	a905      	add	r1, sp, #20
 80a3116:	a803      	add	r0, sp, #12
 80a3118:	9205      	str	r2, [sp, #20]
 80a311a:	f8ad 3018 	strh.w	r3, [sp, #24]
 80a311e:	f7ff fefd 	bl	80a2f1c <_ZN8particle11PromiseBaseIbNS_6detail13FutureContextEE8setErrorENS_5ErrorE>
 80a3122:	a805      	add	r0, sp, #20
 80a3124:	f7ff fe5c 	bl	80a2de0 <_ZN8particle5ErrorD1Ev>
        p.fromDataPtr(d.handler_data); // Free wrapper object
 80a3128:	a805      	add	r0, sp, #20
 80a312a:	9909      	ldr	r1, [sp, #36]	; 0x24
 80a312c:	f7ff fe93 	bl	80a2e56 <_ZN8particle11PromiseBaseIbNS_6detail13FutureContextEE11fromDataPtrEPv>
 80a3130:	a806      	add	r0, sp, #24
 80a3132:	f7fd f918 	bl	80a0366 <_ZNSt14__shared_countILN9__gnu_cxx12_Lock_policyE0EED1Ev>
 80a3136:	e7da      	b.n	80a30ee <_ZN10CloudClass13publish_eventEPKcS1_iN8particle5FlagsI15PublishFlagTypehEE+0xc6>
    }

    return p.future();
}
 80a3138:	4630      	mov	r0, r6
 80a313a:	b00b      	add	sp, #44	; 0x2c
 80a313c:	e8bd 8ff0 	ldmia.w	sp!, {r4, r5, r6, r7, r8, r9, sl, fp, pc}
 80a3140:	080a32b5 	.word	0x080a32b5

080a3144 <_ZNSt14_Function_base13_Base_managerISt5_BindIFSt8functionIFvRKN8particle5ErrorEEES4_EEE10_M_managerERSt9_Any_dataRKSC_St18_Manager_operation>:
      public:
	static bool
	_M_manager(_Any_data& __dest, const _Any_data& __source,
		   _Manager_operation __op)
	{
	  switch (__op)
 80a3144:	2a02      	cmp	r2, #2
	  delete __victim._M_access<_Functor*>();
	}

      public:
	static bool
	_M_manager(_Any_data& __dest, const _Any_data& __source,
 80a3146:	b5f8      	push	{r3, r4, r5, r6, r7, lr}
 80a3148:	4604      	mov	r4, r0
		   _Manager_operation __op)
	{
	  switch (__op)
 80a314a:	d006      	beq.n	80a315a <_ZNSt14_Function_base13_Base_managerISt5_BindIFSt8functionIFvRKN8particle5ErrorEEES4_EEE10_M_managerERSt9_Any_dataRKSC_St18_Manager_operation+0x16>
 80a314c:	2a03      	cmp	r2, #3
 80a314e:	d017      	beq.n	80a3180 <_ZNSt14_Function_base13_Base_managerISt5_BindIFSt8functionIFvRKN8particle5ErrorEEES4_EEE10_M_managerERSt9_Any_dataRKSC_St18_Manager_operation+0x3c>
 80a3150:	2a01      	cmp	r2, #1
 80a3152:	d122      	bne.n	80a319a <_ZNSt14_Function_base13_Base_managerISt5_BindIFSt8functionIFvRKN8particle5ErrorEEES4_EEE10_M_managerERSt9_Any_dataRKSC_St18_Manager_operation+0x56>
	static _Functor*
	_M_get_pointer(const _Any_data& __source)
	{
	  const _Functor* __ptr =
	    __stored_locally? std::__addressof(__source._M_access<_Functor>())
	    /* have stored a pointer */ : __source._M_access<_Functor*>();
 80a3154:	680b      	ldr	r3, [r1, #0]
	    case __get_type_info:
	      __dest._M_access<const type_info*>() = &typeid(_Functor);
	      break;
#endif
	    case __get_functor_ptr:
	      __dest._M_access<_Functor*>() = _M_get_pointer(__source);
 80a3156:	6003      	str	r3, [r0, #0]
	      break;
 80a3158:	e01f      	b.n	80a319a <_ZNSt14_Function_base13_Base_managerISt5_BindIFSt8functionIFvRKN8particle5ErrorEEES4_EEE10_M_managerERSt9_Any_dataRKSC_St18_Manager_operation+0x56>
	// Clone a function object that is not location-invariant or
	// that cannot fit into an _Any_data structure.
	static void
	_M_clone(_Any_data& __dest, const _Any_data& __source, false_type)
	{
	  __dest._M_access<_Functor*>() =
 80a315a:	2018      	movs	r0, #24
 80a315c:	680e      	ldr	r6, [r1, #0]
 80a315e:	f7fc ff9e 	bl	80a009e <_Znwj>
 80a3162:	4605      	mov	r5, r0
 80a3164:	b150      	cbz	r0, 80a317c <_ZNSt14_Function_base13_Base_managerISt5_BindIFSt8functionIFvRKN8particle5ErrorEEES4_EEE10_M_managerERSt9_Any_dataRKSC_St18_Manager_operation+0x38>
      template<typename... _Args>
	explicit _Bind(_Functor&& __f, _Args&&... __args)
	: _M_f(std::move(__f)), _M_bound_args(std::forward<_Args>(__args)...)
	{ }

      _Bind(const _Bind&) = default;
 80a3166:	4631      	mov	r1, r6
 80a3168:	f7ff fec8 	bl	80a2efc <_ZNSt8functionIFvRKN8particle5ErrorEEEC1ERKS5_>
inline particle::Error::Error(const char* msg) :
        Error(UNKNOWN, msg) {
}

inline particle::Error::Error(const Error& error) :
        Error(error.type_, error.msg_) {
 80a316c:	6930      	ldr	r0, [r6, #16]
 80a316e:	f9b6 7014 	ldrsh.w	r7, [r6, #20]
        type_(type) {
}

inline particle::Error::Error(Type type, const char* msg) :
        msg_(msg ? (const char*)strdup(msg) : nullptr),
        type_(type) {
 80a3172:	b108      	cbz	r0, 80a3178 <_ZNSt14_Function_base13_Base_managerISt5_BindIFSt8functionIFvRKN8particle5ErrorEEES4_EEE10_M_managerERSt9_Any_dataRKSC_St18_Manager_operation+0x34>
 80a3174:	f001 fd06 	bl	80a4b84 <strdup>
 80a3178:	6128      	str	r0, [r5, #16]
 80a317a:	82af      	strh	r7, [r5, #20]
	// Clone a function object that is not location-invariant or
	// that cannot fit into an _Any_data structure.
	static void
	_M_clone(_Any_data& __dest, const _Any_data& __source, false_type)
	{
	  __dest._M_access<_Functor*>() =
 80a317c:	6025      	str	r5, [r4, #0]
 80a317e:	e00c      	b.n	80a319a <_ZNSt14_Function_base13_Base_managerISt5_BindIFSt8functionIFvRKN8particle5ErrorEEES4_EEE10_M_managerERSt9_Any_dataRKSC_St18_Manager_operation+0x56>

	// Destroying an object located on the heap.
	static void
	_M_destroy(_Any_data& __victim, false_type)
	{
	  delete __victim._M_access<_Functor*>();
 80a3180:	6804      	ldr	r4, [r0, #0]
 80a3182:	b154      	cbz	r4, 80a319a <_ZNSt14_Function_base13_Base_managerISt5_BindIFSt8functionIFvRKN8particle5ErrorEEES4_EEE10_M_managerERSt9_Any_dataRKSC_St18_Manager_operation+0x56>
 80a3184:	f104 0010 	add.w	r0, r4, #16
 80a3188:	f7ff fe2a 	bl	80a2de0 <_ZN8particle5ErrorD1Ev>
   *  @ingroup functors
   *
   *  Polymorphic function wrapper.
   */
  template<typename _Res, typename... _ArgTypes>
    class function<_Res(_ArgTypes...)>
 80a318c:	4620      	mov	r0, r4
 80a318e:	f7ff fd40 	bl	80a2c12 <_ZNSt14_Function_baseD1Ev>

	// Destroying an object located on the heap.
	static void
	_M_destroy(_Any_data& __victim, false_type)
	{
	  delete __victim._M_access<_Functor*>();
 80a3192:	2118      	movs	r1, #24
 80a3194:	4620      	mov	r0, r4
 80a3196:	f000 fd3f 	bl	80a3c18 <_ZdlPvj>
	    case __destroy_functor:
	      _M_destroy(__dest, _Local_storage());
	      break;
	    }
	  return false;
	}
 80a319a:	2000      	movs	r0, #0
 80a319c:	bdf8      	pop	{r3, r4, r5, r6, r7, pc}

080a319e <_ZNSt8functionIFvRKbEEC1ERKS3_>:
      _Invoker_type _M_invoker;
  };

  // Out-of-line member definitions.
  template<typename _Res, typename... _ArgTypes>
    function<_Res(_ArgTypes...)>::
 80a319e:	b538      	push	{r3, r4, r5, lr}
	{
	  _Base::_M_init_functor(__functor, std::__addressof(__f.get()));
	}
      };

    _Function_base() : _M_manager(nullptr) { }
 80a31a0:	2300      	movs	r3, #0
 80a31a2:	6083      	str	r3, [r0, #8]
 80a31a4:	688b      	ldr	r3, [r1, #8]
      _Invoker_type _M_invoker;
  };

  // Out-of-line member definitions.
  template<typename _Res, typename... _ArgTypes>
    function<_Res(_ArgTypes...)>::
 80a31a6:	4604      	mov	r4, r0
 80a31a8:	460d      	mov	r5, r1
    function(const function& __x)
    : _Function_base()
    {
      if (static_cast<bool>(__x))
 80a31aa:	b12b      	cbz	r3, 80a31b8 <_ZNSt8functionIFvRKbEEC1ERKS3_+0x1a>
	{
	  __x._M_manager(_M_functor, __x._M_functor, __clone_functor);
 80a31ac:	2202      	movs	r2, #2
 80a31ae:	4798      	blx	r3
	  _M_invoker = __x._M_invoker;
 80a31b0:	68eb      	ldr	r3, [r5, #12]
 80a31b2:	60e3      	str	r3, [r4, #12]
	  _M_manager = __x._M_manager;
 80a31b4:	68ab      	ldr	r3, [r5, #8]
 80a31b6:	60a3      	str	r3, [r4, #8]
	}
    }
 80a31b8:	4620      	mov	r0, r4
 80a31ba:	bd38      	pop	{r3, r4, r5, pc}

080a31bc <_ZNSt14_Function_base13_Base_managerISt5_BindIFSt8functionIFvRKbEEbEEE10_M_managerERSt9_Any_dataRKSA_St18_Manager_operation>:
      public:
	static bool
	_M_manager(_Any_data& __dest, const _Any_data& __source,
		   _Manager_operation __op)
	{
	  switch (__op)
 80a31bc:	2a02      	cmp	r2, #2
	  delete __victim._M_access<_Functor*>();
	}

      public:
	static bool
	_M_manager(_Any_data& __dest, const _Any_data& __source,
 80a31be:	b570      	push	{r4, r5, r6, lr}
 80a31c0:	4604      	mov	r4, r0
		   _Manager_operation __op)
	{
	  switch (__op)
 80a31c2:	d006      	beq.n	80a31d2 <_ZNSt14_Function_base13_Base_managerISt5_BindIFSt8functionIFvRKbEEbEEE10_M_managerERSt9_Any_dataRKSA_St18_Manager_operation+0x16>
 80a31c4:	2a03      	cmp	r2, #3
 80a31c6:	d011      	beq.n	80a31ec <_ZNSt14_Function_base13_Base_managerISt5_BindIFSt8functionIFvRKbEEbEEE10_M_managerERSt9_Any_dataRKSA_St18_Manager_operation+0x30>
 80a31c8:	2a01      	cmp	r2, #1
 80a31ca:	d118      	bne.n	80a31fe <_ZNSt14_Function_base13_Base_managerISt5_BindIFSt8functionIFvRKbEEbEEE10_M_managerERSt9_Any_dataRKSA_St18_Manager_operation+0x42>
	static _Functor*
	_M_get_pointer(const _Any_data& __source)
	{
	  const _Functor* __ptr =
	    __stored_locally? std::__addressof(__source._M_access<_Functor>())
	    /* have stored a pointer */ : __source._M_access<_Functor*>();
 80a31cc:	680b      	ldr	r3, [r1, #0]
	    case __get_type_info:
	      __dest._M_access<const type_info*>() = &typeid(_Functor);
	      break;
#endif
	    case __get_functor_ptr:
	      __dest._M_access<_Functor*>() = _M_get_pointer(__source);
 80a31ce:	6003      	str	r3, [r0, #0]
	      break;
 80a31d0:	e015      	b.n	80a31fe <_ZNSt14_Function_base13_Base_managerISt5_BindIFSt8functionIFvRKbEEbEEE10_M_managerERSt9_Any_dataRKSA_St18_Manager_operation+0x42>
	// Clone a function object that is not location-invariant or
	// that cannot fit into an _Any_data structure.
	static void
	_M_clone(_Any_data& __dest, const _Any_data& __source, false_type)
	{
	  __dest._M_access<_Functor*>() =
 80a31d2:	2014      	movs	r0, #20
 80a31d4:	680e      	ldr	r6, [r1, #0]
 80a31d6:	f7fc ff62 	bl	80a009e <_Znwj>
 80a31da:	4605      	mov	r5, r0
 80a31dc:	b120      	cbz	r0, 80a31e8 <_ZNSt14_Function_base13_Base_managerISt5_BindIFSt8functionIFvRKbEEbEEE10_M_managerERSt9_Any_dataRKSA_St18_Manager_operation+0x2c>
      template<typename... _Args>
	explicit _Bind(_Functor&& __f, _Args&&... __args)
	: _M_f(std::move(__f)), _M_bound_args(std::forward<_Args>(__args)...)
	{ }

      _Bind(const _Bind&) = default;
 80a31de:	4631      	mov	r1, r6
 80a31e0:	f7ff ffdd 	bl	80a319e <_ZNSt8functionIFvRKbEEC1ERKS3_>
 80a31e4:	7c33      	ldrb	r3, [r6, #16]
 80a31e6:	742b      	strb	r3, [r5, #16]
	// Clone a function object that is not location-invariant or
	// that cannot fit into an _Any_data structure.
	static void
	_M_clone(_Any_data& __dest, const _Any_data& __source, false_type)
	{
	  __dest._M_access<_Functor*>() =
 80a31e8:	6025      	str	r5, [r4, #0]
 80a31ea:	e008      	b.n	80a31fe <_ZNSt14_Function_base13_Base_managerISt5_BindIFSt8functionIFvRKbEEbEEE10_M_managerERSt9_Any_dataRKSA_St18_Manager_operation+0x42>

	// Destroying an object located on the heap.
	static void
	_M_destroy(_Any_data& __victim, false_type)
	{
	  delete __victim._M_access<_Functor*>();
 80a31ec:	6804      	ldr	r4, [r0, #0]
 80a31ee:	b134      	cbz	r4, 80a31fe <_ZNSt14_Function_base13_Base_managerISt5_BindIFSt8functionIFvRKbEEbEEE10_M_managerERSt9_Any_dataRKSA_St18_Manager_operation+0x42>
   *  @ingroup functors
   *
   *  Polymorphic function wrapper.
   */
  template<typename _Res, typename... _ArgTypes>
    class function<_Res(_ArgTypes...)>
 80a31f0:	4620      	mov	r0, r4
 80a31f2:	f7ff fd0e 	bl	80a2c12 <_ZNSt14_Function_baseD1Ev>

	// Destroying an object located on the heap.
	static void
	_M_destroy(_Any_data& __victim, false_type)
	{
	  delete __victim._M_access<_Functor*>();
 80a31f6:	2114      	movs	r1, #20
 80a31f8:	4620      	mov	r0, r4
 80a31fa:	f000 fd0d 	bl	80a3c18 <_ZdlPvj>
	    case __destroy_functor:
	      _M_destroy(__dest, _Local_storage());
	      break;
	    }
	  return false;
	}
 80a31fe:	2000      	movs	r0, #0
 80a3200:	bd70      	pop	{r4, r5, r6, pc}
	...

080a3204 <_ZN8particle6detail14FutureImplBaseIbNS0_13FutureContextEE14invokeCallbackIFvRKbEIRbEEEvRSt6atomicIPSt8functionIT_EEDpOT0_>:
        delete callbackPtr; // Delete old callback
    }

    // Takes a callback from its atomic wrapper and invokes it
    template<typename FunctionT, typename... ArgsT>
    static void invokeCallback(std::atomic<std::function<FunctionT>*>& wrapper, ArgsT&&... args) {
 80a3204:	b5f0      	push	{r4, r5, r6, r7, lr}
 80a3206:	460c      	mov	r4, r1

      _GLIBCXX_ALWAYS_INLINE __pointer_type
      exchange(__pointer_type __p,
	       memory_order __m = memory_order_seq_cst) noexcept
      {
	return __atomic_exchange_n(&_M_p, __p, __m);
 80a3208:	f3bf 8f5f 	dmb	sy
 80a320c:	b087      	sub	sp, #28
 80a320e:	2300      	movs	r3, #0
 80a3210:	e850 6f00 	ldrex	r6, [r0]
 80a3214:	e840 3200 	strex	r2, r3, [r0]
 80a3218:	2a00      	cmp	r2, #0
 80a321a:	d1f9      	bne.n	80a3210 <_ZN8particle6detail14FutureImplBaseIbNS0_13FutureContextEE14invokeCallbackIFvRKbEIRbEEEvRSt6atomicIPSt8functionIT_EEDpOT0_+0xc>
 80a321c:	f3bf 8f5f 	dmb	sy
        std::function<FunctionT>* callbackPtr = wrapper.exchange(nullptr, std::memory_order_acq_rel);
        if (callbackPtr) {
 80a3220:	2e00      	cmp	r6, #0
 80a3222:	d03f      	beq.n	80a32a4 <_ZN8particle6detail14FutureImplBaseIbNS0_13FutureContextEE14invokeCallbackIFvRKbEIRbEEEvRSt6atomicIPSt8functionIT_EEDpOT0_+0xa0>
        return (application_thread_invoke(callback, data, nullptr) == 0);
    }

    // Returns true if current thread is the application thread
    static bool isApplicationThreadCurrent() {
        return (application_thread_current(nullptr) != 0);
 80a3224:	4618      	mov	r0, r3
 80a3226:	f7ff f99d 	bl	80a2564 <application_thread_current>
    }

    // Invokes std::function in the application context
    template<typename FunctionT, typename... ArgsT>
    static void invokeCallback(const std::function<FunctionT>& callback, ArgsT&&... args) {
        if (ContextT::isApplicationThreadCurrent()) {
 80a322a:	4607      	mov	r7, r0
 80a322c:	b120      	cbz	r0, 80a3238 <_ZN8particle6detail14FutureImplBaseIbNS0_13FutureContextEE14invokeCallbackIFvRKbEIRbEEEvRSt6atomicIPSt8functionIT_EEDpOT0_+0x34>
            callback(std::forward<ArgsT>(args)...); // Synchronous call
 80a322e:	4621      	mov	r1, r4
 80a3230:	4630      	mov	r0, r6
 80a3232:	f7ff fe53 	bl	80a2edc <_ZNKSt8functionIFvRKbEEclES1_>
 80a3236:	e02e      	b.n	80a3296 <_ZN8particle6detail14FutureImplBaseIbNS0_13FutureContextEE14invokeCallbackIFvRKbEIRbEEEvRSt6atomicIPSt8functionIT_EEDpOT0_+0x92>
	}

     public:
      template<typename... _Args>
	explicit _Bind(const _Functor& __f, _Args&&... __args)
	: _M_f(__f), _M_bound_args(std::forward<_Args>(__args)...)
 80a3238:	4631      	mov	r1, r6
 80a323a:	a801      	add	r0, sp, #4
 80a323c:	f7ff ffaf 	bl	80a319e <_ZNSt8functionIFvRKbEEC1ERKS3_>
      constexpr _Head_base(const _Head_base&) = default;
      constexpr _Head_base(_Head_base&&) = default;

      template<typename _UHead>
        constexpr _Head_base(_UHead&& __h)
	: _M_head_impl(std::forward<_UHead>(__h)) { }
 80a3240:	7823      	ldrb	r3, [r4, #0]
        } else {
            // Bind all arguments and wrap resulting function into a pointer
            auto callbackPtr = new std::function<void()>(std::bind(callback, std::forward<ArgsT>(args)...));
 80a3242:	2010      	movs	r0, #16
 80a3244:	f88d 3014 	strb.w	r3, [sp, #20]
 80a3248:	f7fc ff29 	bl	80a009e <_Znwj>
 80a324c:	4605      	mov	r5, r0
 80a324e:	b1d0      	cbz	r0, 80a3286 <_ZN8particle6detail14FutureImplBaseIbNS0_13FutureContextEE14invokeCallbackIFvRKbEIRbEEEvRSt6atomicIPSt8functionIT_EEDpOT0_+0x82>
	{
	  _Base::_M_init_functor(__functor, std::__addressof(__f.get()));
	}
      };

    _Function_base() : _M_manager(nullptr) { }
 80a3250:	6087      	str	r7, [r0, #8]
	_M_init_functor(_Any_data& __functor, _Functor&& __f, true_type)
	{ new (__functor._M_access()) _Functor(std::move(__f)); }

	static void
	_M_init_functor(_Any_data& __functor, _Functor&& __f, false_type)
	{ __functor._M_access<_Functor*>() = new _Functor(std::move(__f)); }
 80a3252:	2014      	movs	r0, #20
 80a3254:	f7fc ff23 	bl	80a009e <_Znwj>
 80a3258:	4604      	mov	r4, r0
 80a325a:	b178      	cbz	r0, 80a327c <_ZN8particle6detail14FutureImplBaseIbNS0_13FutureContextEE14invokeCallbackIFvRKbEIRbEEEvRSt6atomicIPSt8functionIT_EEDpOT0_+0x78>
	{
	  _Base::_M_init_functor(__functor, std::__addressof(__f.get()));
	}
      };

    _Function_base() : _M_manager(nullptr) { }
 80a325c:	6087      	str	r7, [r0, #8]
       *  Swap the targets of @c this function object and @a __f. This
       *  function will not throw an %exception.
       */
      void swap(function& __x)
      {
	std::swap(_M_functor, __x._M_functor);
 80a325e:	4601      	mov	r1, r0
 80a3260:	a801      	add	r0, sp, #4
 80a3262:	f7ff fce5 	bl	80a2c30 <_ZSt4swapISt9_Any_dataEvRT_S2_>
#endif
    {
      // concept requirements
      __glibcxx_function_requires(_SGIAssignableConcept<_Tp>)

      _Tp __tmp = _GLIBCXX_MOVE(__a);
 80a3266:	9b03      	ldr	r3, [sp, #12]
      __a = _GLIBCXX_MOVE(__b);
 80a3268:	68a2      	ldr	r2, [r4, #8]
      __b = _GLIBCXX_MOVE(__tmp);
 80a326a:	60a3      	str	r3, [r4, #8]
#endif
    {
      // concept requirements
      __glibcxx_function_requires(_SGIAssignableConcept<_Tp>)

      _Tp __tmp = _GLIBCXX_MOVE(__a);
 80a326c:	9b04      	ldr	r3, [sp, #16]
      __a = _GLIBCXX_MOVE(__b);
 80a326e:	9203      	str	r2, [sp, #12]
 80a3270:	68e2      	ldr	r2, [r4, #12]
      __b = _GLIBCXX_MOVE(__tmp);
 80a3272:	60e3      	str	r3, [r4, #12]
 80a3274:	f89d 3014 	ldrb.w	r3, [sp, #20]
    {
      // concept requirements
      __glibcxx_function_requires(_SGIAssignableConcept<_Tp>)

      _Tp __tmp = _GLIBCXX_MOVE(__a);
      __a = _GLIBCXX_MOVE(__b);
 80a3278:	9204      	str	r2, [sp, #16]
 80a327a:	7423      	strb	r3, [r4, #16]
	typedef _Function_handler<_Signature_type, _Functor> _My_handler;

	if (_My_handler::_M_not_empty_function(__f))
	  {
	    _My_handler::_M_init_functor(_M_functor, std::move(__f));
	    _M_invoker = &_My_handler::_M_invoke;
 80a327c:	4b0a      	ldr	r3, [pc, #40]	; (80a32a8 <_ZN8particle6detail14FutureImplBaseIbNS0_13FutureContextEE14invokeCallbackIFvRKbEIRbEEEvRSt6atomicIPSt8functionIT_EEDpOT0_+0xa4>)
	_M_init_functor(_Any_data& __functor, _Functor&& __f, true_type)
	{ new (__functor._M_access()) _Functor(std::move(__f)); }

	static void
	_M_init_functor(_Any_data& __functor, _Functor&& __f, false_type)
	{ __functor._M_access<_Functor*>() = new _Functor(std::move(__f)); }
 80a327e:	602c      	str	r4, [r5, #0]
	typedef _Function_handler<_Signature_type, _Functor> _My_handler;

	if (_My_handler::_M_not_empty_function(__f))
	  {
	    _My_handler::_M_init_functor(_M_functor, std::move(__f));
	    _M_invoker = &_My_handler::_M_invoke;
 80a3280:	60eb      	str	r3, [r5, #12]
	    _M_manager = &_My_handler::_M_manager;
 80a3282:	4b0a      	ldr	r3, [pc, #40]	; (80a32ac <_ZN8particle6detail14FutureImplBaseIbNS0_13FutureContextEE14invokeCallbackIFvRKbEIRbEEEvRSt6atomicIPSt8functionIT_EEDpOT0_+0xa8>)
 80a3284:	60ab      	str	r3, [r5, #8]
   *  @ingroup functors
   *
   *  Polymorphic function wrapper.
   */
  template<typename _Res, typename... _ArgTypes>
    class function<_Res(_ArgTypes...)>
 80a3286:	a801      	add	r0, sp, #4
 80a3288:	f7ff fcc3 	bl	80a2c12 <_ZNSt14_Function_baseD1Ev>
        spark_process();
    }

    // Asynchronously invokes a callback in the application context
    static bool invokeApplicationCallback(void (*callback)(void* data), void* data) {
        return (application_thread_invoke(callback, data, nullptr) == 0);
 80a328c:	2200      	movs	r2, #0
 80a328e:	4629      	mov	r1, r5
 80a3290:	4807      	ldr	r0, [pc, #28]	; (80a32b0 <_ZN8particle6detail14FutureImplBaseIbNS0_13FutureContextEE14invokeCallbackIFvRKbEIRbEEEvRSt6atomicIPSt8functionIT_EEDpOT0_+0xac>)
 80a3292:	f7ff f96f 	bl	80a2574 <application_thread_invoke>
 80a3296:	4630      	mov	r0, r6
 80a3298:	f7ff fcbb 	bl	80a2c12 <_ZNSt14_Function_baseD1Ev>
    template<typename FunctionT, typename... ArgsT>
    static void invokeCallback(std::atomic<std::function<FunctionT>*>& wrapper, ArgsT&&... args) {
        std::function<FunctionT>* callbackPtr = wrapper.exchange(nullptr, std::memory_order_acq_rel);
        if (callbackPtr) {
            invokeCallback(*callbackPtr, std::forward<ArgsT>(args)...);
            delete callbackPtr;
 80a329c:	2110      	movs	r1, #16
 80a329e:	4630      	mov	r0, r6
 80a32a0:	f000 fcba 	bl	80a3c18 <_ZdlPvj>
        }
    }
 80a32a4:	b007      	add	sp, #28
 80a32a6:	bdf0      	pop	{r4, r5, r6, r7, pc}
 80a32a8:	080a2eef 	.word	0x080a2eef
 80a32ac:	080a31bd 	.word	0x080a31bd
 80a32b0:	080a37a5 	.word	0x080a37a5

080a32b4 <_ZN12_GLOBAL__N_125publishCompletionCallbackEiPKvPvS2_>:

namespace {

using namespace particle;

void publishCompletionCallback(int error, const void* data, void* callbackData, void* reserved) {
 80a32b4:	b530      	push	{r4, r5, lr}
 80a32b6:	4604      	mov	r4, r0
 80a32b8:	b085      	sub	sp, #20
 80a32ba:	460d      	mov	r5, r1
    auto p = Promise<bool>::fromDataPtr(callbackData);
 80a32bc:	4668      	mov	r0, sp
 80a32be:	4611      	mov	r1, r2
 80a32c0:	f7ff fdc9 	bl	80a2e56 <_ZN8particle11PromiseBaseIbNS_6detail13FutureContextEE11fromDataPtrEPv>
    if (error != Error::NONE) {
 80a32c4:	b17c      	cbz	r4, 80a32e6 <_ZN12_GLOBAL__N_125publishCompletionCallbackEiPKvPvS2_+0x32>
        p.setError(Error((Error::Type)error, (const char*)data));
 80a32c6:	b224      	sxth	r4, r4
 80a32c8:	4628      	mov	r0, r5
 80a32ca:	b10d      	cbz	r5, 80a32d0 <_ZN12_GLOBAL__N_125publishCompletionCallbackEiPKvPvS2_+0x1c>
 80a32cc:	f001 fc5a 	bl	80a4b84 <strdup>
 80a32d0:	9002      	str	r0, [sp, #8]
 80a32d2:	a902      	add	r1, sp, #8
 80a32d4:	4668      	mov	r0, sp
 80a32d6:	f8ad 400c 	strh.w	r4, [sp, #12]
 80a32da:	f7ff fe1f 	bl	80a2f1c <_ZN8particle11PromiseBaseIbNS_6detail13FutureContextEE8setErrorENS_5ErrorE>
 80a32de:	a802      	add	r0, sp, #8
 80a32e0:	f7ff fd7e 	bl	80a2de0 <_ZN8particle5ErrorD1Ev>
 80a32e4:	e01d      	b.n	80a3322 <_ZN12_GLOBAL__N_125publishCompletionCallbackEiPKvPvS2_+0x6e>

      bool
      compare_exchange_strong(_Tp& __e, _Tp __i, memory_order __s, 
			      memory_order __f) noexcept
      {
	return __atomic_compare_exchange(&_M_i, &__e, &__i, false, __s, __f);
 80a32e6:	f04f 0201 	mov.w	r2, #1
 80a32ea:	9800      	ldr	r0, [sp, #0]
            onSuccess_(nullptr),
            onError_(nullptr) {
    }

    bool changeState(State state) {
        State s = State::RUNNING; // Expected state
 80a32ec:	f88d 4008 	strb.w	r4, [sp, #8]
 80a32f0:	e8d0 3f4f 	ldrexb	r3, [r0]
 80a32f4:	42a3      	cmp	r3, r4
 80a32f6:	d103      	bne.n	80a3300 <_ZN12_GLOBAL__N_125publishCompletionCallbackEiPKvPvS2_+0x4c>
 80a32f8:	e8c0 2f41 	strexb	r1, r2, [r0]
 80a32fc:	2900      	cmp	r1, #0
 80a32fe:	d1f7      	bne.n	80a32f0 <_ZN12_GLOBAL__N_125publishCompletionCallbackEiPKvPvS2_+0x3c>
 80a3300:	d002      	beq.n	80a3308 <_ZN12_GLOBAL__N_125publishCompletionCallbackEiPKvPvS2_+0x54>
 80a3302:	f88d 3008 	strb.w	r3, [sp, #8]
 80a3306:	e00c      	b.n	80a3322 <_ZN12_GLOBAL__N_125publishCompletionCallbackEiPKvPvS2_+0x6e>
        }
    }

    void setResult(ResultT result) {
        if (this->changeState(State::SUCCEEDED)) {
            new(&result_) ResultT(std::move(result));
 80a3308:	f110 010c 	adds.w	r1, r0, #12
 80a330c:	f04f 0301 	mov.w	r3, #1
 80a3310:	bf18      	it	ne
 80a3312:	7303      	strbne	r3, [r0, #12]
        memory_order __b = __m & __memory_order_mask;
	__glibcxx_assert(__b != memory_order_acquire);
	__glibcxx_assert(__b != memory_order_acq_rel);
	__glibcxx_assert(__b != memory_order_consume);

	__atomic_store_n(&_M_i, __i, __m);
 80a3314:	f3bf 8f5f 	dmb	sy
            this->releaseDone();
            this->invokeCallback(this->onSuccess_, result_);
 80a3318:	3004      	adds	r0, #4
 80a331a:	f800 3c03 	strb.w	r3, [r0, #-3]
 80a331e:	f7ff ff71 	bl	80a3204 <_ZN8particle6detail14FutureImplBaseIbNS0_13FutureContextEE14invokeCallbackIFvRKbEIRbEEEvRSt6atomicIPSt8functionIT_EEDpOT0_>
 80a3322:	a801      	add	r0, sp, #4
 80a3324:	f7fd f81f 	bl	80a0366 <_ZNSt14__shared_countILN9__gnu_cxx12_Lock_policyE0EED1Ev>
    } else {
        p.setResult(true);
    }
}
 80a3328:	b005      	add	sp, #20
 80a332a:	bd30      	pop	{r4, r5, pc}

080a332c <_ZN9IPAddressD1Ev>:
    IPAddress(uint8_t first_octet, uint8_t second_octet, uint8_t third_octet, uint8_t fourth_octet);
    IPAddress(uint32_t address);
    IPAddress(const uint8_t* address);
    IPAddress(const HAL_IPAddress& address);

    virtual ~IPAddress() {}
 80a332c:	4770      	bx	lr

080a332e <_ZN9IPAddressD0Ev>:
 80a332e:	b510      	push	{r4, lr}
 80a3330:	4604      	mov	r4, r0
 80a3332:	2118      	movs	r1, #24
 80a3334:	f000 fc70 	bl	80a3c18 <_ZdlPvj>
 80a3338:	4620      	mov	r0, r4
 80a333a:	bd10      	pop	{r4, pc}

080a333c <_ZNK9IPAddress7printToER5Print>:
#endif // Wiring_IPv6
	return address.ipv4==that.address.ipv4;
}

size_t IPAddress::printTo(Print& p) const
{
 80a333c:	b5f8      	push	{r3, r4, r5, r6, r7, lr}
 80a333e:	460f      	mov	r7, r1
 80a3340:	f100 0608 	add.w	r6, r0, #8
 80a3344:	1d05      	adds	r5, r0, #4
 80a3346:	2400      	movs	r4, #0
 80a3348:	f816 1d01 	ldrb.w	r1, [r6, #-1]!
 80a334c:	220a      	movs	r2, #10
 80a334e:	4638      	mov	r0, r7
 80a3350:	f7ff fb1b 	bl	80a298a <_ZN5Print11printNumberEmh>
#else
#pragma message "HAL_USE_INET_HAL_POSIX is required for IPv6 support in IPAddress::printTo()"
#endif // HAL_USE_INET_HAL_POSIX
#endif // Wiring_IPv6
    size_t n = 0;
    for (int i = 0; i < 4; i++)
 80a3354:	42ae      	cmp	r6, r5
    {
        if (n)
            n += p.print('.');
        n += p.print((*this)[i], DEC);
 80a3356:	4404      	add	r4, r0
#else
#pragma message "HAL_USE_INET_HAL_POSIX is required for IPv6 support in IPAddress::printTo()"
#endif // HAL_USE_INET_HAL_POSIX
#endif // Wiring_IPv6
    size_t n = 0;
    for (int i = 0; i < 4; i++)
 80a3358:	d007      	beq.n	80a336a <_ZNK9IPAddress7printToER5Print+0x2e>
    {
        if (n)
 80a335a:	2c00      	cmp	r4, #0
 80a335c:	d0f4      	beq.n	80a3348 <_ZNK9IPAddress7printToER5Print+0xc>
            n += p.print('.');
 80a335e:	212e      	movs	r1, #46	; 0x2e
 80a3360:	4638      	mov	r0, r7
 80a3362:	f7ff faf7 	bl	80a2954 <_ZN5Print5printEc>
 80a3366:	4404      	add	r4, r0
 80a3368:	e7ee      	b.n	80a3348 <_ZNK9IPAddress7printToER5Print+0xc>
        n += p.print((*this)[i], DEC);
    }
    return n;
}
 80a336a:	4620      	mov	r0, r4
 80a336c:	bdf8      	pop	{r3, r4, r5, r6, r7, pc}
	...

080a3370 <_ZN9IPAddressC1Ev>:

#if HAL_USE_INET_HAL_POSIX
#include <arpa/inet.h>
#endif // HAL_USE_INET_HAL_POSIX

IPAddress::IPAddress()
 80a3370:	b510      	push	{r4, lr}
 80a3372:	4604      	mov	r4, r0
 80a3374:	4b04      	ldr	r3, [pc, #16]	; (80a3388 <_ZN9IPAddressC1Ev+0x18>)
        return address;
    }

    virtual size_t printTo(Print& p) const;

    void clear() { memset(&address, 0, sizeof (address)); }
 80a3376:	2211      	movs	r2, #17
 80a3378:	f840 3b04 	str.w	r3, [r0], #4
 80a337c:	2100      	movs	r1, #0
 80a337e:	f001 fbd0 	bl	80a4b22 <memset>
{
    clear();
}
 80a3382:	4620      	mov	r0, r4
 80a3384:	bd10      	pop	{r4, pc}
 80a3386:	bf00      	nop
 80a3388:	080a58f8 	.word	0x080a58f8

080a338c <_ZN9IPAddressC1ERK16_HAL_IPAddress_t>:

IPAddress::IPAddress(const HAL_IPAddress& address)
 80a338c:	4603      	mov	r3, r0
 80a338e:	4a07      	ldr	r2, [pc, #28]	; (80a33ac <_ZN9IPAddressC1ERK16_HAL_IPAddress_t+0x20>)
 80a3390:	b510      	push	{r4, lr}
 80a3392:	f843 2b04 	str.w	r2, [r3], #4
{
    memcpy(&this->address, &address, sizeof(address));
 80a3396:	f101 0210 	add.w	r2, r1, #16
 80a339a:	f851 4b04 	ldr.w	r4, [r1], #4
 80a339e:	4291      	cmp	r1, r2
 80a33a0:	f843 4b04 	str.w	r4, [r3], #4
 80a33a4:	d1f9      	bne.n	80a339a <_ZN9IPAddressC1ERK16_HAL_IPAddress_t+0xe>
 80a33a6:	780a      	ldrb	r2, [r1, #0]
 80a33a8:	701a      	strb	r2, [r3, #0]
}
 80a33aa:	bd10      	pop	{r4, pc}
 80a33ac:	080a58f8 	.word	0x080a58f8

080a33b0 <_ZN9IPAddressC1Em>:
IPAddress::IPAddress(uint8_t first_octet, uint8_t second_octet, uint8_t third_octet, uint8_t fourth_octet)
{
    set_ipv4(first_octet, second_octet, third_octet, fourth_octet);
}

IPAddress::IPAddress(uint32_t address)
 80a33b0:	4a02      	ldr	r2, [pc, #8]	; (80a33bc <_ZN9IPAddressC1Em+0xc>)
    return *this;
}

IPAddress& IPAddress::operator=(uint32_t ipv4)
{
    address.ipv4 = ipv4;
 80a33b2:	6041      	str	r1, [r0, #4]
IPAddress::IPAddress(uint8_t first_octet, uint8_t second_octet, uint8_t third_octet, uint8_t fourth_octet)
{
    set_ipv4(first_octet, second_octet, third_octet, fourth_octet);
}

IPAddress::IPAddress(uint32_t address)
 80a33b4:	6002      	str	r2, [r0, #0]
        return &address;
    }

    inline void setVersion(uint8_t version) {
#if HAL_IPv6
        address.v = version;
 80a33b6:	2204      	movs	r2, #4
 80a33b8:	7502      	strb	r2, [r0, #20]
{
    *this = address;
}
 80a33ba:	4770      	bx	lr
 80a33bc:	080a58f8 	.word	0x080a58f8

080a33c0 <_ZN9IPAddress8set_ipv4Ehhhh>:
    return address.ipv4!=0;
#endif
}

void IPAddress::set_ipv4(uint8_t b0, uint8_t b1, uint8_t b2, uint8_t b3)
{
 80a33c0:	b510      	push	{r4, lr}
    address.ipv4 = b0<<24 | b1 << 16 | b2 << 8 | b3;
 80a33c2:	f89d 4008 	ldrb.w	r4, [sp, #8]
 80a33c6:	ea44 2303 	orr.w	r3, r4, r3, lsl #8
 80a33ca:	ea43 4202 	orr.w	r2, r3, r2, lsl #16
 80a33ce:	ea42 6101 	orr.w	r1, r2, r1, lsl #24
 80a33d2:	2304      	movs	r3, #4
 80a33d4:	6041      	str	r1, [r0, #4]
 80a33d6:	7503      	strb	r3, [r0, #20]
 80a33d8:	bd10      	pop	{r4, pc}
	...

080a33dc <_ZN9IPAddressC1Ehhhh>:
{
    memcpy(&this->address, &address, sizeof(address));
}


IPAddress::IPAddress(uint8_t first_octet, uint8_t second_octet, uint8_t third_octet, uint8_t fourth_octet)
 80a33dc:	b537      	push	{r0, r1, r2, r4, r5, lr}
 80a33de:	4d04      	ldr	r5, [pc, #16]	; (80a33f0 <_ZN9IPAddressC1Ehhhh+0x14>)
 80a33e0:	6005      	str	r5, [r0, #0]
{
    set_ipv4(first_octet, second_octet, third_octet, fourth_octet);
 80a33e2:	f89d 5018 	ldrb.w	r5, [sp, #24]
 80a33e6:	9500      	str	r5, [sp, #0]
 80a33e8:	f7ff ffea 	bl	80a33c0 <_ZN9IPAddress8set_ipv4Ehhhh>
}
 80a33ec:	b003      	add	sp, #12
 80a33ee:	bd30      	pop	{r4, r5, pc}
 80a33f0:	080a58f8 	.word	0x080a58f8

080a33f4 <_ZN9USBSerial14blockOnOverrunEb>:
  HAL_USB_USART_Flush_Data(_serial);
}

void USBSerial::blockOnOverrun(bool block)
{
  _blocking = block;
 80a33f4:	7441      	strb	r1, [r0, #17]
 80a33f6:	4770      	bx	lr

080a33f8 <_ZN9USBSerialD1Ev>:
#include "usb_hal.h"
#include "system_task.h"
#include "spark_wiring_startup.h"
#include "concurrent_hal.h"

class USBSerial : public Stream
 80a33f8:	4770      	bx	lr

080a33fa <_ZN9USBSerial4readEv>:
}


// Read data from buffer
int USBSerial::read()
{
 80a33fa:	b508      	push	{r3, lr}
	return std::max(-1, (int)HAL_USB_USART_Receive_Data(_serial, false));
 80a33fc:	2100      	movs	r1, #0
 80a33fe:	7c00      	ldrb	r0, [r0, #16]
 80a3400:	f7ff f870 	bl	80a24e4 <HAL_USB_USART_Receive_Data>
}
 80a3404:	ea30 0020 	bics.w	r0, r0, r0, asr #32
 80a3408:	bf28      	it	cs
 80a340a:	f04f 30ff 	movcs.w	r0, #4294967295
 80a340e:	bd08      	pop	{r3, pc}

080a3410 <_ZN9USBSerial4peekEv>:
{
  _blocking = block;
}

int USBSerial::peek()
{
 80a3410:	b508      	push	{r3, lr}
	return std::max(-1, (int)HAL_USB_USART_Receive_Data(_serial, true));
 80a3412:	2101      	movs	r1, #1
 80a3414:	7c00      	ldrb	r0, [r0, #16]
 80a3416:	f7ff f865 	bl	80a24e4 <HAL_USB_USART_Receive_Data>
}
 80a341a:	ea30 0020 	bics.w	r0, r0, r0, asr #32
 80a341e:	bf28      	it	cs
 80a3420:	f04f 30ff 	movcs.w	r0, #4294967295
 80a3424:	bd08      	pop	{r3, pc}

080a3426 <_ZN9USBSerial17availableForWriteEv>:
{
	return std::max(-1, (int)HAL_USB_USART_Receive_Data(_serial, false));
}

int USBSerial::availableForWrite()
{
 80a3426:	b508      	push	{r3, lr}
  return std::max(0, (int)HAL_USB_USART_Available_Data_For_Write(_serial));
 80a3428:	7c00      	ldrb	r0, [r0, #16]
 80a342a:	f7ff f853 	bl	80a24d4 <HAL_USB_USART_Available_Data_For_Write>
}
 80a342e:	ea20 70e0 	bic.w	r0, r0, r0, asr #31
 80a3432:	bd08      	pop	{r3, pc}

080a3434 <_ZN9USBSerial9availableEv>:

int USBSerial::available()
{
 80a3434:	b508      	push	{r3, lr}
	return std::max(0, (int)HAL_USB_USART_Available_Data(_serial));
 80a3436:	7c00      	ldrb	r0, [r0, #16]
 80a3438:	f7ff f844 	bl	80a24c4 <HAL_USB_USART_Available_Data>
}
 80a343c:	ea20 70e0 	bic.w	r0, r0, r0, asr #31
 80a3440:	bd08      	pop	{r3, pc}

080a3442 <_ZN9USBSerial5flushEv>:
  return 0;
}

void USBSerial::flush()
{
  HAL_USB_USART_Flush_Data(_serial);
 80a3442:	7c00      	ldrb	r0, [r0, #16]
 80a3444:	f7ff b85e 	b.w	80a2504 <HAL_USB_USART_Flush_Data>

080a3448 <_ZN9USBSerialD0Ev>:
 80a3448:	b510      	push	{r4, lr}
 80a344a:	4604      	mov	r4, r0
 80a344c:	2114      	movs	r1, #20
 80a344e:	f000 fbe3 	bl	80a3c18 <_ZdlPvj>
 80a3452:	4620      	mov	r0, r4
 80a3454:	bd10      	pop	{r4, pc}

080a3456 <_ZN9USBSerial5writeEh>:
{
	return std::max(0, (int)HAL_USB_USART_Available_Data(_serial));
}

size_t USBSerial::write(uint8_t byte)
{
 80a3456:	b538      	push	{r3, r4, r5, lr}
 80a3458:	4604      	mov	r4, r0
  if (HAL_USB_USART_Available_Data_For_Write(_serial) > 0 || _blocking) {
 80a345a:	7c00      	ldrb	r0, [r0, #16]
{
	return std::max(0, (int)HAL_USB_USART_Available_Data(_serial));
}

size_t USBSerial::write(uint8_t byte)
{
 80a345c:	460d      	mov	r5, r1
  if (HAL_USB_USART_Available_Data_For_Write(_serial) > 0 || _blocking) {
 80a345e:	f7ff f839 	bl	80a24d4 <HAL_USB_USART_Available_Data_For_Write>
 80a3462:	2800      	cmp	r0, #0
 80a3464:	dc01      	bgt.n	80a346a <_ZN9USBSerial5writeEh+0x14>
 80a3466:	7c60      	ldrb	r0, [r4, #17]
 80a3468:	b128      	cbz	r0, 80a3476 <_ZN9USBSerial5writeEh+0x20>
    return std::max(0, (int)HAL_USB_USART_Send_Data(_serial, byte));
 80a346a:	4629      	mov	r1, r5
 80a346c:	7c20      	ldrb	r0, [r4, #16]
 80a346e:	f7ff f841 	bl	80a24f4 <HAL_USB_USART_Send_Data>
 80a3472:	ea20 70e0 	bic.w	r0, r0, r0, asr #31
  }
  return 0;
}
 80a3476:	bd38      	pop	{r3, r4, r5, pc}

080a3478 <_ZN9USBSerialC1E20HAL_USB_USART_SerialRK20HAL_USB_USART_Config>:

  HAL_USB_USART_Config conf = acquireSerialBuffer();
  HAL_USB_USART_Init(_serial, &conf);
}

USBSerial::USBSerial(HAL_USB_USART_Serial serial, const HAL_USB_USART_Config& conf)
 80a3478:	b510      	push	{r4, lr}
 80a347a:	4604      	mov	r4, r0
  protected:
    void setWriteError(int err = 1) { write_error = err; }
    size_t printf_impl(bool newline, const char* format, ...);

  public:
    Print() : write_error(0) {}
 80a347c:	2300      	movs	r3, #0
 80a347e:	6063      	str	r3, [r4, #4]
    virtual int available() = 0;
    virtual int read() = 0;
    virtual int peek() = 0;
    virtual void flush() = 0;

    Stream() {_timeout=1000;}
 80a3480:	f44f 737a 	mov.w	r3, #1000	; 0x3e8
 80a3484:	60a3      	str	r3, [r4, #8]
 80a3486:	4b05      	ldr	r3, [pc, #20]	; (80a349c <_ZN9USBSerialC1E20HAL_USB_USART_SerialRK20HAL_USB_USART_Config+0x24>)
 80a3488:	4608      	mov	r0, r1
 80a348a:	6023      	str	r3, [r4, #0]
{
  _serial = serial;
  _blocking = true;
 80a348c:	2301      	movs	r3, #1
  HAL_USB_USART_Init(_serial, &conf);
}

USBSerial::USBSerial(HAL_USB_USART_Serial serial, const HAL_USB_USART_Config& conf)
{
  _serial = serial;
 80a348e:	7421      	strb	r1, [r4, #16]
  _blocking = true;
 80a3490:	7463      	strb	r3, [r4, #17]

  HAL_USB_USART_Init(_serial, &conf);
 80a3492:	4611      	mov	r1, r2
 80a3494:	f7ff f80e 	bl	80a24b4 <HAL_USB_USART_Init>
}
 80a3498:	4620      	mov	r0, r4
 80a349a:	bd10      	pop	{r4, pc}
 80a349c:	080a590c 	.word	0x080a590c

080a34a0 <_Z19acquireSerialBufferv>:

// Preinstantiate Objects //////////////////////////////////////////////////////
#ifdef SPARK_USB_SERIAL

HAL_USB_USART_Config __attribute__((weak)) acquireSerialBuffer()
{
 80a34a0:	b510      	push	{r4, lr}
 80a34a2:	4604      	mov	r4, r0
  HAL_USB_USART_Config conf = {0};
 80a34a4:	2214      	movs	r2, #20
 80a34a6:	2100      	movs	r1, #0
 80a34a8:	f001 fb3b 	bl	80a4b22 <memset>

#if defined(USB_SERIAL_USERSPACE_BUFFERS) && ((MODULE_FUNCTION == MOD_FUNC_USER_PART) || (MODULE_FUNCTION == MOD_FUNC_MONO_FIRMWARE))
  static uint8_t serial_rx_buffer[USB_RX_BUFFER_SIZE];
  static uint8_t serial_tx_buffer[USB_TX_BUFFER_SIZE];

  conf.rx_buffer = serial_rx_buffer;
 80a34ac:	4b05      	ldr	r3, [pc, #20]	; (80a34c4 <_Z19acquireSerialBufferv+0x24>)
  conf.rx_buffer_size = USB_RX_BUFFER_SIZE;
  conf.tx_buffer_size = USB_TX_BUFFER_SIZE;
#endif

  return conf;
}
 80a34ae:	4620      	mov	r0, r4

#if defined(USB_SERIAL_USERSPACE_BUFFERS) && ((MODULE_FUNCTION == MOD_FUNC_USER_PART) || (MODULE_FUNCTION == MOD_FUNC_MONO_FIRMWARE))
  static uint8_t serial_rx_buffer[USB_RX_BUFFER_SIZE];
  static uint8_t serial_tx_buffer[USB_TX_BUFFER_SIZE];

  conf.rx_buffer = serial_rx_buffer;
 80a34b0:	6063      	str	r3, [r4, #4]
  conf.tx_buffer = serial_tx_buffer;
 80a34b2:	4b05      	ldr	r3, [pc, #20]	; (80a34c8 <_Z19acquireSerialBufferv+0x28>)
 80a34b4:	60e3      	str	r3, [r4, #12]
  conf.rx_buffer_size = USB_RX_BUFFER_SIZE;
 80a34b6:	f240 1301 	movw	r3, #257	; 0x101
 80a34ba:	8123      	strh	r3, [r4, #8]
  conf.tx_buffer_size = USB_TX_BUFFER_SIZE;
 80a34bc:	2381      	movs	r3, #129	; 0x81
 80a34be:	8223      	strh	r3, [r4, #16]
#endif

  return conf;
}
 80a34c0:	bd10      	pop	{r4, pc}
 80a34c2:	bf00      	nop
 80a34c4:	2000021d 	.word	0x2000021d
 80a34c8:	2000019c 	.word	0x2000019c

080a34cc <_Z16_fetch_usbserialv>:

USBSerial& _fetch_usbserial()
{
 80a34cc:	b530      	push	{r4, r5, lr}
  HAL_USB_USART_Config conf = acquireSerialBuffer();
	static USBSerial _usbserial(HAL_USB_USART_SERIAL, conf);
 80a34ce:	4d0e      	ldr	r5, [pc, #56]	; (80a3508 <_Z16_fetch_usbserialv+0x3c>)

  return conf;
}

USBSerial& _fetch_usbserial()
{
 80a34d0:	b087      	sub	sp, #28
  HAL_USB_USART_Config conf = acquireSerialBuffer();
 80a34d2:	a801      	add	r0, sp, #4
 80a34d4:	f7ff ffe4 	bl	80a34a0 <_Z19acquireSerialBufferv>
	static USBSerial _usbserial(HAL_USB_USART_SERIAL, conf);
 80a34d8:	6829      	ldr	r1, [r5, #0]
 80a34da:	f011 0401 	ands.w	r4, r1, #1
 80a34de:	d110      	bne.n	80a3502 <_Z16_fetch_usbserialv+0x36>
 80a34e0:	4628      	mov	r0, r5
 80a34e2:	f7fc fdeb 	bl	80a00bc <__cxa_guard_acquire>
 80a34e6:	b160      	cbz	r0, 80a3502 <_Z16_fetch_usbserialv+0x36>
 80a34e8:	aa01      	add	r2, sp, #4
 80a34ea:	4621      	mov	r1, r4
 80a34ec:	4807      	ldr	r0, [pc, #28]	; (80a350c <_Z16_fetch_usbserialv+0x40>)
 80a34ee:	f7ff ffc3 	bl	80a3478 <_ZN9USBSerialC1E20HAL_USB_USART_SerialRK20HAL_USB_USART_Config>
 80a34f2:	4628      	mov	r0, r5
 80a34f4:	f7fc fde7 	bl	80a00c6 <__cxa_guard_release>
 80a34f8:	4a05      	ldr	r2, [pc, #20]	; (80a3510 <_Z16_fetch_usbserialv+0x44>)
 80a34fa:	4906      	ldr	r1, [pc, #24]	; (80a3514 <_Z16_fetch_usbserialv+0x48>)
 80a34fc:	4803      	ldr	r0, [pc, #12]	; (80a350c <_Z16_fetch_usbserialv+0x40>)
 80a34fe:	f000 fb7d 	bl	80a3bfc <__aeabi_atexit>
	return _usbserial;
}
 80a3502:	4802      	ldr	r0, [pc, #8]	; (80a350c <_Z16_fetch_usbserialv+0x40>)
 80a3504:	b007      	add	sp, #28
 80a3506:	bd30      	pop	{r4, r5, pc}
 80a3508:	20000198 	.word	0x20000198
 80a350c:	20000320 	.word	0x20000320
 80a3510:	20000080 	.word	0x20000080
 80a3514:	080a33f9 	.word	0x080a33f9

080a3518 <_Z23acquireUSBSerial1Bufferv>:

#if Wiring_USBSerial1

HAL_USB_USART_Config __attribute__((weak)) acquireUSBSerial1Buffer()
{
 80a3518:	b510      	push	{r4, lr}
 80a351a:	4604      	mov	r4, r0
  HAL_USB_USART_Config conf = {0};
 80a351c:	2214      	movs	r2, #20
 80a351e:	2100      	movs	r1, #0
 80a3520:	f001 faff 	bl	80a4b22 <memset>

#if defined(USB_SERIAL_USERSPACE_BUFFERS) && ((MODULE_FUNCTION == MOD_FUNC_USER_PART) || (MODULE_FUNCTION == MOD_FUNC_MONO_FIRMWARE))
  static uint8_t usbserial1_rx_buffer[USB_RX_BUFFER_SIZE];
  static uint8_t usbserial1_tx_buffer[USB_TX_BUFFER_SIZE];

  conf.rx_buffer = usbserial1_rx_buffer;
 80a3524:	4b05      	ldr	r3, [pc, #20]	; (80a353c <_Z23acquireUSBSerial1Bufferv+0x24>)
  conf.rx_buffer_size = USB_RX_BUFFER_SIZE;
  conf.tx_buffer_size = USB_TX_BUFFER_SIZE;
#endif

  return conf;
}
 80a3526:	4620      	mov	r0, r4

#if defined(USB_SERIAL_USERSPACE_BUFFERS) && ((MODULE_FUNCTION == MOD_FUNC_USER_PART) || (MODULE_FUNCTION == MOD_FUNC_MONO_FIRMWARE))
  static uint8_t usbserial1_rx_buffer[USB_RX_BUFFER_SIZE];
  static uint8_t usbserial1_tx_buffer[USB_TX_BUFFER_SIZE];

  conf.rx_buffer = usbserial1_rx_buffer;
 80a3528:	6063      	str	r3, [r4, #4]
  conf.tx_buffer = usbserial1_tx_buffer;
 80a352a:	4b05      	ldr	r3, [pc, #20]	; (80a3540 <_Z23acquireUSBSerial1Bufferv+0x28>)
 80a352c:	60e3      	str	r3, [r4, #12]
  conf.rx_buffer_size = USB_RX_BUFFER_SIZE;
 80a352e:	f240 1301 	movw	r3, #257	; 0x101
 80a3532:	8123      	strh	r3, [r4, #8]
  conf.tx_buffer_size = USB_TX_BUFFER_SIZE;
 80a3534:	2381      	movs	r3, #129	; 0x81
 80a3536:	8223      	strh	r3, [r4, #16]
#endif

  return conf;
}
 80a3538:	bd10      	pop	{r4, pc}
 80a353a:	bf00      	nop
 80a353c:	200003d0 	.word	0x200003d0
 80a3540:	20000338 	.word	0x20000338

080a3544 <_Z17_fetch_usbserial1v>:

USBSerial& _fetch_usbserial1()
{
 80a3544:	b510      	push	{r4, lr}
  HAL_USB_USART_Config conf = acquireUSBSerial1Buffer();
  static USBSerial _usbserial1(HAL_USB_USART_SERIAL1, conf);
 80a3546:	4c0e      	ldr	r4, [pc, #56]	; (80a3580 <_Z17_fetch_usbserial1v+0x3c>)

  return conf;
}

USBSerial& _fetch_usbserial1()
{
 80a3548:	b086      	sub	sp, #24
  HAL_USB_USART_Config conf = acquireUSBSerial1Buffer();
 80a354a:	a801      	add	r0, sp, #4
 80a354c:	f7ff ffe4 	bl	80a3518 <_Z23acquireUSBSerial1Bufferv>
  static USBSerial _usbserial1(HAL_USB_USART_SERIAL1, conf);
 80a3550:	6823      	ldr	r3, [r4, #0]
 80a3552:	07db      	lsls	r3, r3, #31
 80a3554:	d410      	bmi.n	80a3578 <_Z17_fetch_usbserial1v+0x34>
 80a3556:	4620      	mov	r0, r4
 80a3558:	f7fc fdb0 	bl	80a00bc <__cxa_guard_acquire>
 80a355c:	b160      	cbz	r0, 80a3578 <_Z17_fetch_usbserial1v+0x34>
 80a355e:	aa01      	add	r2, sp, #4
 80a3560:	2101      	movs	r1, #1
 80a3562:	4808      	ldr	r0, [pc, #32]	; (80a3584 <_Z17_fetch_usbserial1v+0x40>)
 80a3564:	f7ff ff88 	bl	80a3478 <_ZN9USBSerialC1E20HAL_USB_USART_SerialRK20HAL_USB_USART_Config>
 80a3568:	4620      	mov	r0, r4
 80a356a:	f7fc fdac 	bl	80a00c6 <__cxa_guard_release>
 80a356e:	4a06      	ldr	r2, [pc, #24]	; (80a3588 <_Z17_fetch_usbserial1v+0x44>)
 80a3570:	4906      	ldr	r1, [pc, #24]	; (80a358c <_Z17_fetch_usbserial1v+0x48>)
 80a3572:	4804      	ldr	r0, [pc, #16]	; (80a3584 <_Z17_fetch_usbserial1v+0x40>)
 80a3574:	f000 fb42 	bl	80a3bfc <__aeabi_atexit>
  return _usbserial1;
}
 80a3578:	4802      	ldr	r0, [pc, #8]	; (80a3584 <_Z17_fetch_usbserial1v+0x40>)
 80a357a:	b006      	add	sp, #24
 80a357c:	bd10      	pop	{r4, pc}
 80a357e:	bf00      	nop
 80a3580:	20000334 	.word	0x20000334
 80a3584:	200003bc 	.word	0x200003bc
 80a3588:	20000080 	.word	0x20000080
 80a358c:	080a33f9 	.word	0x080a33f9

080a3590 <_Z29call_wiring_interrupt_handlerPv>:
  template<typename _Res, typename... _ArgTypes>
    _Res
    function<_Res(_ArgTypes...)>::
    operator()(_ArgTypes... __args) const
    {
      if (_M_empty())
 80a3590:	6882      	ldr	r2, [r0, #8]
    delete handlers[pin];
    return handlers[pin] = new wiring_interrupt_handler_t(fn);
}

void call_wiring_interrupt_handler(void* data)
{
 80a3592:	b510      	push	{r4, lr}
 80a3594:	b90a      	cbnz	r2, 80a359a <_Z29call_wiring_interrupt_handlerPv+0xa>
	__throw_bad_function_call();
 80a3596:	f000 fb52 	bl	80a3c3e <_ZSt25__throw_bad_function_callv>
      return _M_invoker(_M_functor, std::forward<_ArgTypes>(__args)...);
 80a359a:	68c3      	ldr	r3, [r0, #12]
    wiring_interrupt_handler_t* handler = (wiring_interrupt_handler_t*)data;
    (*handler)();
}
 80a359c:	e8bd 4010 	ldmia.w	sp!, {r4, lr}
 80a35a0:	4718      	bx	r3
	...

080a35a4 <_Z15detachInterruptt>:
 * Input          : pin number to which the interrupt was attached
 * Output         : None.
 * Return         : true or false
 *******************************************************************************/
bool detachInterrupt(uint16_t pin)
{
 80a35a4:	b5f8      	push	{r3, r4, r5, r6, r7, lr}
 80a35a6:	4606      	mov	r6, r0
    if (SYSTEM_ERROR_NONE != HAL_Interrupts_Detach(pin)) {
 80a35a8:	f7fe fe42 	bl	80a2230 <HAL_Interrupts_Detach>
 80a35ac:	4607      	mov	r7, r0
 80a35ae:	b968      	cbnz	r0, 80a35cc <_Z15detachInterruptt+0x28>
        return false;
    }
    if (handlers[pin]) {
 80a35b0:	4d08      	ldr	r5, [pc, #32]	; (80a35d4 <_Z15detachInterruptt+0x30>)
 80a35b2:	f855 4026 	ldr.w	r4, [r5, r6, lsl #2]
 80a35b6:	b15c      	cbz	r4, 80a35d0 <_Z15detachInterruptt+0x2c>
   *  @ingroup functors
   *
   *  Polymorphic function wrapper.
   */
  template<typename _Res, typename... _ArgTypes>
    class function<_Res(_ArgTypes...)>
 80a35b8:	4620      	mov	r0, r4
 80a35ba:	f7ff fb2a 	bl	80a2c12 <_ZNSt14_Function_baseD1Ev>
        delete handlers[pin];
 80a35be:	2110      	movs	r1, #16
 80a35c0:	4620      	mov	r0, r4
 80a35c2:	f000 fb29 	bl	80a3c18 <_ZdlPvj>
        handlers[pin] = nullptr;
 80a35c6:	f845 7026 	str.w	r7, [r5, r6, lsl #2]
 80a35ca:	e001      	b.n	80a35d0 <_Z15detachInterruptt+0x2c>
 * Return         : true or false
 *******************************************************************************/
bool detachInterrupt(uint16_t pin)
{
    if (SYSTEM_ERROR_NONE != HAL_Interrupts_Detach(pin)) {
        return false;
 80a35cc:	2000      	movs	r0, #0
 80a35ce:	bdf8      	pop	{r3, r4, r5, r6, r7, pc}
    }
    if (handlers[pin]) {
        delete handlers[pin];
        handlers[pin] = nullptr;
    }
    return true;
 80a35d0:	2001      	movs	r0, #1
}
 80a35d2:	bdf8      	pop	{r3, r4, r5, r6, r7, pc}
 80a35d4:	200004d4 	.word	0x200004d4

080a35d8 <_ZNSt8functionIFvvEEC1ERKS1_>:
      _Invoker_type _M_invoker;
  };

  // Out-of-line member definitions.
  template<typename _Res, typename... _ArgTypes>
    function<_Res(_ArgTypes...)>::
 80a35d8:	b538      	push	{r3, r4, r5, lr}
	{
	  _Base::_M_init_functor(__functor, std::__addressof(__f.get()));
	}
      };

    _Function_base() : _M_manager(nullptr) { }
 80a35da:	2300      	movs	r3, #0
 80a35dc:	6083      	str	r3, [r0, #8]
 80a35de:	688b      	ldr	r3, [r1, #8]
      _Invoker_type _M_invoker;
  };

  // Out-of-line member definitions.
  template<typename _Res, typename... _ArgTypes>
    function<_Res(_ArgTypes...)>::
 80a35e0:	4604      	mov	r4, r0
 80a35e2:	460d      	mov	r5, r1
    function(const function& __x)
    : _Function_base()
    {
      if (static_cast<bool>(__x))
 80a35e4:	b12b      	cbz	r3, 80a35f2 <_ZNSt8functionIFvvEEC1ERKS1_+0x1a>
	{
	  __x._M_manager(_M_functor, __x._M_functor, __clone_functor);
 80a35e6:	2202      	movs	r2, #2
 80a35e8:	4798      	blx	r3
	  _M_invoker = __x._M_invoker;
 80a35ea:	68eb      	ldr	r3, [r5, #12]
 80a35ec:	60e3      	str	r3, [r4, #12]
	  _M_manager = __x._M_manager;
 80a35ee:	68ab      	ldr	r3, [r5, #8]
 80a35f0:	60a3      	str	r3, [r4, #8]
	}
    }
 80a35f2:	4620      	mov	r0, r4
 80a35f4:	bd38      	pop	{r3, r4, r5, pc}
	...

080a35f8 <_Z16allocate_handlertRSt8functionIFvvEE>:
#include "system_error.h"

static wiring_interrupt_handler_t* handlers[TOTAL_PINS];

wiring_interrupt_handler_t* allocate_handler(uint16_t pin, wiring_interrupt_handler_t& fn)
{
 80a35f8:	b5f8      	push	{r3, r4, r5, r6, r7, lr}
    delete handlers[pin];
 80a35fa:	4b0d      	ldr	r3, [pc, #52]	; (80a3630 <_Z16allocate_handlertRSt8functionIFvvEE+0x38>)
#include "system_error.h"

static wiring_interrupt_handler_t* handlers[TOTAL_PINS];

wiring_interrupt_handler_t* allocate_handler(uint16_t pin, wiring_interrupt_handler_t& fn)
{
 80a35fc:	4606      	mov	r6, r0
    delete handlers[pin];
 80a35fe:	f853 5020 	ldr.w	r5, [r3, r0, lsl #2]
#include "system_error.h"

static wiring_interrupt_handler_t* handlers[TOTAL_PINS];

wiring_interrupt_handler_t* allocate_handler(uint16_t pin, wiring_interrupt_handler_t& fn)
{
 80a3602:	460f      	mov	r7, r1
 80a3604:	461c      	mov	r4, r3
    delete handlers[pin];
 80a3606:	b135      	cbz	r5, 80a3616 <_Z16allocate_handlertRSt8functionIFvvEE+0x1e>
   *  @ingroup functors
   *
   *  Polymorphic function wrapper.
   */
  template<typename _Res, typename... _ArgTypes>
    class function<_Res(_ArgTypes...)>
 80a3608:	4628      	mov	r0, r5
 80a360a:	f7ff fb02 	bl	80a2c12 <_ZNSt14_Function_baseD1Ev>
 80a360e:	2110      	movs	r1, #16
 80a3610:	4628      	mov	r0, r5
 80a3612:	f000 fb01 	bl	80a3c18 <_ZdlPvj>
    return handlers[pin] = new wiring_interrupt_handler_t(fn);
 80a3616:	2010      	movs	r0, #16
 80a3618:	f7fc fd41 	bl	80a009e <_Znwj>
 80a361c:	4605      	mov	r5, r0
 80a361e:	b110      	cbz	r0, 80a3626 <_Z16allocate_handlertRSt8functionIFvvEE+0x2e>
 80a3620:	4639      	mov	r1, r7
 80a3622:	f7ff ffd9 	bl	80a35d8 <_ZNSt8functionIFvvEEC1ERKS1_>
 80a3626:	f844 5026 	str.w	r5, [r4, r6, lsl #2]
}
 80a362a:	4628      	mov	r0, r5
 80a362c:	bdf8      	pop	{r3, r4, r5, r6, r7, pc}
 80a362e:	bf00      	nop
 80a3630:	200004d4 	.word	0x200004d4

080a3634 <_Z15attachInterrupttSt8functionIFvvEE13InterruptModeah>:
  }
  return nullptr;
}

bool attachInterrupt(uint16_t pin, wiring_interrupt_handler_t fn, InterruptMode mode, int8_t priority, uint8_t subpriority)
{
 80a3634:	b5f0      	push	{r4, r5, r6, r7, lr}
 80a3636:	460c      	mov	r4, r1
 80a3638:	4605      	mov	r5, r0
 80a363a:	b085      	sub	sp, #20
 80a363c:	4617      	mov	r7, r2
 80a363e:	461e      	mov	r6, r3
    HAL_Interrupts_Detach(pin);
 80a3640:	f7fe fdf6 	bl	80a2230 <HAL_Interrupts_Detach>
    wiring_interrupt_handler_t* handler = allocate_handler(pin, fn);
 80a3644:	4621      	mov	r1, r4
 80a3646:	4628      	mov	r0, r5
 80a3648:	f7ff ffd6 	bl	80a35f8 <_Z16allocate_handlertRSt8functionIFvvEE>
    if (handler) {
 80a364c:	4604      	mov	r4, r0
 80a364e:	b1d0      	cbz	r0, 80a3686 <_Z15attachInterrupttSt8functionIFvvEE13InterruptModeah+0x52>
        HAL_InterruptExtraConfiguration extra = {0};
 80a3650:	2100      	movs	r1, #0
 * Return         : true if function handler was allocated, false otherwise.
 *******************************************************************************/

HAL_InterruptExtraConfiguration* configure_interrupt(HAL_InterruptExtraConfiguration& extra, int8_t priority, uint8_t subpriority)
{
  extra.version = HAL_INTERRUPT_EXTRA_CONFIGURATION_VERSION_1;
 80a3652:	2304      	movs	r3, #4
  if (priority >= 0) {
 80a3654:	428e      	cmp	r6, r1
bool attachInterrupt(uint16_t pin, wiring_interrupt_handler_t fn, InterruptMode mode, int8_t priority, uint8_t subpriority)
{
    HAL_Interrupts_Detach(pin);
    wiring_interrupt_handler_t* handler = allocate_handler(pin, fn);
    if (handler) {
        HAL_InterruptExtraConfiguration extra = {0};
 80a3656:	9103      	str	r1, [sp, #12]
 * Return         : true if function handler was allocated, false otherwise.
 *******************************************************************************/

HAL_InterruptExtraConfiguration* configure_interrupt(HAL_InterruptExtraConfiguration& extra, int8_t priority, uint8_t subpriority)
{
  extra.version = HAL_INTERRUPT_EXTRA_CONFIGURATION_VERSION_1;
 80a3658:	f88d 300c 	strb.w	r3, [sp, #12]
  if (priority >= 0) {
    extra.IRQChannelPreemptionPriority = (uint8_t)priority;
    extra.IRQChannelSubPriority = subpriority;
    return &extra;
  }
  return nullptr;
 80a365c:	bfb4      	ite	lt
 80a365e:	460b      	movlt	r3, r1
HAL_InterruptExtraConfiguration* configure_interrupt(HAL_InterruptExtraConfiguration& extra, int8_t priority, uint8_t subpriority)
{
  extra.version = HAL_INTERRUPT_EXTRA_CONFIGURATION_VERSION_1;
  if (priority >= 0) {
    extra.IRQChannelPreemptionPriority = (uint8_t)priority;
    extra.IRQChannelSubPriority = subpriority;
 80a3660:	f89d 3028 	ldrbge.w	r3, [sp, #40]	; 0x28
{
    HAL_Interrupts_Detach(pin);
    wiring_interrupt_handler_t* handler = allocate_handler(pin, fn);
    if (handler) {
        HAL_InterruptExtraConfiguration extra = {0};
        if (SYSTEM_ERROR_NONE != HAL_Interrupts_Attach(pin, call_wiring_interrupt_handler, handler, mode, configure_interrupt(extra, priority, subpriority))) {
 80a3664:	4602      	mov	r2, r0
HAL_InterruptExtraConfiguration* configure_interrupt(HAL_InterruptExtraConfiguration& extra, int8_t priority, uint8_t subpriority)
{
  extra.version = HAL_INTERRUPT_EXTRA_CONFIGURATION_VERSION_1;
  if (priority >= 0) {
    extra.IRQChannelPreemptionPriority = (uint8_t)priority;
    extra.IRQChannelSubPriority = subpriority;
 80a3666:	bfa4      	itt	ge
 80a3668:	f88d 300e 	strbge.w	r3, [sp, #14]
    return &extra;
 80a366c:	ab03      	addge	r3, sp, #12
{
    HAL_Interrupts_Detach(pin);
    wiring_interrupt_handler_t* handler = allocate_handler(pin, fn);
    if (handler) {
        HAL_InterruptExtraConfiguration extra = {0};
        if (SYSTEM_ERROR_NONE != HAL_Interrupts_Attach(pin, call_wiring_interrupt_handler, handler, mode, configure_interrupt(extra, priority, subpriority))) {
 80a366e:	9300      	str	r3, [sp, #0]
 80a3670:	4907      	ldr	r1, [pc, #28]	; (80a3690 <_Z15attachInterrupttSt8functionIFvvEE13InterruptModeah+0x5c>)
 80a3672:	463b      	mov	r3, r7
 80a3674:	4628      	mov	r0, r5

HAL_InterruptExtraConfiguration* configure_interrupt(HAL_InterruptExtraConfiguration& extra, int8_t priority, uint8_t subpriority)
{
  extra.version = HAL_INTERRUPT_EXTRA_CONFIGURATION_VERSION_1;
  if (priority >= 0) {
    extra.IRQChannelPreemptionPriority = (uint8_t)priority;
 80a3676:	bfa8      	it	ge
 80a3678:	f88d 600d 	strbge.w	r6, [sp, #13]
{
    HAL_Interrupts_Detach(pin);
    wiring_interrupt_handler_t* handler = allocate_handler(pin, fn);
    if (handler) {
        HAL_InterruptExtraConfiguration extra = {0};
        if (SYSTEM_ERROR_NONE != HAL_Interrupts_Attach(pin, call_wiring_interrupt_handler, handler, mode, configure_interrupt(extra, priority, subpriority))) {
 80a367c:	f7fe fdd0 	bl	80a2220 <HAL_Interrupts_Attach>
 80a3680:	b108      	cbz	r0, 80a3686 <_Z15attachInterrupttSt8functionIFvvEE13InterruptModeah+0x52>
            return false;
 80a3682:	2000      	movs	r0, #0
 80a3684:	e002      	b.n	80a368c <_Z15attachInterrupttSt8functionIFvvEE13InterruptModeah+0x58>
        }
    }
    return handler!=NULL;
 80a3686:	1c20      	adds	r0, r4, #0
 80a3688:	bf18      	it	ne
 80a368a:	2001      	movne	r0, #1
}
 80a368c:	b005      	add	sp, #20
 80a368e:	bdf0      	pop	{r4, r5, r6, r7, pc}
 80a3690:	080a3591 	.word	0x080a3591

080a3694 <_ZN11USARTSerialD1Ev>:
private:
  HAL_USART_Serial _serial;
  bool _blocking;
public:
  USARTSerial(HAL_USART_Serial serial, Ring_Buffer *rx_buffer, Ring_Buffer *tx_buffer);
  virtual ~USARTSerial() {};
 80a3694:	4770      	bx	lr

080a3696 <_ZN11USARTSerial14blockOnOverrunEb>:
    HAL_USART_Half_Duplex(_serial, Enable);
}

void USARTSerial::blockOnOverrun(bool block)
{
  _blocking = block;
 80a3696:	7441      	strb	r1, [r0, #17]
 80a3698:	4770      	bx	lr

080a369a <_ZN11USARTSerial17availableForWriteEv>:
}


int USARTSerial::availableForWrite(void)
{
 80a369a:	b508      	push	{r3, lr}
  return std::max(0, (int)HAL_USART_Available_Data_For_Write(_serial));
 80a369c:	7c00      	ldrb	r0, [r0, #16]
 80a369e:	f7fe fe9f 	bl	80a23e0 <HAL_USART_Available_Data_For_Write>
}
 80a36a2:	ea20 70e0 	bic.w	r0, r0, r0, asr #31
 80a36a6:	bd08      	pop	{r3, pc}

080a36a8 <_ZN11USARTSerial9availableEv>:

int USARTSerial::available(void)
{
 80a36a8:	b508      	push	{r3, lr}
  return std::max(0, (int)HAL_USART_Available_Data(_serial));
 80a36aa:	7c00      	ldrb	r0, [r0, #16]
 80a36ac:	f7fe fe70 	bl	80a2390 <HAL_USART_Available_Data>
}
 80a36b0:	ea20 70e0 	bic.w	r0, r0, r0, asr #31
 80a36b4:	bd08      	pop	{r3, pc}

080a36b6 <_ZN11USARTSerial4peekEv>:

int USARTSerial::peek(void)
{
 80a36b6:	b508      	push	{r3, lr}
  return std::max(-1, (int)HAL_USART_Peek_Data(_serial));
 80a36b8:	7c00      	ldrb	r0, [r0, #16]
 80a36ba:	f7fe fe79 	bl	80a23b0 <HAL_USART_Peek_Data>
}
 80a36be:	ea30 0020 	bics.w	r0, r0, r0, asr #32
 80a36c2:	bf28      	it	cs
 80a36c4:	f04f 30ff 	movcs.w	r0, #4294967295
 80a36c8:	bd08      	pop	{r3, pc}

080a36ca <_ZN11USARTSerial4readEv>:

int USARTSerial::read(void)
{
 80a36ca:	b508      	push	{r3, lr}
  return std::max(-1, (int)HAL_USART_Read_Data(_serial));
 80a36cc:	7c00      	ldrb	r0, [r0, #16]
 80a36ce:	f7fe fe67 	bl	80a23a0 <HAL_USART_Read_Data>
}
 80a36d2:	ea30 0020 	bics.w	r0, r0, r0, asr #32
 80a36d6:	bf28      	it	cs
 80a36d8:	f04f 30ff 	movcs.w	r0, #4294967295
 80a36dc:	bd08      	pop	{r3, pc}

080a36de <_ZN11USARTSerial5flushEv>:

void USARTSerial::flush()
{
  HAL_USART_Flush_Data(_serial);
 80a36de:	7c00      	ldrb	r0, [r0, #16]
 80a36e0:	f7fe be6e 	b.w	80a23c0 <HAL_USART_Flush_Data>

080a36e4 <_ZN11USARTSerialD0Ev>:
 80a36e4:	b510      	push	{r4, lr}
 80a36e6:	4604      	mov	r4, r0
 80a36e8:	2114      	movs	r1, #20
 80a36ea:	f000 fa95 	bl	80a3c18 <_ZdlPvj>
 80a36ee:	4620      	mov	r0, r4
 80a36f0:	bd10      	pop	{r4, pc}

080a36f2 <_ZN11USARTSerial5writeEh>:
}

size_t USARTSerial::write(uint8_t c)
{
 80a36f2:	b570      	push	{r4, r5, r6, lr}
  // attempt a write if blocking, or for non-blocking if there is room.
  if (_blocking || HAL_USART_Available_Data_For_Write(_serial) > 0) {
 80a36f4:	7c45      	ldrb	r5, [r0, #17]
{
  HAL_USART_Flush_Data(_serial);
}

size_t USARTSerial::write(uint8_t c)
{
 80a36f6:	4604      	mov	r4, r0
 80a36f8:	460e      	mov	r6, r1
  // attempt a write if blocking, or for non-blocking if there is room.
  if (_blocking || HAL_USART_Available_Data_For_Write(_serial) > 0) {
 80a36fa:	b925      	cbnz	r5, 80a3706 <_ZN11USARTSerial5writeEh+0x14>
 80a36fc:	7c00      	ldrb	r0, [r0, #16]
 80a36fe:	f7fe fe6f 	bl	80a23e0 <HAL_USART_Available_Data_For_Write>
 80a3702:	2800      	cmp	r0, #0
 80a3704:	dd05      	ble.n	80a3712 <_ZN11USARTSerial5writeEh+0x20>
    // the HAL always blocks.
	  return HAL_USART_Write_Data(_serial, c);
 80a3706:	4631      	mov	r1, r6
 80a3708:	7c20      	ldrb	r0, [r4, #16]
  }
  return 0;
}
 80a370a:	e8bd 4070 	ldmia.w	sp!, {r4, r5, r6, lr}
size_t USARTSerial::write(uint8_t c)
{
  // attempt a write if blocking, or for non-blocking if there is room.
  if (_blocking || HAL_USART_Available_Data_For_Write(_serial) > 0) {
    // the HAL always blocks.
	  return HAL_USART_Write_Data(_serial, c);
 80a370e:	f7fe be37 	b.w	80a2380 <HAL_USART_Write_Data>
  }
  return 0;
}
 80a3712:	4628      	mov	r0, r5
 80a3714:	bd70      	pop	{r4, r5, r6, pc}
	...

080a3718 <_ZN11USARTSerialC1E16HAL_USART_SerialP11Ring_BufferS2_>:
#include "spark_wiring_constants.h"
#include "module_info.h"

// Constructors ////////////////////////////////////////////////////////////////

USARTSerial::USARTSerial(HAL_USART_Serial serial, Ring_Buffer *rx_buffer, Ring_Buffer *tx_buffer)
 80a3718:	b510      	push	{r4, lr}
 80a371a:	4604      	mov	r4, r0
 80a371c:	4608      	mov	r0, r1
 80a371e:	4611      	mov	r1, r2
 80a3720:	2200      	movs	r2, #0
 80a3722:	6062      	str	r2, [r4, #4]
 80a3724:	f44f 727a 	mov.w	r2, #1000	; 0x3e8
 80a3728:	60a2      	str	r2, [r4, #8]
 80a372a:	4a05      	ldr	r2, [pc, #20]	; (80a3740 <_ZN11USARTSerialC1E16HAL_USART_SerialP11Ring_BufferS2_+0x28>)
{
  _serial = serial;
 80a372c:	7420      	strb	r0, [r4, #16]
#include "spark_wiring_constants.h"
#include "module_info.h"

// Constructors ////////////////////////////////////////////////////////////////

USARTSerial::USARTSerial(HAL_USART_Serial serial, Ring_Buffer *rx_buffer, Ring_Buffer *tx_buffer)
 80a372e:	6022      	str	r2, [r4, #0]
{
  _serial = serial;
  // Default is blocking mode
  _blocking = true;
 80a3730:	2201      	movs	r2, #1
 80a3732:	7462      	strb	r2, [r4, #17]
  HAL_USART_Init(serial, rx_buffer, tx_buffer);
 80a3734:	461a      	mov	r2, r3
 80a3736:	f7fe fe13 	bl	80a2360 <HAL_USART_Init>
}
 80a373a:	4620      	mov	r0, r4
 80a373c:	bd10      	pop	{r4, pc}
 80a373e:	bf00      	nop
 80a3740:	080a593c 	.word	0x080a593c

080a3744 <_ZN11USARTSerial5beginEmm>:
  begin(baud, SERIAL_8N1);
}

void USARTSerial::begin(unsigned long baud, uint32_t config)
{
  HAL_USART_BeginConfig(_serial, baud, config, 0);
 80a3744:	2300      	movs	r3, #0
 80a3746:	7c00      	ldrb	r0, [r0, #16]
 80a3748:	f7fe be52 	b.w	80a23f0 <HAL_USART_BeginConfig>

080a374c <_ZN11USARTSerial3endEv>:
}

void USARTSerial::end()
{
  HAL_USART_End(_serial);
 80a374c:	7c00      	ldrb	r0, [r0, #16]
 80a374e:	f7fe be0f 	b.w	80a2370 <HAL_USART_End>

080a3752 <_ZN11USARTSerial9isEnabledEv>:
USARTSerial::operator bool() {
  return true;
}

bool USARTSerial::isEnabled() {
  return HAL_USART_Is_Enabled(_serial);
 80a3752:	7c00      	ldrb	r0, [r0, #16]
 80a3754:	f7fe be3c 	b.w	80a23d0 <HAL_USART_Is_Enabled>

080a3758 <_Z22__fetch_global_Serial1v>:
static Ring_Buffer* serial1_rx_buffer = NULL;
static Ring_Buffer* serial1_tx_buffer = NULL;
#endif

USARTSerial& __fetch_global_Serial1()
{
 80a3758:	b538      	push	{r3, r4, r5, lr}
#if ((MODULE_FUNCTION == MOD_FUNC_USER_PART) || (MODULE_FUNCTION == MOD_FUNC_MONO_FIRMWARE))
	static USARTSerial serial1(HAL_USART_SERIAL1, &serial1_rx_buffer, &serial1_tx_buffer);
 80a375a:	4d0c      	ldr	r5, [pc, #48]	; (80a378c <_Z22__fetch_global_Serial1v+0x34>)
 80a375c:	6829      	ldr	r1, [r5, #0]
 80a375e:	f011 0401 	ands.w	r4, r1, #1
 80a3762:	d111      	bne.n	80a3788 <_Z22__fetch_global_Serial1v+0x30>
 80a3764:	4628      	mov	r0, r5
 80a3766:	f7fc fca9 	bl	80a00bc <__cxa_guard_acquire>
 80a376a:	b168      	cbz	r0, 80a3788 <_Z22__fetch_global_Serial1v+0x30>
 80a376c:	4a08      	ldr	r2, [pc, #32]	; (80a3790 <_Z22__fetch_global_Serial1v+0x38>)
 80a376e:	4621      	mov	r1, r4
 80a3770:	4b08      	ldr	r3, [pc, #32]	; (80a3794 <_Z22__fetch_global_Serial1v+0x3c>)
 80a3772:	4809      	ldr	r0, [pc, #36]	; (80a3798 <_Z22__fetch_global_Serial1v+0x40>)
 80a3774:	f7ff ffd0 	bl	80a3718 <_ZN11USARTSerialC1E16HAL_USART_SerialP11Ring_BufferS2_>
 80a3778:	4628      	mov	r0, r5
 80a377a:	f7fc fca4 	bl	80a00c6 <__cxa_guard_release>
 80a377e:	4a07      	ldr	r2, [pc, #28]	; (80a379c <_Z22__fetch_global_Serial1v+0x44>)
 80a3780:	4907      	ldr	r1, [pc, #28]	; (80a37a0 <_Z22__fetch_global_Serial1v+0x48>)
 80a3782:	4805      	ldr	r0, [pc, #20]	; (80a3798 <_Z22__fetch_global_Serial1v+0x40>)
 80a3784:	f000 fa3a 	bl	80a3bfc <__aeabi_atexit>
    serial1_tx_buffer = new Ring_Buffer();
  }
  static USARTSerial serial1(HAL_USART_SERIAL1, serial1_rx_buffer, serial1_tx_buffer);
#endif
	return serial1;
}
 80a3788:	4803      	ldr	r0, [pc, #12]	; (80a3798 <_Z22__fetch_global_Serial1v+0x40>)
 80a378a:	bd38      	pop	{r3, r4, r5, pc}
 80a378c:	200005cc 	.word	0x200005cc
 80a3790:	200005d0 	.word	0x200005d0
 80a3794:	20000548 	.word	0x20000548
 80a3798:	20000534 	.word	0x20000534
 80a379c:	20000080 	.word	0x20000080
 80a37a0:	080a3695 	.word	0x080a3695

080a37a4 <_ZN8particle6detail21futureCallbackWrapperEPv>:
 * License along with this library; if not, see <http://www.gnu.org/licenses/>.
 */

#include "spark_wiring_async.h"

void particle::detail::futureCallbackWrapper(void* data) {
 80a37a4:	b510      	push	{r4, lr}
  template<typename _Res, typename... _ArgTypes>
    _Res
    function<_Res(_ArgTypes...)>::
    operator()(_ArgTypes... __args) const
    {
      if (_M_empty())
 80a37a6:	6883      	ldr	r3, [r0, #8]
 80a37a8:	4604      	mov	r4, r0
 80a37aa:	b90b      	cbnz	r3, 80a37b0 <_ZN8particle6detail21futureCallbackWrapperEPv+0xc>
	__throw_bad_function_call();
 80a37ac:	f000 fa47 	bl	80a3c3e <_ZSt25__throw_bad_function_callv>
      return _M_invoker(_M_functor, std::forward<_ArgTypes>(__args)...);
 80a37b0:	68c3      	ldr	r3, [r0, #12]
 80a37b2:	4798      	blx	r3

    _Function_base() : _M_manager(nullptr) { }

    ~_Function_base()
    {
      if (_M_manager)
 80a37b4:	68a3      	ldr	r3, [r4, #8]
 80a37b6:	b11b      	cbz	r3, 80a37c0 <_ZN8particle6detail21futureCallbackWrapperEPv+0x1c>
	_M_manager(_M_functor, _M_functor, __destroy_functor);
 80a37b8:	2203      	movs	r2, #3
 80a37ba:	4621      	mov	r1, r4
 80a37bc:	4620      	mov	r0, r4
 80a37be:	4798      	blx	r3
    auto callbackPtr = static_cast<const std::function<void()>*>(data);
    (*callbackPtr)();
    delete callbackPtr;
 80a37c0:	4620      	mov	r0, r4
}
 80a37c2:	e8bd 4010 	ldmia.w	sp!, {r4, lr}
#include "spark_wiring_async.h"

void particle::detail::futureCallbackWrapper(void* data) {
    auto callbackPtr = static_cast<const std::function<void()>*>(data);
    (*callbackPtr)();
    delete callbackPtr;
 80a37c6:	2110      	movs	r1, #16
 80a37c8:	f000 ba26 	b.w	80a3c18 <_ZdlPvj>

080a37cc <_ZN7TwoWireD1Ev>:
private:
  HAL_I2C_Interface _i2c;

public:
  TwoWire(HAL_I2C_Interface i2c, const HAL_I2C_Config& config);
  virtual ~TwoWire() {};
 80a37cc:	4770      	bx	lr

080a37ce <_ZN7TwoWire5writeEPKhj>:

// must be called in:
// slave tx event callback
// or after beginTransmission(address)
size_t TwoWire::write(const uint8_t *data, size_t quantity)
{
 80a37ce:	b5f8      	push	{r3, r4, r5, r6, r7, lr}
 80a37d0:	4606      	mov	r6, r0
 80a37d2:	4615      	mov	r5, r2
 80a37d4:	460c      	mov	r4, r1
 80a37d6:	188f      	adds	r7, r1, r2
  // in master/slave transmitter mode
  for(size_t i = 0; i < quantity; ++i)
 80a37d8:	42bc      	cmp	r4, r7
 80a37da:	d006      	beq.n	80a37ea <_ZN7TwoWire5writeEPKhj+0x1c>
  {
    write(data[i]);
 80a37dc:	6833      	ldr	r3, [r6, #0]
 80a37de:	f814 1b01 	ldrb.w	r1, [r4], #1
 80a37e2:	689b      	ldr	r3, [r3, #8]
 80a37e4:	4630      	mov	r0, r6
 80a37e6:	4798      	blx	r3
// slave tx event callback
// or after beginTransmission(address)
size_t TwoWire::write(const uint8_t *data, size_t quantity)
{
  // in master/slave transmitter mode
  for(size_t i = 0; i < quantity; ++i)
 80a37e8:	e7f6      	b.n	80a37d8 <_ZN7TwoWire5writeEPKhj+0xa>
  {
    write(data[i]);
  }

  return quantity;
}
 80a37ea:	4628      	mov	r0, r5
 80a37ec:	bdf8      	pop	{r3, r4, r5, r6, r7, pc}

080a37ee <_ZN7TwoWire5writeEh>:
// must be called in:
// slave tx event callback
// or after beginTransmission(address)
size_t TwoWire::write(uint8_t data)
{
  return HAL_I2C_Write_Data(_i2c, data, NULL);
 80a37ee:	2200      	movs	r2, #0
 80a37f0:	7c00      	ldrb	r0, [r0, #16]
 80a37f2:	f7fe be25 	b.w	80a2440 <HAL_I2C_Write_Data>

080a37f6 <_ZN7TwoWire9availableEv>:
// must be called in:
// slave rx event callback
// or after requestFrom(address, numBytes)
int TwoWire::available(void)
{
  return HAL_I2C_Available_Data(_i2c, NULL);
 80a37f6:	2100      	movs	r1, #0
 80a37f8:	7c00      	ldrb	r0, [r0, #16]
 80a37fa:	f7fe be29 	b.w	80a2450 <HAL_I2C_Available_Data>

080a37fe <_ZN7TwoWire4readEv>:
// must be called in:
// slave rx event callback
// or after requestFrom(address, numBytes)
int TwoWire::read(void)
{
  return HAL_I2C_Read_Data(_i2c, NULL);
 80a37fe:	2100      	movs	r1, #0
 80a3800:	7c00      	ldrb	r0, [r0, #16]
 80a3802:	f7fe be2d 	b.w	80a2460 <HAL_I2C_Read_Data>

080a3806 <_ZN7TwoWire4peekEv>:
// must be called in:
// slave rx event callback
// or after requestFrom(address, numBytes)
int TwoWire::peek(void)
{
  return HAL_I2C_Peek_Data(_i2c, NULL);
 80a3806:	2100      	movs	r1, #0
 80a3808:	7c00      	ldrb	r0, [r0, #16]
 80a380a:	f7fe be31 	b.w	80a2470 <HAL_I2C_Peek_Data>

080a380e <_ZN7TwoWire5flushEv>:
}

void TwoWire::flush(void)
{
  HAL_I2C_Flush_Data(_i2c, NULL);
 80a380e:	2100      	movs	r1, #0
 80a3810:	7c00      	ldrb	r0, [r0, #16]
 80a3812:	f7fe be35 	b.w	80a2480 <HAL_I2C_Flush_Data>

080a3816 <_ZN7TwoWireD0Ev>:
 80a3816:	b510      	push	{r4, lr}
 80a3818:	4604      	mov	r4, r0
 80a381a:	2114      	movs	r1, #20
 80a381c:	f000 f9fc 	bl	80a3c18 <_ZdlPvj>
 80a3820:	4620      	mov	r0, r4
 80a3822:	bd10      	pop	{r4, pc}

080a3824 <_ZN7TwoWireC1E17HAL_I2C_InterfaceRK14HAL_I2C_Config>:
#include "i2c_hal.h"
#include "spark_wiring_thread.h"

// Constructors ////////////////////////////////////////////////////////////////

TwoWire::TwoWire(HAL_I2C_Interface i2c, const HAL_I2C_Config& conf)
 80a3824:	b510      	push	{r4, lr}
 80a3826:	4604      	mov	r4, r0
 80a3828:	2300      	movs	r3, #0
 80a382a:	6063      	str	r3, [r4, #4]
 80a382c:	f44f 737a 	mov.w	r3, #1000	; 0x3e8
 80a3830:	60a3      	str	r3, [r4, #8]
 80a3832:	4b04      	ldr	r3, [pc, #16]	; (80a3844 <_ZN7TwoWireC1E17HAL_I2C_InterfaceRK14HAL_I2C_Config+0x20>)
{
  _i2c = i2c;
 80a3834:	7421      	strb	r1, [r4, #16]
#include "i2c_hal.h"
#include "spark_wiring_thread.h"

// Constructors ////////////////////////////////////////////////////////////////

TwoWire::TwoWire(HAL_I2C_Interface i2c, const HAL_I2C_Config& conf)
 80a3836:	4608      	mov	r0, r1
 80a3838:	6023      	str	r3, [r4, #0]
{
  _i2c = i2c;
  HAL_I2C_Init(_i2c, &conf);
 80a383a:	4611      	mov	r1, r2
 80a383c:	f7fe fe30 	bl	80a24a0 <HAL_I2C_Init>
}
 80a3840:	4620      	mov	r0, r4
 80a3842:	bd10      	pop	{r4, pc}
 80a3844:	080a596c 	.word	0x080a596c

080a3848 <_ZN7TwoWire8setSpeedEm>:
// Public Methods //////////////////////////////////////////////////////////////

//setSpeed() should be called before begin() else default to 100KHz
void TwoWire::setSpeed(uint32_t clockSpeed)
{
  HAL_I2C_Set_Speed(_i2c, clockSpeed, NULL);
 80a3848:	2200      	movs	r2, #0
 80a384a:	7c00      	ldrb	r0, [r0, #16]
 80a384c:	f7fe bdd8 	b.w	80a2400 <HAL_I2C_Set_Speed>

080a3850 <_ZN7TwoWire5beginEv>:
  HAL_I2C_Stretch_Clock(_i2c, stretch, NULL);
}

void TwoWire::begin(void)
{
	HAL_I2C_Begin(_i2c, I2C_MODE_MASTER, 0x00, NULL);
 80a3850:	2300      	movs	r3, #0
 80a3852:	461a      	mov	r2, r3
 80a3854:	4619      	mov	r1, r3
 80a3856:	7c00      	ldrb	r0, [r0, #16]
 80a3858:	f7fe bdda 	b.w	80a2410 <HAL_I2C_Begin>

080a385c <_ZN7TwoWire17beginTransmissionEh>:
  return HAL_I2C_Request_Data_Ex(_i2c, &conf, nullptr);
}

void TwoWire::beginTransmission(uint8_t address)
{
	HAL_I2C_Begin_Transmission(_i2c, address, NULL);
 80a385c:	2200      	movs	r2, #0
 80a385e:	7c00      	ldrb	r0, [r0, #16]
 80a3860:	f7fe bdde 	b.w	80a2420 <HAL_I2C_Begin_Transmission>

080a3864 <_ZN7TwoWire17beginTransmissionEi>:
}

void TwoWire::beginTransmission(int address)
{
  beginTransmission((uint8_t)address);
 80a3864:	b2c9      	uxtb	r1, r1
 80a3866:	f7ff bff9 	b.w	80a385c <_ZN7TwoWire17beginTransmissionEh>

080a386a <_ZN7TwoWire15endTransmissionEh>:
//	no call to endTransmission(true) is made. Some I2C
//	devices will behave oddly if they do not see a STOP.
//
uint8_t TwoWire::endTransmission(uint8_t sendStop)
{
	return HAL_I2C_End_Transmission(_i2c, sendStop, NULL);
 80a386a:	2200      	movs	r2, #0
 80a386c:	7c00      	ldrb	r0, [r0, #16]
 80a386e:	f7fe bddf 	b.w	80a2430 <HAL_I2C_End_Transmission>

080a3872 <_ZN7TwoWire15endTransmissionEv>:
//	This provides backwards compatibility with the original
//	definition, and expected behaviour, of endTransmission
//
uint8_t TwoWire::endTransmission(void)
{
  return endTransmission(true);
 80a3872:	2101      	movs	r1, #1
 80a3874:	f7ff bff9 	b.w	80a386a <_ZN7TwoWire15endTransmissionEh>

080a3878 <_ZN7TwoWire9isEnabledEv>:
  HAL_I2C_Set_Callback_On_Request(_i2c, function, NULL);
}

bool TwoWire::isEnabled()
{
  return HAL_I2C_Is_Enabled(_i2c, NULL);
 80a3878:	2100      	movs	r1, #0
 80a387a:	7c00      	ldrb	r0, [r0, #16]
 80a387c:	f7fe be08 	b.w	80a2490 <HAL_I2C_Is_Enabled>

080a3880 <_ZN5spark9WiFiClass5readyEv>:
    bool connecting(void) {
        return network_connecting(*this, 0, NULL);
    }

    bool ready(void) {
        return network_ready(*this, 0, NULL);
 80a3880:	2200      	movs	r2, #0
 80a3882:	4611      	mov	r1, r2
 80a3884:	6840      	ldr	r0, [r0, #4]
 80a3886:	f7fe bea9 	b.w	80a25dc <network_ready>

080a388a <_ZN5spark9WiFiClass7resolveEPKc>:
    WLanSelectAntenna_TypeDef getAntenna() {
        return wlan_get_antenna(nullptr);
    }

#if !HAL_USE_INET_HAL_POSIX
    IPAddress resolve(const char* name)
 80a388a:	b5f0      	push	{r4, r5, r6, r7, lr}
 80a388c:	4616      	mov	r6, r2
 80a388e:	b089      	sub	sp, #36	; 0x24
    {
        HAL_IPAddress ip = {};
 80a3890:	2211      	movs	r2, #17
    WLanSelectAntenna_TypeDef getAntenna() {
        return wlan_get_antenna(nullptr);
    }

#if !HAL_USE_INET_HAL_POSIX
    IPAddress resolve(const char* name)
 80a3892:	460f      	mov	r7, r1
 80a3894:	4604      	mov	r4, r0
    {
        HAL_IPAddress ip = {};
 80a3896:	2100      	movs	r1, #0
 80a3898:	a803      	add	r0, sp, #12
 80a389a:	f001 f942 	bl	80a4b22 <memset>
        return (inet_gethostbyname(name, strlen(name), &ip, *this, NULL) != 0) ?
 80a389e:	4630      	mov	r0, r6
 80a38a0:	f001 f98b 	bl	80a4bba <strlen>
 80a38a4:	2500      	movs	r5, #0
 80a38a6:	9500      	str	r5, [sp, #0]
 80a38a8:	b281      	uxth	r1, r0
 80a38aa:	687b      	ldr	r3, [r7, #4]
 80a38ac:	aa03      	add	r2, sp, #12
 80a38ae:	4630      	mov	r0, r6
 80a38b0:	f7fe fe30 	bl	80a2514 <inet_gethostbyname>
                IPAddress(uint32_t(0)) : IPAddress(ip);
 80a38b4:	b120      	cbz	r0, 80a38c0 <_ZN5spark9WiFiClass7resolveEPKc+0x36>
 80a38b6:	4629      	mov	r1, r5
 80a38b8:	4620      	mov	r0, r4
 80a38ba:	f7ff fd79 	bl	80a33b0 <_ZN9IPAddressC1Em>
 80a38be:	e003      	b.n	80a38c8 <_ZN5spark9WiFiClass7resolveEPKc+0x3e>
 80a38c0:	a903      	add	r1, sp, #12
 80a38c2:	4620      	mov	r0, r4
 80a38c4:	f7ff fd62 	bl	80a338c <_ZN9IPAddressC1ERK16_HAL_IPAddress_t>
    }
 80a38c8:	4620      	mov	r0, r4
 80a38ca:	b009      	add	sp, #36	; 0x24
 80a38cc:	bdf0      	pop	{r4, r5, r6, r7, pc}

080a38ce <_ZN5spark9WiFiClass9listeningEv>:
    uint16_t getListenTimeout(void) {
        return network_get_listen_timeout(*this, 0, NULL);
    }

    bool listening(void) {
        return network_listening(*this, 0, NULL);
 80a38ce:	2200      	movs	r2, #0
 80a38d0:	4611      	mov	r1, r2
 80a38d2:	6840      	ldr	r0, [r0, #4]
 80a38d4:	f7fe bea2 	b.w	80a261c <network_listening>

080a38d8 <_ZN5spark9WiFiClass16getListenTimeoutEv>:
        network_set_listen_timeout(*this, timeout, NULL);
    }
    inline void setListenTimeout(std::chrono::seconds s) { setListenTimeout(s.count()); }

    uint16_t getListenTimeout(void) {
        return network_get_listen_timeout(*this, 0, NULL);
 80a38d8:	2200      	movs	r2, #0
 80a38da:	4611      	mov	r1, r2
 80a38dc:	6840      	ldr	r0, [r0, #4]
 80a38de:	f7fe bead 	b.w	80a263c <network_get_listen_timeout>

080a38e2 <_ZN5spark9WiFiClass16setListenTimeoutEt>:
    void listen(bool begin=true) {
        network_listen(*this, begin ? 0 : 1, NULL);
    }

    void setListenTimeout(uint16_t timeout) {
        network_set_listen_timeout(*this, timeout, NULL);
 80a38e2:	2200      	movs	r2, #0
 80a38e4:	6840      	ldr	r0, [r0, #4]
 80a38e6:	f7fe bea1 	b.w	80a262c <network_set_listen_timeout>

080a38ea <_ZN5spark9WiFiClass6listenEb>:
    void off(void) {
        network_off(*this, 0, 0, NULL);
    }

    void listen(bool begin=true) {
        network_listen(*this, begin ? 0 : 1, NULL);
 80a38ea:	2200      	movs	r2, #0
 80a38ec:	f081 0101 	eor.w	r1, r1, #1
 80a38f0:	6840      	ldr	r0, [r0, #4]
 80a38f2:	f7fe be8b 	b.w	80a260c <network_listen>

080a38f6 <_ZN5spark9WiFiClass3offEv>:
    void on(void) {
        network_on(*this, 0, 0, NULL);
    }

    void off(void) {
        network_off(*this, 0, 0, NULL);
 80a38f6:	2300      	movs	r3, #0
 80a38f8:	461a      	mov	r2, r3
 80a38fa:	4619      	mov	r1, r3
 80a38fc:	6840      	ldr	r0, [r0, #4]
 80a38fe:	f7fe be7d 	b.w	80a25fc <network_off>

080a3902 <_ZN5spark9WiFiClass10connectingEv>:
    void disconnect(void) {
        network_disconnect(*this, NETWORK_DISCONNECT_REASON_USER, NULL);
    }

    bool connecting(void) {
        return network_connecting(*this, 0, NULL);
 80a3902:	2200      	movs	r2, #0
 80a3904:	4611      	mov	r1, r2
 80a3906:	6840      	ldr	r0, [r0, #4]
 80a3908:	f7fe be58 	b.w	80a25bc <network_connecting>

080a390c <_ZN5spark9WiFiClass10disconnectEv>:
    void connect(unsigned flags=0) {
        network_connect(*this, flags, 0, NULL);
    }

    void disconnect(void) {
        network_disconnect(*this, NETWORK_DISCONNECT_REASON_USER, NULL);
 80a390c:	2200      	movs	r2, #0
 80a390e:	2102      	movs	r1, #2
 80a3910:	6840      	ldr	r0, [r0, #4]
 80a3912:	f7fe be5b 	b.w	80a25cc <network_disconnect>

080a3916 <_ZN5spark9WiFiClass7connectEj>:
    uint32_t ping(IPAddress remoteIP, uint8_t nTries) {
        return inet_ping(&remoteIP.raw(), *this, nTries, NULL);
    }

    void connect(unsigned flags=0) {
        network_connect(*this, flags, 0, NULL);
 80a3916:	2300      	movs	r3, #0
 80a3918:	461a      	mov	r2, r3
 80a391a:	6840      	ldr	r0, [r0, #4]
 80a391c:	f7fe be46 	b.w	80a25ac <network_connect>

080a3920 <_GLOBAL__sub_I__ZN10WiFiSignalC2ERK21wlan_connected_info_t>:
    static NetworkClass& from(network_interface_t nif);

    virtual IPAddress resolve(const char* name);

    explicit NetworkClass(network_interface_t iface)
            : iface_(iface) {
 80a3920:	4b02      	ldr	r3, [pc, #8]	; (80a392c <_GLOBAL__sub_I__ZN10WiFiSignalC2ERK21wlan_connected_info_t+0xc>)
 80a3922:	2204      	movs	r2, #4
 80a3924:	605a      	str	r2, [r3, #4]
        wlan_set_ipaddress_source(source, true, NULL);
    }

public:
    WiFiClass() :
            NetworkClass(NETWORK_INTERFACE_WIFI_STA) {
 80a3926:	4a02      	ldr	r2, [pc, #8]	; (80a3930 <_GLOBAL__sub_I__ZN10WiFiSignalC2ERK21wlan_connected_info_t+0x10>)
 80a3928:	601a      	str	r2, [r3, #0]
 80a392a:	4770      	bx	lr
 80a392c:	20000654 	.word	0x20000654
 80a3930:	080a5994 	.word	0x080a5994

080a3934 <_ZN5spark12NetworkClass7connectEj>:
        return Network;
    }
}

void NetworkClass::connect(unsigned flags) {
    network_connect(*this, flags, 0, nullptr);
 80a3934:	2300      	movs	r3, #0
 80a3936:	461a      	mov	r2, r3
 80a3938:	6840      	ldr	r0, [r0, #4]
 80a393a:	f7fe be37 	b.w	80a25ac <network_connect>

080a393e <_ZN5spark12NetworkClass10disconnectEv>:
}

void NetworkClass::disconnect() {
    network_disconnect(*this, NETWORK_DISCONNECT_REASON_USER, nullptr);
 80a393e:	2200      	movs	r2, #0
 80a3940:	2102      	movs	r1, #2
 80a3942:	6840      	ldr	r0, [r0, #4]
 80a3944:	f7fe be42 	b.w	80a25cc <network_disconnect>

080a3948 <_ZN5spark12NetworkClass10connectingEv>:
}

bool NetworkClass::connecting() {
    return network_connecting(*this, 0, nullptr);
 80a3948:	2200      	movs	r2, #0
 80a394a:	4611      	mov	r1, r2
 80a394c:	6840      	ldr	r0, [r0, #4]
 80a394e:	f7fe be35 	b.w	80a25bc <network_connecting>

080a3952 <_ZN5spark12NetworkClass5readyEv>:
}

bool NetworkClass::ready() {
    return network_ready(*this, 0, nullptr);
 80a3952:	2200      	movs	r2, #0
 80a3954:	4611      	mov	r1, r2
 80a3956:	6840      	ldr	r0, [r0, #4]
 80a3958:	f7fe be40 	b.w	80a25dc <network_ready>

080a395c <_ZN5spark12NetworkClass2onEv>:
}

void NetworkClass::on() {
    network_on(*this, 0, 0, nullptr);
 80a395c:	2300      	movs	r3, #0
 80a395e:	461a      	mov	r2, r3
 80a3960:	4619      	mov	r1, r3
 80a3962:	6840      	ldr	r0, [r0, #4]
 80a3964:	f7fe be42 	b.w	80a25ec <network_on>

080a3968 <_ZN5spark12NetworkClass3offEv>:
}

void NetworkClass::off() {
    network_off(*this, 0, 0, nullptr);
 80a3968:	2300      	movs	r3, #0
 80a396a:	461a      	mov	r2, r3
 80a396c:	4619      	mov	r1, r3
 80a396e:	6840      	ldr	r0, [r0, #4]
 80a3970:	f7fe be44 	b.w	80a25fc <network_off>

080a3974 <_ZN5spark12NetworkClass6listenEb>:
}

void NetworkClass::listen(bool begin) {
    network_listen(*this, begin ? 0 : 1, nullptr);
 80a3974:	2200      	movs	r2, #0
 80a3976:	f081 0101 	eor.w	r1, r1, #1
 80a397a:	6840      	ldr	r0, [r0, #4]
 80a397c:	f7fe be46 	b.w	80a260c <network_listen>

080a3980 <_ZN5spark12NetworkClass16setListenTimeoutEt>:
}

void NetworkClass::setListenTimeout(uint16_t timeout) {
    network_set_listen_timeout(*this, timeout, nullptr);
 80a3980:	2200      	movs	r2, #0
 80a3982:	6840      	ldr	r0, [r0, #4]
 80a3984:	f7fe be52 	b.w	80a262c <network_set_listen_timeout>

080a3988 <_ZN5spark12NetworkClass16getListenTimeoutEv>:
}

uint16_t NetworkClass::getListenTimeout() {
    return network_get_listen_timeout(*this, 0, nullptr);
 80a3988:	2200      	movs	r2, #0
 80a398a:	4611      	mov	r1, r2
 80a398c:	6840      	ldr	r0, [r0, #4]
 80a398e:	f7fe be55 	b.w	80a263c <network_get_listen_timeout>

080a3992 <_ZN5spark12NetworkClass9listeningEv>:
}

bool NetworkClass::listening() {
    return network_listening(*this, 0, nullptr);
 80a3992:	2200      	movs	r2, #0
 80a3994:	4611      	mov	r1, r2
 80a3996:	6840      	ldr	r0, [r0, #4]
 80a3998:	f7fe be40 	b.w	80a261c <network_listening>

080a399c <_ZN5spark12NetworkClass7resolveEPKc>:
}

IPAddress NetworkClass::resolve(const char* name) {
 80a399c:	b570      	push	{r4, r5, r6, lr}
 80a399e:	4616      	mov	r6, r2
 80a39a0:	b08e      	sub	sp, #56	; 0x38
 80a39a2:	4604      	mov	r4, r0
    IPAddress addr;
 80a39a4:	a808      	add	r0, sp, #32
 80a39a6:	f7ff fce3 	bl	80a3370 <_ZN9IPAddressC1Ev>
    }

#if !HAL_USE_INET_HAL_POSIX
    IPAddress resolve(const char* name)
    {
        HAL_IPAddress ip = {};
 80a39aa:	2211      	movs	r2, #17
 80a39ac:	2100      	movs	r1, #0
 80a39ae:	a803      	add	r0, sp, #12
 80a39b0:	f001 f8b7 	bl	80a4b22 <memset>
        return (inet_gethostbyname(name, strlen(name), &ip, *this, NULL) != 0) ?
 80a39b4:	4630      	mov	r0, r6
 80a39b6:	f001 f900 	bl	80a4bba <strlen>
 80a39ba:	2500      	movs	r5, #0
 80a39bc:	4b0a      	ldr	r3, [pc, #40]	; (80a39e8 <_ZN5spark12NetworkClass7resolveEPKc+0x4c>)
 80a39be:	9500      	str	r5, [sp, #0]
 80a39c0:	b281      	uxth	r1, r0
 80a39c2:	685b      	ldr	r3, [r3, #4]
 80a39c4:	aa03      	add	r2, sp, #12
 80a39c6:	4630      	mov	r0, r6
 80a39c8:	f7fe fda4 	bl	80a2514 <inet_gethostbyname>
                IPAddress(uint32_t(0)) : IPAddress(ip);
 80a39cc:	b120      	cbz	r0, 80a39d8 <_ZN5spark12NetworkClass7resolveEPKc+0x3c>
 80a39ce:	4629      	mov	r1, r5
 80a39d0:	4620      	mov	r0, r4
 80a39d2:	f7ff fced 	bl	80a33b0 <_ZN9IPAddressC1Em>
 80a39d6:	e003      	b.n	80a39e0 <_ZN5spark12NetworkClass7resolveEPKc+0x44>
 80a39d8:	a903      	add	r1, sp, #12
 80a39da:	4620      	mov	r0, r4
 80a39dc:	f7ff fcd6 	bl	80a338c <_ZN9IPAddressC1ERK16_HAL_IPAddress_t>
    return Cellular.resolve(name);
#endif // Wiring_Cellular

#endif // HAL_USE_INET_HAL_POSIX
    return addr;
}
 80a39e0:	4620      	mov	r0, r4
 80a39e2:	b00e      	add	sp, #56	; 0x38
 80a39e4:	bd70      	pop	{r4, r5, r6, pc}
 80a39e6:	bf00      	nop
 80a39e8:	20000654 	.word	0x20000654

080a39ec <_GLOBAL__sub_I__ZN5spark7NetworkE>:
 80a39ec:	4b02      	ldr	r3, [pc, #8]	; (80a39f8 <_GLOBAL__sub_I__ZN5spark7NetworkE+0xc>)
 80a39ee:	4a03      	ldr	r2, [pc, #12]	; (80a39fc <_GLOBAL__sub_I__ZN5spark7NetworkE+0x10>)
 80a39f0:	601a      	str	r2, [r3, #0]
 80a39f2:	2200      	movs	r2, #0
 80a39f4:	605a      	str	r2, [r3, #4]
 80a39f6:	4770      	bx	lr
 80a39f8:	2000065c 	.word	0x2000065c
 80a39fc:	080a59c8 	.word	0x080a59c8

080a3a00 <pinAvailable>:

/*
 * @brief Perform safety check on desired pin to see if it's already
 * being used.  Return 0 if used, otherwise return 1 if available.
 */
bool pinAvailable(uint16_t pin) {
 80a3a00:	b510      	push	{r4, lr}
 80a3a02:	4604      	mov	r4, r0

  // SPI safety check
#ifndef SPARK_WIRING_NO_SPI
  if(SPI.isEnabled() == true && (pin == SCK || pin == MOSI || pin == MISO))
 80a3a04:	f000 f882 	bl	80a3b0c <_ZN8particle7globals11instanceSpiEv>
 80a3a08:	f7fe ff4d 	bl	80a28a6 <_ZN8SPIClass9isEnabledEv>
 80a3a0c:	b128      	cbz	r0, 80a3a1a <pinAvailable+0x1a>
 80a3a0e:	f1a4 030d 	sub.w	r3, r4, #13
 80a3a12:	2b02      	cmp	r3, #2
 80a3a14:	d801      	bhi.n	80a3a1a <pinAvailable+0x1a>
  {
    return 0; // 'pin' is used
 80a3a16:	2000      	movs	r0, #0
 80a3a18:	bd10      	pop	{r4, pc}
  }
#endif
  // I2C safety check
#ifndef SPARK_WIRING_NO_I2C
  if(Wire.isEnabled() == true && (pin == SCL || pin == SDA))
 80a3a1a:	f000 f8c9 	bl	80a3bb0 <_Z19__fetch_global_Wirev>
 80a3a1e:	f7ff ff2b 	bl	80a3878 <_ZN7TwoWire9isEnabledEv>
 80a3a22:	b108      	cbz	r0, 80a3a28 <pinAvailable+0x28>
 80a3a24:	2c01      	cmp	r4, #1
 80a3a26:	d9f6      	bls.n	80a3a16 <pinAvailable+0x16>
    return 0; // 'pin' is used
  }
#endif
#ifndef SPARK_WIRING_NO_USART_SERIAL
  // Serial1 safety check
  if(Serial1.isEnabled() == true && (pin == RX || pin == TX))
 80a3a28:	f7ff fe96 	bl	80a3758 <_Z22__fetch_global_Serial1v>
 80a3a2c:	f7ff fe91 	bl	80a3752 <_ZN11USARTSerial9isEnabledEv>
 80a3a30:	b118      	cbz	r0, 80a3a3a <pinAvailable+0x3a>
 80a3a32:	f1a4 0312 	sub.w	r3, r4, #18
 80a3a36:	2b01      	cmp	r3, #1
 80a3a38:	d9ed      	bls.n	80a3a16 <pinAvailable+0x16>
  {
    return 0; // 'pin' is used
  }
#endif

  if (pin >= TOTAL_PINS)
 80a3a3a:	2c17      	cmp	r4, #23
 80a3a3c:	bf8c      	ite	hi
 80a3a3e:	2000      	movhi	r0, #0
 80a3a40:	2001      	movls	r0, #1
    return 0;
  else
    return 1; // 'pin' is available
}
 80a3a42:	bd10      	pop	{r4, pc}

080a3a44 <pinMode>:
 * or INPUT_PULLDOWN
 */
void pinMode(uint16_t pin, PinMode setMode)
{

  if(pin >= TOTAL_PINS || setMode == PIN_MODE_NONE )
 80a3a44:	2817      	cmp	r0, #23
/*
 * @brief Set the mode of the pin to OUTPUT, INPUT, INPUT_PULLUP,
 * or INPUT_PULLDOWN
 */
void pinMode(uint16_t pin, PinMode setMode)
{
 80a3a46:	b538      	push	{r3, r4, r5, lr}
 80a3a48:	4604      	mov	r4, r0
 80a3a4a:	460d      	mov	r5, r1

  if(pin >= TOTAL_PINS || setMode == PIN_MODE_NONE )
 80a3a4c:	d80a      	bhi.n	80a3a64 <pinMode+0x20>
 80a3a4e:	29ff      	cmp	r1, #255	; 0xff
 80a3a50:	d008      	beq.n	80a3a64 <pinMode+0x20>
  {
    return;
  }

  // Safety check
  if( !pinAvailable(pin) ) {
 80a3a52:	f7ff ffd5 	bl	80a3a00 <pinAvailable>
 80a3a56:	b128      	cbz	r0, 80a3a64 <pinMode+0x20>
    return;
  }

  HAL_Pin_Mode(pin, setMode);
 80a3a58:	4629      	mov	r1, r5
 80a3a5a:	4620      	mov	r0, r4
}
 80a3a5c:	e8bd 4038 	ldmia.w	sp!, {r3, r4, r5, lr}
  // Safety check
  if( !pinAvailable(pin) ) {
    return;
  }

  HAL_Pin_Mode(pin, setMode);
 80a3a60:	f7fe bbbe 	b.w	80a21e0 <HAL_Pin_Mode>
 80a3a64:	bd38      	pop	{r3, r4, r5, pc}

080a3a66 <digitalWrite>:

/*
 * @brief Sets a GPIO pin to HIGH or LOW.
 */
void digitalWrite(pin_t pin, uint8_t value)
{
 80a3a66:	b538      	push	{r3, r4, r5, lr}
 80a3a68:	4604      	mov	r4, r0
 80a3a6a:	460d      	mov	r5, r1
    PinMode mode = HAL_Get_Pin_Mode(pin);
 80a3a6c:	f7fe fbc0 	bl	80a21f0 <HAL_Get_Pin_Mode>
    if (mode==PIN_MODE_NONE || is_input_mode(mode))
 80a3a70:	28ff      	cmp	r0, #255	; 0xff
 80a3a72:	d010      	beq.n	80a3a96 <digitalWrite+0x30>
}

inline bool is_input_mode(PinMode mode) {
    return  mode == INPUT ||
            mode == INPUT_PULLUP ||
            mode == INPUT_PULLDOWN ||
 80a3a74:	2806      	cmp	r0, #6
 80a3a76:	d804      	bhi.n	80a3a82 <digitalWrite+0x1c>
 80a3a78:	234d      	movs	r3, #77	; 0x4d
 80a3a7a:	fa23 f000 	lsr.w	r0, r3, r0
 80a3a7e:	07c3      	lsls	r3, r0, #31
 80a3a80:	d409      	bmi.n	80a3a96 <digitalWrite+0x30>
{
    PinMode mode = HAL_Get_Pin_Mode(pin);
    if (mode==PIN_MODE_NONE || is_input_mode(mode))
        return;
  // Safety check
  if( !pinAvailable(pin) ) {
 80a3a82:	4620      	mov	r0, r4
 80a3a84:	f7ff ffbc 	bl	80a3a00 <pinAvailable>
 80a3a88:	b128      	cbz	r0, 80a3a96 <digitalWrite+0x30>
    return;
  }

  HAL_GPIO_Write(pin, value);
 80a3a8a:	4629      	mov	r1, r5
 80a3a8c:	4620      	mov	r0, r4
}
 80a3a8e:	e8bd 4038 	ldmia.w	sp!, {r3, r4, r5, lr}
  // Safety check
  if( !pinAvailable(pin) ) {
    return;
  }

  HAL_GPIO_Write(pin, value);
 80a3a92:	f7fe bbb5 	b.w	80a2200 <HAL_GPIO_Write>
 80a3a96:	bd38      	pop	{r3, r4, r5, pc}

080a3a98 <digitalRead>:

/*
 * @brief Reads the value of a GPIO pin. Should return either 1 (HIGH) or 0 (LOW).
 */
int32_t digitalRead(pin_t pin)
{
 80a3a98:	b510      	push	{r4, lr}
 80a3a9a:	4604      	mov	r4, r0
    PinMode mode = HAL_Get_Pin_Mode(pin);
 80a3a9c:	f7fe fba8 	bl	80a21f0 <HAL_Get_Pin_Mode>
    if (is_af_output_mode(mode))
 80a3aa0:	3804      	subs	r0, #4
 80a3aa2:	b2c0      	uxtb	r0, r0
 80a3aa4:	2801      	cmp	r0, #1
 80a3aa6:	d908      	bls.n	80a3aba <digitalRead+0x22>
        return LOW;

    // Safety check
    if( !pinAvailable(pin) ) {
 80a3aa8:	4620      	mov	r0, r4
 80a3aaa:	f7ff ffa9 	bl	80a3a00 <pinAvailable>
 80a3aae:	b120      	cbz	r0, 80a3aba <digitalRead+0x22>
      return LOW;
    }

    return HAL_GPIO_Read(pin);
 80a3ab0:	4620      	mov	r0, r4
}
 80a3ab2:	e8bd 4010 	ldmia.w	sp!, {r4, lr}
    // Safety check
    if( !pinAvailable(pin) ) {
      return LOW;
    }

    return HAL_GPIO_Read(pin);
 80a3ab6:	f7fe bbab 	b.w	80a2210 <HAL_GPIO_Read>
}
 80a3aba:	2000      	movs	r0, #0
 80a3abc:	bd10      	pop	{r4, pc}

080a3abe <_Z11analogWritetm>:
/*
 * @brief Should take an integer 0-255 and create a 500Hz PWM signal with a duty cycle from 0-100%.
 * On Photon, DAC1 and DAC2 act as true analog outputs(values: 0 to 4095) using onchip DAC peripheral
 */
void analogWrite(pin_t pin, uint32_t value)
{
 80a3abe:	b538      	push	{r3, r4, r5, lr}
 80a3ac0:	4604      	mov	r4, r0
 80a3ac2:	460d      	mov	r5, r1
    // Safety check
    if (!pinAvailable(pin))
 80a3ac4:	f7ff ff9c 	bl	80a3a00 <pinAvailable>
 80a3ac8:	b1f0      	cbz	r0, 80a3b08 <_Z11analogWritetm+0x4a>
    {
        return;
    }

    if (HAL_Validate_Pin_Function(pin, PF_DAC) == PF_DAC)
 80a3aca:	2104      	movs	r1, #4
 80a3acc:	4620      	mov	r0, r4
 80a3ace:	f7fe fb7f 	bl	80a21d0 <HAL_Validate_Pin_Function>
 80a3ad2:	2804      	cmp	r0, #4
 80a3ad4:	d105      	bne.n	80a3ae2 <_Z11analogWritetm+0x24>
    {
        HAL_DAC_Write(pin, value);
 80a3ad6:	b2a9      	uxth	r1, r5
 80a3ad8:	4620      	mov	r0, r4
            return;
        }

        HAL_PWM_Write_Ext(pin, value);
    }
}
 80a3ada:	e8bd 4038 	ldmia.w	sp!, {r3, r4, r5, lr}
        return;
    }

    if (HAL_Validate_Pin_Function(pin, PF_DAC) == PF_DAC)
    {
        HAL_DAC_Write(pin, value);
 80a3ade:	f7fe bbaf 	b.w	80a2240 <HAL_DAC_Write>
    }
    else if (HAL_Validate_Pin_Function(pin, PF_TIMER) == PF_TIMER)
 80a3ae2:	2102      	movs	r1, #2
 80a3ae4:	4620      	mov	r0, r4
 80a3ae6:	f7fe fb73 	bl	80a21d0 <HAL_Validate_Pin_Function>
 80a3aea:	2802      	cmp	r0, #2
 80a3aec:	d10c      	bne.n	80a3b08 <_Z11analogWritetm+0x4a>
    {
        PinMode mode = HAL_Get_Pin_Mode(pin);
 80a3aee:	4620      	mov	r0, r4
 80a3af0:	f7fe fb7e 	bl	80a21f0 <HAL_Get_Pin_Mode>

        if (mode != OUTPUT && mode != AF_OUTPUT_PUSHPULL)
 80a3af4:	2801      	cmp	r0, #1
 80a3af6:	d001      	beq.n	80a3afc <_Z11analogWritetm+0x3e>
 80a3af8:	2804      	cmp	r0, #4
 80a3afa:	d105      	bne.n	80a3b08 <_Z11analogWritetm+0x4a>
        {
            return;
        }

        HAL_PWM_Write_Ext(pin, value);
 80a3afc:	4629      	mov	r1, r5
 80a3afe:	4620      	mov	r0, r4
    }
}
 80a3b00:	e8bd 4038 	ldmia.w	sp!, {r3, r4, r5, lr}
        if (mode != OUTPUT && mode != AF_OUTPUT_PUSHPULL)
        {
            return;
        }

        HAL_PWM_Write_Ext(pin, value);
 80a3b04:	f7fe bba4 	b.w	80a2250 <HAL_PWM_Write_Ext>
 80a3b08:	bd38      	pop	{r3, r4, r5, pc}
	...

080a3b0c <_ZN8particle7globals11instanceSpiEv>:
#ifndef SPARK_WIRING_NO_SPI

namespace particle {
namespace globals {

SPIClass& instanceSpi() {
 80a3b0c:	b538      	push	{r3, r4, r5, lr}
    static SPIClass instance(HAL_SPI_INTERFACE1);
 80a3b0e:	4d0b      	ldr	r5, [pc, #44]	; (80a3b3c <_ZN8particle7globals11instanceSpiEv+0x30>)
 80a3b10:	6829      	ldr	r1, [r5, #0]
 80a3b12:	f011 0401 	ands.w	r4, r1, #1
 80a3b16:	d10f      	bne.n	80a3b38 <_ZN8particle7globals11instanceSpiEv+0x2c>
 80a3b18:	4628      	mov	r0, r5
 80a3b1a:	f7fc facf 	bl	80a00bc <__cxa_guard_acquire>
 80a3b1e:	b158      	cbz	r0, 80a3b38 <_ZN8particle7globals11instanceSpiEv+0x2c>
 80a3b20:	4621      	mov	r1, r4
 80a3b22:	4807      	ldr	r0, [pc, #28]	; (80a3b40 <_ZN8particle7globals11instanceSpiEv+0x34>)
 80a3b24:	f7fe fdfe 	bl	80a2724 <_ZN8SPIClassC1E17HAL_SPI_Interface>
 80a3b28:	4628      	mov	r0, r5
 80a3b2a:	f7fc facc 	bl	80a00c6 <__cxa_guard_release>
 80a3b2e:	4a05      	ldr	r2, [pc, #20]	; (80a3b44 <_ZN8particle7globals11instanceSpiEv+0x38>)
 80a3b30:	4905      	ldr	r1, [pc, #20]	; (80a3b48 <_ZN8particle7globals11instanceSpiEv+0x3c>)
 80a3b32:	4803      	ldr	r0, [pc, #12]	; (80a3b40 <_ZN8particle7globals11instanceSpiEv+0x34>)
 80a3b34:	f000 f862 	bl	80a3bfc <__aeabi_atexit>
    return instance;
}
 80a3b38:	4801      	ldr	r0, [pc, #4]	; (80a3b40 <_ZN8particle7globals11instanceSpiEv+0x34>)
 80a3b3a:	bd38      	pop	{r3, r4, r5, pc}
 80a3b3c:	20000674 	.word	0x20000674
 80a3b40:	20000664 	.word	0x20000664
 80a3b44:	20000080 	.word	0x20000080
 80a3b48:	080a26ed 	.word	0x080a26ed

080a3b4c <_GLOBAL__sub_I_INADDR_NONE>:
#include "spark_wiring_ipaddress.h"

#if !HAL_USE_SOCKET_HAL_POSIX
const IPAddress INADDR_NONE(0, 0, 0, 0);
 80a3b4c:	b513      	push	{r0, r1, r4, lr}
 80a3b4e:	4c08      	ldr	r4, [pc, #32]	; (80a3b70 <_GLOBAL__sub_I_INADDR_NONE+0x24>)
 80a3b50:	2300      	movs	r3, #0
 80a3b52:	461a      	mov	r2, r3
 80a3b54:	4619      	mov	r1, r3
 80a3b56:	9300      	str	r3, [sp, #0]
 80a3b58:	4620      	mov	r0, r4
 80a3b5a:	f7ff fc3f 	bl	80a33dc <_ZN9IPAddressC1Ehhhh>
 80a3b5e:	4620      	mov	r0, r4
 80a3b60:	4a04      	ldr	r2, [pc, #16]	; (80a3b74 <_GLOBAL__sub_I_INADDR_NONE+0x28>)
 80a3b62:	4905      	ldr	r1, [pc, #20]	; (80a3b78 <_GLOBAL__sub_I_INADDR_NONE+0x2c>)
 80a3b64:	b002      	add	sp, #8
 80a3b66:	e8bd 4010 	ldmia.w	sp!, {r4, lr}
 80a3b6a:	f000 b847 	b.w	80a3bfc <__aeabi_atexit>
 80a3b6e:	bf00      	nop
 80a3b70:	2000067c 	.word	0x2000067c
 80a3b74:	20000080 	.word	0x20000080
 80a3b78:	080a332d 	.word	0x080a332d

080a3b7c <_Z17acquireWireBufferv>:
}

} // anonymous

HAL_I2C_Config __attribute__((weak)) acquireWireBuffer()
{
 80a3b7c:	b570      	push	{r4, r5, r6, lr}
 80a3b7e:	4604      	mov	r4, r0
		.version = HAL_I2C_CONFIG_VERSION_1,
		.rx_buffer = new (std::nothrow) uint8_t[I2C_BUFFER_LENGTH],
		.rx_buffer_size = I2C_BUFFER_LENGTH,
		.tx_buffer = new (std::nothrow) uint8_t[I2C_BUFFER_LENGTH],
		.tx_buffer_size = I2C_BUFFER_LENGTH
	};
 80a3b80:	2514      	movs	r5, #20
 80a3b82:	462a      	mov	r2, r5

HAL_I2C_Config defaultWireConfig() {
	HAL_I2C_Config config = {
		.size = sizeof(HAL_I2C_Config),
		.version = HAL_I2C_CONFIG_VERSION_1,
		.rx_buffer = new (std::nothrow) uint8_t[I2C_BUFFER_LENGTH],
 80a3b84:	4e09      	ldr	r6, [pc, #36]	; (80a3bac <_Z17acquireWireBufferv+0x30>)
		.rx_buffer_size = I2C_BUFFER_LENGTH,
		.tx_buffer = new (std::nothrow) uint8_t[I2C_BUFFER_LENGTH],
		.tx_buffer_size = I2C_BUFFER_LENGTH
	};
 80a3b86:	2100      	movs	r1, #0
 80a3b88:	f000 ffcb 	bl	80a4b22 <memset>
 80a3b8c:	8025      	strh	r5, [r4, #0]
 80a3b8e:	2520      	movs	r5, #32

HAL_I2C_Config defaultWireConfig() {
	HAL_I2C_Config config = {
		.size = sizeof(HAL_I2C_Config),
		.version = HAL_I2C_CONFIG_VERSION_1,
		.rx_buffer = new (std::nothrow) uint8_t[I2C_BUFFER_LENGTH],
 80a3b90:	4631      	mov	r1, r6
		.rx_buffer_size = I2C_BUFFER_LENGTH,
		.tx_buffer = new (std::nothrow) uint8_t[I2C_BUFFER_LENGTH],
		.tx_buffer_size = I2C_BUFFER_LENGTH
	};
 80a3b92:	60a5      	str	r5, [r4, #8]
 80a3b94:	6125      	str	r5, [r4, #16]

HAL_I2C_Config defaultWireConfig() {
	HAL_I2C_Config config = {
		.size = sizeof(HAL_I2C_Config),
		.version = HAL_I2C_CONFIG_VERSION_1,
		.rx_buffer = new (std::nothrow) uint8_t[I2C_BUFFER_LENGTH],
 80a3b96:	4628      	mov	r0, r5
 80a3b98:	f000 f840 	bl	80a3c1c <_ZnajRKSt9nothrow_t>
		.rx_buffer_size = I2C_BUFFER_LENGTH,
		.tx_buffer = new (std::nothrow) uint8_t[I2C_BUFFER_LENGTH],
 80a3b9c:	4631      	mov	r1, r6
		.tx_buffer_size = I2C_BUFFER_LENGTH
	};
 80a3b9e:	6060      	str	r0, [r4, #4]
	HAL_I2C_Config config = {
		.size = sizeof(HAL_I2C_Config),
		.version = HAL_I2C_CONFIG_VERSION_1,
		.rx_buffer = new (std::nothrow) uint8_t[I2C_BUFFER_LENGTH],
		.rx_buffer_size = I2C_BUFFER_LENGTH,
		.tx_buffer = new (std::nothrow) uint8_t[I2C_BUFFER_LENGTH],
 80a3ba0:	4628      	mov	r0, r5
 80a3ba2:	f000 f83b 	bl	80a3c1c <_ZnajRKSt9nothrow_t>
		.tx_buffer_size = I2C_BUFFER_LENGTH
	};
 80a3ba6:	60e0      	str	r0, [r4, #12]
} // anonymous

HAL_I2C_Config __attribute__((weak)) acquireWireBuffer()
{
	return defaultWireConfig();
}
 80a3ba8:	4620      	mov	r0, r4
 80a3baa:	bd70      	pop	{r4, r5, r6, pc}
 80a3bac:	080a59f4 	.word	0x080a59f4

080a3bb0 <_Z19__fetch_global_Wirev>:
	return defaultWireConfig();
}
#endif

TwoWire& __fetch_global_Wire()
{
 80a3bb0:	b530      	push	{r4, r5, lr}
	static TwoWire wire(HAL_I2C_INTERFACE1, acquireWireBuffer());
 80a3bb2:	4d0e      	ldr	r5, [pc, #56]	; (80a3bec <_Z19__fetch_global_Wirev+0x3c>)
	return defaultWireConfig();
}
#endif

TwoWire& __fetch_global_Wire()
{
 80a3bb4:	b087      	sub	sp, #28
	static TwoWire wire(HAL_I2C_INTERFACE1, acquireWireBuffer());
 80a3bb6:	6829      	ldr	r1, [r5, #0]
 80a3bb8:	f011 0401 	ands.w	r4, r1, #1
 80a3bbc:	d113      	bne.n	80a3be6 <_Z19__fetch_global_Wirev+0x36>
 80a3bbe:	4628      	mov	r0, r5
 80a3bc0:	f7fc fa7c 	bl	80a00bc <__cxa_guard_acquire>
 80a3bc4:	b178      	cbz	r0, 80a3be6 <_Z19__fetch_global_Wirev+0x36>
 80a3bc6:	a801      	add	r0, sp, #4
 80a3bc8:	f7ff ffd8 	bl	80a3b7c <_Z17acquireWireBufferv>
 80a3bcc:	aa01      	add	r2, sp, #4
 80a3bce:	4621      	mov	r1, r4
 80a3bd0:	4807      	ldr	r0, [pc, #28]	; (80a3bf0 <_Z19__fetch_global_Wirev+0x40>)
 80a3bd2:	f7ff fe27 	bl	80a3824 <_ZN7TwoWireC1E17HAL_I2C_InterfaceRK14HAL_I2C_Config>
 80a3bd6:	4628      	mov	r0, r5
 80a3bd8:	f7fc fa75 	bl	80a00c6 <__cxa_guard_release>
 80a3bdc:	4a05      	ldr	r2, [pc, #20]	; (80a3bf4 <_Z19__fetch_global_Wirev+0x44>)
 80a3bde:	4906      	ldr	r1, [pc, #24]	; (80a3bf8 <_Z19__fetch_global_Wirev+0x48>)
 80a3be0:	4803      	ldr	r0, [pc, #12]	; (80a3bf0 <_Z19__fetch_global_Wirev+0x40>)
 80a3be2:	f000 f80b 	bl	80a3bfc <__aeabi_atexit>
	return wire;
}
 80a3be6:	4802      	ldr	r0, [pc, #8]	; (80a3bf0 <_Z19__fetch_global_Wirev+0x40>)
 80a3be8:	b007      	add	sp, #28
 80a3bea:	bd30      	pop	{r4, r5, pc}
 80a3bec:	20000694 	.word	0x20000694
 80a3bf0:	20000698 	.word	0x20000698
 80a3bf4:	20000080 	.word	0x20000080
 80a3bf8:	080a37cd 	.word	0x080a37cd

080a3bfc <__aeabi_atexit>:
 80a3bfc:	460b      	mov	r3, r1
 80a3bfe:	4601      	mov	r1, r0
 80a3c00:	4618      	mov	r0, r3
 80a3c02:	f000 bf75 	b.w	80a4af0 <__cxa_atexit>
	...

080a3c08 <_ZSt15get_new_handlerv>:
 80a3c08:	4b02      	ldr	r3, [pc, #8]	; (80a3c14 <_ZSt15get_new_handlerv+0xc>)
 80a3c0a:	6818      	ldr	r0, [r3, #0]
 80a3c0c:	f3bf 8f5f 	dmb	sy
 80a3c10:	4770      	bx	lr
 80a3c12:	bf00      	nop
 80a3c14:	200006ac 	.word	0x200006ac

080a3c18 <_ZdlPvj>:
 80a3c18:	f7fc ba43 	b.w	80a00a2 <_ZdlPv>

080a3c1c <_ZnajRKSt9nothrow_t>:
 80a3c1c:	f000 b800 	b.w	80a3c20 <_ZnwjRKSt9nothrow_t>

080a3c20 <_ZnwjRKSt9nothrow_t>:
 80a3c20:	b510      	push	{r4, lr}
 80a3c22:	2800      	cmp	r0, #0
 80a3c24:	bf14      	ite	ne
 80a3c26:	4604      	movne	r4, r0
 80a3c28:	2401      	moveq	r4, #1
 80a3c2a:	4620      	mov	r0, r4
 80a3c2c:	f7fe fd36 	bl	80a269c <malloc>
 80a3c30:	b920      	cbnz	r0, 80a3c3c <_ZnwjRKSt9nothrow_t+0x1c>
 80a3c32:	f7ff ffe9 	bl	80a3c08 <_ZSt15get_new_handlerv>
 80a3c36:	b108      	cbz	r0, 80a3c3c <_ZnwjRKSt9nothrow_t+0x1c>
 80a3c38:	4780      	blx	r0
 80a3c3a:	e7f6      	b.n	80a3c2a <_ZnwjRKSt9nothrow_t+0xa>
 80a3c3c:	bd10      	pop	{r4, pc}

080a3c3e <_ZSt25__throw_bad_function_callv>:
 80a3c3e:	b508      	push	{r3, lr}
 80a3c40:	f7fe fd44 	bl	80a26cc <abort>

080a3c44 <_GLOBAL__sub_I__ZNSt12ctype_bynameIcEC2ERKNSt7__cxx1112basic_stringIcSt11char_traitsIcESaIcEEEj>:
 80a3c44:	4b18      	ldr	r3, [pc, #96]	; (80a3ca8 <_GLOBAL__sub_I__ZNSt12ctype_bynameIcEC2ERKNSt7__cxx1112basic_stringIcSt11char_traitsIcESaIcEEEj+0x64>)
 80a3c46:	681a      	ldr	r2, [r3, #0]
 80a3c48:	07d1      	lsls	r1, r2, #31
 80a3c4a:	bf5c      	itt	pl
 80a3c4c:	2201      	movpl	r2, #1
 80a3c4e:	601a      	strpl	r2, [r3, #0]
 80a3c50:	4b16      	ldr	r3, [pc, #88]	; (80a3cac <_GLOBAL__sub_I__ZNSt12ctype_bynameIcEC2ERKNSt7__cxx1112basic_stringIcSt11char_traitsIcESaIcEEEj+0x68>)
 80a3c52:	681a      	ldr	r2, [r3, #0]
 80a3c54:	07d2      	lsls	r2, r2, #31
 80a3c56:	bf5c      	itt	pl
 80a3c58:	2201      	movpl	r2, #1
 80a3c5a:	601a      	strpl	r2, [r3, #0]
 80a3c5c:	4b14      	ldr	r3, [pc, #80]	; (80a3cb0 <_GLOBAL__sub_I__ZNSt12ctype_bynameIcEC2ERKNSt7__cxx1112basic_stringIcSt11char_traitsIcESaIcEEEj+0x6c>)
 80a3c5e:	681a      	ldr	r2, [r3, #0]
 80a3c60:	07d0      	lsls	r0, r2, #31
 80a3c62:	bf5c      	itt	pl
 80a3c64:	2201      	movpl	r2, #1
 80a3c66:	601a      	strpl	r2, [r3, #0]
 80a3c68:	4b12      	ldr	r3, [pc, #72]	; (80a3cb4 <_GLOBAL__sub_I__ZNSt12ctype_bynameIcEC2ERKNSt7__cxx1112basic_stringIcSt11char_traitsIcESaIcEEEj+0x70>)
 80a3c6a:	681a      	ldr	r2, [r3, #0]
 80a3c6c:	07d1      	lsls	r1, r2, #31
 80a3c6e:	bf5c      	itt	pl
 80a3c70:	2201      	movpl	r2, #1
 80a3c72:	601a      	strpl	r2, [r3, #0]
 80a3c74:	4b10      	ldr	r3, [pc, #64]	; (80a3cb8 <_GLOBAL__sub_I__ZNSt12ctype_bynameIcEC2ERKNSt7__cxx1112basic_stringIcSt11char_traitsIcESaIcEEEj+0x74>)
 80a3c76:	681a      	ldr	r2, [r3, #0]
 80a3c78:	07d2      	lsls	r2, r2, #31
 80a3c7a:	bf5c      	itt	pl
 80a3c7c:	2201      	movpl	r2, #1
 80a3c7e:	601a      	strpl	r2, [r3, #0]
 80a3c80:	4b0e      	ldr	r3, [pc, #56]	; (80a3cbc <_GLOBAL__sub_I__ZNSt12ctype_bynameIcEC2ERKNSt7__cxx1112basic_stringIcSt11char_traitsIcESaIcEEEj+0x78>)
 80a3c82:	681a      	ldr	r2, [r3, #0]
 80a3c84:	07d0      	lsls	r0, r2, #31
 80a3c86:	bf5c      	itt	pl
 80a3c88:	2201      	movpl	r2, #1
 80a3c8a:	601a      	strpl	r2, [r3, #0]
 80a3c8c:	4b0c      	ldr	r3, [pc, #48]	; (80a3cc0 <_GLOBAL__sub_I__ZNSt12ctype_bynameIcEC2ERKNSt7__cxx1112basic_stringIcSt11char_traitsIcESaIcEEEj+0x7c>)
 80a3c8e:	681a      	ldr	r2, [r3, #0]
 80a3c90:	07d1      	lsls	r1, r2, #31
 80a3c92:	bf5c      	itt	pl
 80a3c94:	2201      	movpl	r2, #1
 80a3c96:	601a      	strpl	r2, [r3, #0]
 80a3c98:	4b0a      	ldr	r3, [pc, #40]	; (80a3cc4 <_GLOBAL__sub_I__ZNSt12ctype_bynameIcEC2ERKNSt7__cxx1112basic_stringIcSt11char_traitsIcESaIcEEEj+0x80>)
 80a3c9a:	681a      	ldr	r2, [r3, #0]
 80a3c9c:	07d2      	lsls	r2, r2, #31
 80a3c9e:	bf5c      	itt	pl
 80a3ca0:	2201      	movpl	r2, #1
 80a3ca2:	601a      	strpl	r2, [r3, #0]
 80a3ca4:	4770      	bx	lr
 80a3ca6:	bf00      	nop
 80a3ca8:	200006cc 	.word	0x200006cc
 80a3cac:	200006c8 	.word	0x200006c8
 80a3cb0:	200006c4 	.word	0x200006c4
 80a3cb4:	200006c0 	.word	0x200006c0
 80a3cb8:	200006bc 	.word	0x200006bc
 80a3cbc:	200006b8 	.word	0x200006b8
 80a3cc0:	200006b4 	.word	0x200006b4
 80a3cc4:	200006b0 	.word	0x200006b0

080a3cc8 <_GLOBAL__sub_I__ZNSt12ctype_bynameIwEC2ERKSsj>:
 80a3cc8:	4b24      	ldr	r3, [pc, #144]	; (80a3d5c <_GLOBAL__sub_I__ZNSt12ctype_bynameIwEC2ERKSsj+0x94>)
 80a3cca:	681a      	ldr	r2, [r3, #0]
 80a3ccc:	07d0      	lsls	r0, r2, #31
 80a3cce:	bf5c      	itt	pl
 80a3cd0:	2201      	movpl	r2, #1
 80a3cd2:	601a      	strpl	r2, [r3, #0]
 80a3cd4:	4b22      	ldr	r3, [pc, #136]	; (80a3d60 <_GLOBAL__sub_I__ZNSt12ctype_bynameIwEC2ERKSsj+0x98>)
 80a3cd6:	681a      	ldr	r2, [r3, #0]
 80a3cd8:	07d1      	lsls	r1, r2, #31
 80a3cda:	bf5c      	itt	pl
 80a3cdc:	2201      	movpl	r2, #1
 80a3cde:	601a      	strpl	r2, [r3, #0]
 80a3ce0:	4b20      	ldr	r3, [pc, #128]	; (80a3d64 <_GLOBAL__sub_I__ZNSt12ctype_bynameIwEC2ERKSsj+0x9c>)
 80a3ce2:	681a      	ldr	r2, [r3, #0]
 80a3ce4:	07d2      	lsls	r2, r2, #31
 80a3ce6:	bf5c      	itt	pl
 80a3ce8:	2201      	movpl	r2, #1
 80a3cea:	601a      	strpl	r2, [r3, #0]
 80a3cec:	4b1e      	ldr	r3, [pc, #120]	; (80a3d68 <_GLOBAL__sub_I__ZNSt12ctype_bynameIwEC2ERKSsj+0xa0>)
 80a3cee:	681a      	ldr	r2, [r3, #0]
 80a3cf0:	07d0      	lsls	r0, r2, #31
 80a3cf2:	bf5c      	itt	pl
 80a3cf4:	2201      	movpl	r2, #1
 80a3cf6:	601a      	strpl	r2, [r3, #0]
 80a3cf8:	4b1c      	ldr	r3, [pc, #112]	; (80a3d6c <_GLOBAL__sub_I__ZNSt12ctype_bynameIwEC2ERKSsj+0xa4>)
 80a3cfa:	681a      	ldr	r2, [r3, #0]
 80a3cfc:	07d1      	lsls	r1, r2, #31
 80a3cfe:	bf5c      	itt	pl
 80a3d00:	2201      	movpl	r2, #1
 80a3d02:	601a      	strpl	r2, [r3, #0]
 80a3d04:	4b1a      	ldr	r3, [pc, #104]	; (80a3d70 <_GLOBAL__sub_I__ZNSt12ctype_bynameIwEC2ERKSsj+0xa8>)
 80a3d06:	681a      	ldr	r2, [r3, #0]
 80a3d08:	07d2      	lsls	r2, r2, #31
 80a3d0a:	bf5c      	itt	pl
 80a3d0c:	2201      	movpl	r2, #1
 80a3d0e:	601a      	strpl	r2, [r3, #0]
 80a3d10:	4b18      	ldr	r3, [pc, #96]	; (80a3d74 <_GLOBAL__sub_I__ZNSt12ctype_bynameIwEC2ERKSsj+0xac>)
 80a3d12:	681a      	ldr	r2, [r3, #0]
 80a3d14:	07d0      	lsls	r0, r2, #31
 80a3d16:	bf5c      	itt	pl
 80a3d18:	2201      	movpl	r2, #1
 80a3d1a:	601a      	strpl	r2, [r3, #0]
 80a3d1c:	4b16      	ldr	r3, [pc, #88]	; (80a3d78 <_GLOBAL__sub_I__ZNSt12ctype_bynameIwEC2ERKSsj+0xb0>)
 80a3d1e:	681a      	ldr	r2, [r3, #0]
 80a3d20:	07d1      	lsls	r1, r2, #31
 80a3d22:	bf5c      	itt	pl
 80a3d24:	2201      	movpl	r2, #1
 80a3d26:	601a      	strpl	r2, [r3, #0]
 80a3d28:	4b14      	ldr	r3, [pc, #80]	; (80a3d7c <_GLOBAL__sub_I__ZNSt12ctype_bynameIwEC2ERKSsj+0xb4>)
 80a3d2a:	681a      	ldr	r2, [r3, #0]
 80a3d2c:	07d2      	lsls	r2, r2, #31
 80a3d2e:	bf5c      	itt	pl
 80a3d30:	2201      	movpl	r2, #1
 80a3d32:	601a      	strpl	r2, [r3, #0]
 80a3d34:	4b12      	ldr	r3, [pc, #72]	; (80a3d80 <_GLOBAL__sub_I__ZNSt12ctype_bynameIwEC2ERKSsj+0xb8>)
 80a3d36:	681a      	ldr	r2, [r3, #0]
 80a3d38:	07d0      	lsls	r0, r2, #31
 80a3d3a:	bf5c      	itt	pl
 80a3d3c:	2201      	movpl	r2, #1
 80a3d3e:	601a      	strpl	r2, [r3, #0]
 80a3d40:	4b10      	ldr	r3, [pc, #64]	; (80a3d84 <_GLOBAL__sub_I__ZNSt12ctype_bynameIwEC2ERKSsj+0xbc>)
 80a3d42:	681a      	ldr	r2, [r3, #0]
 80a3d44:	07d1      	lsls	r1, r2, #31
 80a3d46:	bf5c      	itt	pl
 80a3d48:	2201      	movpl	r2, #1
 80a3d4a:	601a      	strpl	r2, [r3, #0]
 80a3d4c:	4b0e      	ldr	r3, [pc, #56]	; (80a3d88 <_GLOBAL__sub_I__ZNSt12ctype_bynameIwEC2ERKSsj+0xc0>)
 80a3d4e:	681a      	ldr	r2, [r3, #0]
 80a3d50:	07d2      	lsls	r2, r2, #31
 80a3d52:	bf5c      	itt	pl
 80a3d54:	2201      	movpl	r2, #1
 80a3d56:	601a      	strpl	r2, [r3, #0]
 80a3d58:	4770      	bx	lr
 80a3d5a:	bf00      	nop
 80a3d5c:	200006fc 	.word	0x200006fc
 80a3d60:	200006f8 	.word	0x200006f8
 80a3d64:	200006f4 	.word	0x200006f4
 80a3d68:	200006f0 	.word	0x200006f0
 80a3d6c:	200006ec 	.word	0x200006ec
 80a3d70:	200006e8 	.word	0x200006e8
 80a3d74:	200006e4 	.word	0x200006e4
 80a3d78:	200006e0 	.word	0x200006e0
 80a3d7c:	200006dc 	.word	0x200006dc
 80a3d80:	200006d8 	.word	0x200006d8
 80a3d84:	200006d4 	.word	0x200006d4
 80a3d88:	200006d0 	.word	0x200006d0

080a3d8c <_GLOBAL__sub_I__ZNSt12ctype_bynameIcEC2ERKSsj>:
 80a3d8c:	4b24      	ldr	r3, [pc, #144]	; (80a3e20 <_GLOBAL__sub_I__ZNSt12ctype_bynameIcEC2ERKSsj+0x94>)
 80a3d8e:	681a      	ldr	r2, [r3, #0]
 80a3d90:	07d0      	lsls	r0, r2, #31
 80a3d92:	bf5c      	itt	pl
 80a3d94:	2201      	movpl	r2, #1
 80a3d96:	601a      	strpl	r2, [r3, #0]
 80a3d98:	4b22      	ldr	r3, [pc, #136]	; (80a3e24 <_GLOBAL__sub_I__ZNSt12ctype_bynameIcEC2ERKSsj+0x98>)
 80a3d9a:	681a      	ldr	r2, [r3, #0]
 80a3d9c:	07d1      	lsls	r1, r2, #31
 80a3d9e:	bf5c      	itt	pl
 80a3da0:	2201      	movpl	r2, #1
 80a3da2:	601a      	strpl	r2, [r3, #0]
 80a3da4:	4b20      	ldr	r3, [pc, #128]	; (80a3e28 <_GLOBAL__sub_I__ZNSt12ctype_bynameIcEC2ERKSsj+0x9c>)
 80a3da6:	681a      	ldr	r2, [r3, #0]
 80a3da8:	07d2      	lsls	r2, r2, #31
 80a3daa:	bf5c      	itt	pl
 80a3dac:	2201      	movpl	r2, #1
 80a3dae:	601a      	strpl	r2, [r3, #0]
 80a3db0:	4b1e      	ldr	r3, [pc, #120]	; (80a3e2c <_GLOBAL__sub_I__ZNSt12ctype_bynameIcEC2ERKSsj+0xa0>)
 80a3db2:	681a      	ldr	r2, [r3, #0]
 80a3db4:	07d0      	lsls	r0, r2, #31
 80a3db6:	bf5c      	itt	pl
 80a3db8:	2201      	movpl	r2, #1
 80a3dba:	601a      	strpl	r2, [r3, #0]
 80a3dbc:	4b1c      	ldr	r3, [pc, #112]	; (80a3e30 <_GLOBAL__sub_I__ZNSt12ctype_bynameIcEC2ERKSsj+0xa4>)
 80a3dbe:	681a      	ldr	r2, [r3, #0]
 80a3dc0:	07d1      	lsls	r1, r2, #31
 80a3dc2:	bf5c      	itt	pl
 80a3dc4:	2201      	movpl	r2, #1
 80a3dc6:	601a      	strpl	r2, [r3, #0]
 80a3dc8:	4b1a      	ldr	r3, [pc, #104]	; (80a3e34 <_GLOBAL__sub_I__ZNSt12ctype_bynameIcEC2ERKSsj+0xa8>)
 80a3dca:	681a      	ldr	r2, [r3, #0]
 80a3dcc:	07d2      	lsls	r2, r2, #31
 80a3dce:	bf5c      	itt	pl
 80a3dd0:	2201      	movpl	r2, #1
 80a3dd2:	601a      	strpl	r2, [r3, #0]
 80a3dd4:	4b18      	ldr	r3, [pc, #96]	; (80a3e38 <_GLOBAL__sub_I__ZNSt12ctype_bynameIcEC2ERKSsj+0xac>)
 80a3dd6:	681a      	ldr	r2, [r3, #0]
 80a3dd8:	07d0      	lsls	r0, r2, #31
 80a3dda:	bf5c      	itt	pl
 80a3ddc:	2201      	movpl	r2, #1
 80a3dde:	601a      	strpl	r2, [r3, #0]
 80a3de0:	4b16      	ldr	r3, [pc, #88]	; (80a3e3c <_GLOBAL__sub_I__ZNSt12ctype_bynameIcEC2ERKSsj+0xb0>)
 80a3de2:	681a      	ldr	r2, [r3, #0]
 80a3de4:	07d1      	lsls	r1, r2, #31
 80a3de6:	bf5c      	itt	pl
 80a3de8:	2201      	movpl	r2, #1
 80a3dea:	601a      	strpl	r2, [r3, #0]
 80a3dec:	4b14      	ldr	r3, [pc, #80]	; (80a3e40 <_GLOBAL__sub_I__ZNSt12ctype_bynameIcEC2ERKSsj+0xb4>)
 80a3dee:	681a      	ldr	r2, [r3, #0]
 80a3df0:	07d2      	lsls	r2, r2, #31
 80a3df2:	bf5c      	itt	pl
 80a3df4:	2201      	movpl	r2, #1
 80a3df6:	601a      	strpl	r2, [r3, #0]
 80a3df8:	4b12      	ldr	r3, [pc, #72]	; (80a3e44 <_GLOBAL__sub_I__ZNSt12ctype_bynameIcEC2ERKSsj+0xb8>)
 80a3dfa:	681a      	ldr	r2, [r3, #0]
 80a3dfc:	07d0      	lsls	r0, r2, #31
 80a3dfe:	bf5c      	itt	pl
 80a3e00:	2201      	movpl	r2, #1
 80a3e02:	601a      	strpl	r2, [r3, #0]
 80a3e04:	4b10      	ldr	r3, [pc, #64]	; (80a3e48 <_GLOBAL__sub_I__ZNSt12ctype_bynameIcEC2ERKSsj+0xbc>)
 80a3e06:	681a      	ldr	r2, [r3, #0]
 80a3e08:	07d1      	lsls	r1, r2, #31
 80a3e0a:	bf5c      	itt	pl
 80a3e0c:	2201      	movpl	r2, #1
 80a3e0e:	601a      	strpl	r2, [r3, #0]
 80a3e10:	4b0e      	ldr	r3, [pc, #56]	; (80a3e4c <_GLOBAL__sub_I__ZNSt12ctype_bynameIcEC2ERKSsj+0xc0>)
 80a3e12:	681a      	ldr	r2, [r3, #0]
 80a3e14:	07d2      	lsls	r2, r2, #31
 80a3e16:	bf5c      	itt	pl
 80a3e18:	2201      	movpl	r2, #1
 80a3e1a:	601a      	strpl	r2, [r3, #0]
 80a3e1c:	4770      	bx	lr
 80a3e1e:	bf00      	nop
 80a3e20:	2000072c 	.word	0x2000072c
 80a3e24:	20000728 	.word	0x20000728
 80a3e28:	20000724 	.word	0x20000724
 80a3e2c:	20000720 	.word	0x20000720
 80a3e30:	2000071c 	.word	0x2000071c
 80a3e34:	20000718 	.word	0x20000718
 80a3e38:	20000714 	.word	0x20000714
 80a3e3c:	20000710 	.word	0x20000710
 80a3e40:	2000070c 	.word	0x2000070c
 80a3e44:	20000708 	.word	0x20000708
 80a3e48:	20000704 	.word	0x20000704
 80a3e4c:	20000700 	.word	0x20000700

080a3e50 <_GLOBAL__sub_I__ZNSt12ctype_bynameIwEC2ERKNSt7__cxx1112basic_stringIcSt11char_traitsIcESaIcEEEj>:
 80a3e50:	4b18      	ldr	r3, [pc, #96]	; (80a3eb4 <_GLOBAL__sub_I__ZNSt12ctype_bynameIwEC2ERKNSt7__cxx1112basic_stringIcSt11char_traitsIcESaIcEEEj+0x64>)
 80a3e52:	681a      	ldr	r2, [r3, #0]
 80a3e54:	07d1      	lsls	r1, r2, #31
 80a3e56:	bf5c      	itt	pl
 80a3e58:	2201      	movpl	r2, #1
 80a3e5a:	601a      	strpl	r2, [r3, #0]
 80a3e5c:	4b16      	ldr	r3, [pc, #88]	; (80a3eb8 <_GLOBAL__sub_I__ZNSt12ctype_bynameIwEC2ERKNSt7__cxx1112basic_stringIcSt11char_traitsIcESaIcEEEj+0x68>)
 80a3e5e:	681a      	ldr	r2, [r3, #0]
 80a3e60:	07d2      	lsls	r2, r2, #31
 80a3e62:	bf5c      	itt	pl
 80a3e64:	2201      	movpl	r2, #1
 80a3e66:	601a      	strpl	r2, [r3, #0]
 80a3e68:	4b14      	ldr	r3, [pc, #80]	; (80a3ebc <_GLOBAL__sub_I__ZNSt12ctype_bynameIwEC2ERKNSt7__cxx1112basic_stringIcSt11char_traitsIcESaIcEEEj+0x6c>)
 80a3e6a:	681a      	ldr	r2, [r3, #0]
 80a3e6c:	07d0      	lsls	r0, r2, #31
 80a3e6e:	bf5c      	itt	pl
 80a3e70:	2201      	movpl	r2, #1
 80a3e72:	601a      	strpl	r2, [r3, #0]
 80a3e74:	4b12      	ldr	r3, [pc, #72]	; (80a3ec0 <_GLOBAL__sub_I__ZNSt12ctype_bynameIwEC2ERKNSt7__cxx1112basic_stringIcSt11char_traitsIcESaIcEEEj+0x70>)
 80a3e76:	681a      	ldr	r2, [r3, #0]
 80a3e78:	07d1      	lsls	r1, r2, #31
 80a3e7a:	bf5c      	itt	pl
 80a3e7c:	2201      	movpl	r2, #1
 80a3e7e:	601a      	strpl	r2, [r3, #0]
 80a3e80:	4b10      	ldr	r3, [pc, #64]	; (80a3ec4 <_GLOBAL__sub_I__ZNSt12ctype_bynameIwEC2ERKNSt7__cxx1112basic_stringIcSt11char_traitsIcESaIcEEEj+0x74>)
 80a3e82:	681a      	ldr	r2, [r3, #0]
 80a3e84:	07d2      	lsls	r2, r2, #31
 80a3e86:	bf5c      	itt	pl
 80a3e88:	2201      	movpl	r2, #1
 80a3e8a:	601a      	strpl	r2, [r3, #0]
 80a3e8c:	4b0e      	ldr	r3, [pc, #56]	; (80a3ec8 <_GLOBAL__sub_I__ZNSt12ctype_bynameIwEC2ERKNSt7__cxx1112basic_stringIcSt11char_traitsIcESaIcEEEj+0x78>)
 80a3e8e:	681a      	ldr	r2, [r3, #0]
 80a3e90:	07d0      	lsls	r0, r2, #31
 80a3e92:	bf5c      	itt	pl
 80a3e94:	2201      	movpl	r2, #1
 80a3e96:	601a      	strpl	r2, [r3, #0]
 80a3e98:	4b0c      	ldr	r3, [pc, #48]	; (80a3ecc <_GLOBAL__sub_I__ZNSt12ctype_bynameIwEC2ERKNSt7__cxx1112basic_stringIcSt11char_traitsIcESaIcEEEj+0x7c>)
 80a3e9a:	681a      	ldr	r2, [r3, #0]
 80a3e9c:	07d1      	lsls	r1, r2, #31
 80a3e9e:	bf5c      	itt	pl
 80a3ea0:	2201      	movpl	r2, #1
 80a3ea2:	601a      	strpl	r2, [r3, #0]
 80a3ea4:	4b0a      	ldr	r3, [pc, #40]	; (80a3ed0 <_GLOBAL__sub_I__ZNSt12ctype_bynameIwEC2ERKNSt7__cxx1112basic_stringIcSt11char_traitsIcESaIcEEEj+0x80>)
 80a3ea6:	681a      	ldr	r2, [r3, #0]
 80a3ea8:	07d2      	lsls	r2, r2, #31
 80a3eaa:	bf5c      	itt	pl
 80a3eac:	2201      	movpl	r2, #1
 80a3eae:	601a      	strpl	r2, [r3, #0]
 80a3eb0:	4770      	bx	lr
 80a3eb2:	bf00      	nop
 80a3eb4:	2000074c 	.word	0x2000074c
 80a3eb8:	20000748 	.word	0x20000748
 80a3ebc:	20000744 	.word	0x20000744
 80a3ec0:	20000740 	.word	0x20000740
 80a3ec4:	2000073c 	.word	0x2000073c
 80a3ec8:	20000738 	.word	0x20000738
 80a3ecc:	20000734 	.word	0x20000734
 80a3ed0:	20000730 	.word	0x20000730

080a3ed4 <__aeabi_drsub>:
 80a3ed4:	f081 4100 	eor.w	r1, r1, #2147483648	; 0x80000000
 80a3ed8:	e002      	b.n	80a3ee0 <__adddf3>
 80a3eda:	bf00      	nop

080a3edc <__aeabi_dsub>:
 80a3edc:	f083 4300 	eor.w	r3, r3, #2147483648	; 0x80000000

080a3ee0 <__adddf3>:
 80a3ee0:	b530      	push	{r4, r5, lr}
 80a3ee2:	ea4f 0441 	mov.w	r4, r1, lsl #1
 80a3ee6:	ea4f 0543 	mov.w	r5, r3, lsl #1
 80a3eea:	ea94 0f05 	teq	r4, r5
 80a3eee:	bf08      	it	eq
 80a3ef0:	ea90 0f02 	teqeq	r0, r2
 80a3ef4:	bf1f      	itttt	ne
 80a3ef6:	ea54 0c00 	orrsne.w	ip, r4, r0
 80a3efa:	ea55 0c02 	orrsne.w	ip, r5, r2
 80a3efe:	ea7f 5c64 	mvnsne.w	ip, r4, asr #21
 80a3f02:	ea7f 5c65 	mvnsne.w	ip, r5, asr #21
 80a3f06:	f000 80e2 	beq.w	80a40ce <__adddf3+0x1ee>
 80a3f0a:	ea4f 5454 	mov.w	r4, r4, lsr #21
 80a3f0e:	ebd4 5555 	rsbs	r5, r4, r5, lsr #21
 80a3f12:	bfb8      	it	lt
 80a3f14:	426d      	neglt	r5, r5
 80a3f16:	dd0c      	ble.n	80a3f32 <__adddf3+0x52>
 80a3f18:	442c      	add	r4, r5
 80a3f1a:	ea80 0202 	eor.w	r2, r0, r2
 80a3f1e:	ea81 0303 	eor.w	r3, r1, r3
 80a3f22:	ea82 0000 	eor.w	r0, r2, r0
 80a3f26:	ea83 0101 	eor.w	r1, r3, r1
 80a3f2a:	ea80 0202 	eor.w	r2, r0, r2
 80a3f2e:	ea81 0303 	eor.w	r3, r1, r3
 80a3f32:	2d36      	cmp	r5, #54	; 0x36
 80a3f34:	bf88      	it	hi
 80a3f36:	bd30      	pophi	{r4, r5, pc}
 80a3f38:	f011 4f00 	tst.w	r1, #2147483648	; 0x80000000
 80a3f3c:	ea4f 3101 	mov.w	r1, r1, lsl #12
 80a3f40:	f44f 1c80 	mov.w	ip, #1048576	; 0x100000
 80a3f44:	ea4c 3111 	orr.w	r1, ip, r1, lsr #12
 80a3f48:	d002      	beq.n	80a3f50 <__adddf3+0x70>
 80a3f4a:	4240      	negs	r0, r0
 80a3f4c:	eb61 0141 	sbc.w	r1, r1, r1, lsl #1
 80a3f50:	f013 4f00 	tst.w	r3, #2147483648	; 0x80000000
 80a3f54:	ea4f 3303 	mov.w	r3, r3, lsl #12
 80a3f58:	ea4c 3313 	orr.w	r3, ip, r3, lsr #12
 80a3f5c:	d002      	beq.n	80a3f64 <__adddf3+0x84>
 80a3f5e:	4252      	negs	r2, r2
 80a3f60:	eb63 0343 	sbc.w	r3, r3, r3, lsl #1
 80a3f64:	ea94 0f05 	teq	r4, r5
 80a3f68:	f000 80a7 	beq.w	80a40ba <__adddf3+0x1da>
 80a3f6c:	f1a4 0401 	sub.w	r4, r4, #1
 80a3f70:	f1d5 0e20 	rsbs	lr, r5, #32
 80a3f74:	db0d      	blt.n	80a3f92 <__adddf3+0xb2>
 80a3f76:	fa02 fc0e 	lsl.w	ip, r2, lr
 80a3f7a:	fa22 f205 	lsr.w	r2, r2, r5
 80a3f7e:	1880      	adds	r0, r0, r2
 80a3f80:	f141 0100 	adc.w	r1, r1, #0
 80a3f84:	fa03 f20e 	lsl.w	r2, r3, lr
 80a3f88:	1880      	adds	r0, r0, r2
 80a3f8a:	fa43 f305 	asr.w	r3, r3, r5
 80a3f8e:	4159      	adcs	r1, r3
 80a3f90:	e00e      	b.n	80a3fb0 <__adddf3+0xd0>
 80a3f92:	f1a5 0520 	sub.w	r5, r5, #32
 80a3f96:	f10e 0e20 	add.w	lr, lr, #32
 80a3f9a:	2a01      	cmp	r2, #1
 80a3f9c:	fa03 fc0e 	lsl.w	ip, r3, lr
 80a3fa0:	bf28      	it	cs
 80a3fa2:	f04c 0c02 	orrcs.w	ip, ip, #2
 80a3fa6:	fa43 f305 	asr.w	r3, r3, r5
 80a3faa:	18c0      	adds	r0, r0, r3
 80a3fac:	eb51 71e3 	adcs.w	r1, r1, r3, asr #31
 80a3fb0:	f001 4500 	and.w	r5, r1, #2147483648	; 0x80000000
 80a3fb4:	d507      	bpl.n	80a3fc6 <__adddf3+0xe6>
 80a3fb6:	f04f 0e00 	mov.w	lr, #0
 80a3fba:	f1dc 0c00 	rsbs	ip, ip, #0
 80a3fbe:	eb7e 0000 	sbcs.w	r0, lr, r0
 80a3fc2:	eb6e 0101 	sbc.w	r1, lr, r1
 80a3fc6:	f5b1 1f80 	cmp.w	r1, #1048576	; 0x100000
 80a3fca:	d31b      	bcc.n	80a4004 <__adddf3+0x124>
 80a3fcc:	f5b1 1f00 	cmp.w	r1, #2097152	; 0x200000
 80a3fd0:	d30c      	bcc.n	80a3fec <__adddf3+0x10c>
 80a3fd2:	0849      	lsrs	r1, r1, #1
 80a3fd4:	ea5f 0030 	movs.w	r0, r0, rrx
 80a3fd8:	ea4f 0c3c 	mov.w	ip, ip, rrx
 80a3fdc:	f104 0401 	add.w	r4, r4, #1
 80a3fe0:	ea4f 5244 	mov.w	r2, r4, lsl #21
 80a3fe4:	f512 0f80 	cmn.w	r2, #4194304	; 0x400000
 80a3fe8:	f080 809a 	bcs.w	80a4120 <__adddf3+0x240>
 80a3fec:	f1bc 4f00 	cmp.w	ip, #2147483648	; 0x80000000
 80a3ff0:	bf08      	it	eq
 80a3ff2:	ea5f 0c50 	movseq.w	ip, r0, lsr #1
 80a3ff6:	f150 0000 	adcs.w	r0, r0, #0
 80a3ffa:	eb41 5104 	adc.w	r1, r1, r4, lsl #20
 80a3ffe:	ea41 0105 	orr.w	r1, r1, r5
 80a4002:	bd30      	pop	{r4, r5, pc}
 80a4004:	ea5f 0c4c 	movs.w	ip, ip, lsl #1
 80a4008:	4140      	adcs	r0, r0
 80a400a:	eb41 0101 	adc.w	r1, r1, r1
 80a400e:	f411 1f80 	tst.w	r1, #1048576	; 0x100000
 80a4012:	f1a4 0401 	sub.w	r4, r4, #1
 80a4016:	d1e9      	bne.n	80a3fec <__adddf3+0x10c>
 80a4018:	f091 0f00 	teq	r1, #0
 80a401c:	bf04      	itt	eq
 80a401e:	4601      	moveq	r1, r0
 80a4020:	2000      	moveq	r0, #0
 80a4022:	fab1 f381 	clz	r3, r1
 80a4026:	bf08      	it	eq
 80a4028:	3320      	addeq	r3, #32
 80a402a:	f1a3 030b 	sub.w	r3, r3, #11
 80a402e:	f1b3 0220 	subs.w	r2, r3, #32
 80a4032:	da0c      	bge.n	80a404e <__adddf3+0x16e>
 80a4034:	320c      	adds	r2, #12
 80a4036:	dd08      	ble.n	80a404a <__adddf3+0x16a>
 80a4038:	f102 0c14 	add.w	ip, r2, #20
 80a403c:	f1c2 020c 	rsb	r2, r2, #12
 80a4040:	fa01 f00c 	lsl.w	r0, r1, ip
 80a4044:	fa21 f102 	lsr.w	r1, r1, r2
 80a4048:	e00c      	b.n	80a4064 <__adddf3+0x184>
 80a404a:	f102 0214 	add.w	r2, r2, #20
 80a404e:	bfd8      	it	le
 80a4050:	f1c2 0c20 	rsble	ip, r2, #32
 80a4054:	fa01 f102 	lsl.w	r1, r1, r2
 80a4058:	fa20 fc0c 	lsr.w	ip, r0, ip
 80a405c:	bfdc      	itt	le
 80a405e:	ea41 010c 	orrle.w	r1, r1, ip
 80a4062:	4090      	lslle	r0, r2
 80a4064:	1ae4      	subs	r4, r4, r3
 80a4066:	bfa2      	ittt	ge
 80a4068:	eb01 5104 	addge.w	r1, r1, r4, lsl #20
 80a406c:	4329      	orrge	r1, r5
 80a406e:	bd30      	popge	{r4, r5, pc}
 80a4070:	ea6f 0404 	mvn.w	r4, r4
 80a4074:	3c1f      	subs	r4, #31
 80a4076:	da1c      	bge.n	80a40b2 <__adddf3+0x1d2>
 80a4078:	340c      	adds	r4, #12
 80a407a:	dc0e      	bgt.n	80a409a <__adddf3+0x1ba>
 80a407c:	f104 0414 	add.w	r4, r4, #20
 80a4080:	f1c4 0220 	rsb	r2, r4, #32
 80a4084:	fa20 f004 	lsr.w	r0, r0, r4
 80a4088:	fa01 f302 	lsl.w	r3, r1, r2
 80a408c:	ea40 0003 	orr.w	r0, r0, r3
 80a4090:	fa21 f304 	lsr.w	r3, r1, r4
 80a4094:	ea45 0103 	orr.w	r1, r5, r3
 80a4098:	bd30      	pop	{r4, r5, pc}
 80a409a:	f1c4 040c 	rsb	r4, r4, #12
 80a409e:	f1c4 0220 	rsb	r2, r4, #32
 80a40a2:	fa20 f002 	lsr.w	r0, r0, r2
 80a40a6:	fa01 f304 	lsl.w	r3, r1, r4
 80a40aa:	ea40 0003 	orr.w	r0, r0, r3
 80a40ae:	4629      	mov	r1, r5
 80a40b0:	bd30      	pop	{r4, r5, pc}
 80a40b2:	fa21 f004 	lsr.w	r0, r1, r4
 80a40b6:	4629      	mov	r1, r5
 80a40b8:	bd30      	pop	{r4, r5, pc}
 80a40ba:	f094 0f00 	teq	r4, #0
 80a40be:	f483 1380 	eor.w	r3, r3, #1048576	; 0x100000
 80a40c2:	bf06      	itte	eq
 80a40c4:	f481 1180 	eoreq.w	r1, r1, #1048576	; 0x100000
 80a40c8:	3401      	addeq	r4, #1
 80a40ca:	3d01      	subne	r5, #1
 80a40cc:	e74e      	b.n	80a3f6c <__adddf3+0x8c>
 80a40ce:	ea7f 5c64 	mvns.w	ip, r4, asr #21
 80a40d2:	bf18      	it	ne
 80a40d4:	ea7f 5c65 	mvnsne.w	ip, r5, asr #21
 80a40d8:	d029      	beq.n	80a412e <__adddf3+0x24e>
 80a40da:	ea94 0f05 	teq	r4, r5
 80a40de:	bf08      	it	eq
 80a40e0:	ea90 0f02 	teqeq	r0, r2
 80a40e4:	d005      	beq.n	80a40f2 <__adddf3+0x212>
 80a40e6:	ea54 0c00 	orrs.w	ip, r4, r0
 80a40ea:	bf04      	itt	eq
 80a40ec:	4619      	moveq	r1, r3
 80a40ee:	4610      	moveq	r0, r2
 80a40f0:	bd30      	pop	{r4, r5, pc}
 80a40f2:	ea91 0f03 	teq	r1, r3
 80a40f6:	bf1e      	ittt	ne
 80a40f8:	2100      	movne	r1, #0
 80a40fa:	2000      	movne	r0, #0
 80a40fc:	bd30      	popne	{r4, r5, pc}
 80a40fe:	ea5f 5c54 	movs.w	ip, r4, lsr #21
 80a4102:	d105      	bne.n	80a4110 <__adddf3+0x230>
 80a4104:	0040      	lsls	r0, r0, #1
 80a4106:	4149      	adcs	r1, r1
 80a4108:	bf28      	it	cs
 80a410a:	f041 4100 	orrcs.w	r1, r1, #2147483648	; 0x80000000
 80a410e:	bd30      	pop	{r4, r5, pc}
 80a4110:	f514 0480 	adds.w	r4, r4, #4194304	; 0x400000
 80a4114:	bf3c      	itt	cc
 80a4116:	f501 1180 	addcc.w	r1, r1, #1048576	; 0x100000
 80a411a:	bd30      	popcc	{r4, r5, pc}
 80a411c:	f001 4500 	and.w	r5, r1, #2147483648	; 0x80000000
 80a4120:	f045 41fe 	orr.w	r1, r5, #2130706432	; 0x7f000000
 80a4124:	f441 0170 	orr.w	r1, r1, #15728640	; 0xf00000
 80a4128:	f04f 0000 	mov.w	r0, #0
 80a412c:	bd30      	pop	{r4, r5, pc}
 80a412e:	ea7f 5c64 	mvns.w	ip, r4, asr #21
 80a4132:	bf1a      	itte	ne
 80a4134:	4619      	movne	r1, r3
 80a4136:	4610      	movne	r0, r2
 80a4138:	ea7f 5c65 	mvnseq.w	ip, r5, asr #21
 80a413c:	bf1c      	itt	ne
 80a413e:	460b      	movne	r3, r1
 80a4140:	4602      	movne	r2, r0
 80a4142:	ea50 3401 	orrs.w	r4, r0, r1, lsl #12
 80a4146:	bf06      	itte	eq
 80a4148:	ea52 3503 	orrseq.w	r5, r2, r3, lsl #12
 80a414c:	ea91 0f03 	teqeq	r1, r3
 80a4150:	f441 2100 	orrne.w	r1, r1, #524288	; 0x80000
 80a4154:	bd30      	pop	{r4, r5, pc}
 80a4156:	bf00      	nop

080a4158 <__aeabi_ui2d>:
 80a4158:	f090 0f00 	teq	r0, #0
 80a415c:	bf04      	itt	eq
 80a415e:	2100      	moveq	r1, #0
 80a4160:	4770      	bxeq	lr
 80a4162:	b530      	push	{r4, r5, lr}
 80a4164:	f44f 6480 	mov.w	r4, #1024	; 0x400
 80a4168:	f104 0432 	add.w	r4, r4, #50	; 0x32
 80a416c:	f04f 0500 	mov.w	r5, #0
 80a4170:	f04f 0100 	mov.w	r1, #0
 80a4174:	e750      	b.n	80a4018 <__adddf3+0x138>
 80a4176:	bf00      	nop

080a4178 <__aeabi_i2d>:
 80a4178:	f090 0f00 	teq	r0, #0
 80a417c:	bf04      	itt	eq
 80a417e:	2100      	moveq	r1, #0
 80a4180:	4770      	bxeq	lr
 80a4182:	b530      	push	{r4, r5, lr}
 80a4184:	f44f 6480 	mov.w	r4, #1024	; 0x400
 80a4188:	f104 0432 	add.w	r4, r4, #50	; 0x32
 80a418c:	f010 4500 	ands.w	r5, r0, #2147483648	; 0x80000000
 80a4190:	bf48      	it	mi
 80a4192:	4240      	negmi	r0, r0
 80a4194:	f04f 0100 	mov.w	r1, #0
 80a4198:	e73e      	b.n	80a4018 <__adddf3+0x138>
 80a419a:	bf00      	nop

080a419c <__aeabi_f2d>:
 80a419c:	0042      	lsls	r2, r0, #1
 80a419e:	ea4f 01e2 	mov.w	r1, r2, asr #3
 80a41a2:	ea4f 0131 	mov.w	r1, r1, rrx
 80a41a6:	ea4f 7002 	mov.w	r0, r2, lsl #28
 80a41aa:	bf1f      	itttt	ne
 80a41ac:	f012 437f 	andsne.w	r3, r2, #4278190080	; 0xff000000
 80a41b0:	f093 4f7f 	teqne	r3, #4278190080	; 0xff000000
 80a41b4:	f081 5160 	eorne.w	r1, r1, #939524096	; 0x38000000
 80a41b8:	4770      	bxne	lr
 80a41ba:	f092 0f00 	teq	r2, #0
 80a41be:	bf14      	ite	ne
 80a41c0:	f093 4f7f 	teqne	r3, #4278190080	; 0xff000000
 80a41c4:	4770      	bxeq	lr
 80a41c6:	b530      	push	{r4, r5, lr}
 80a41c8:	f44f 7460 	mov.w	r4, #896	; 0x380
 80a41cc:	f001 4500 	and.w	r5, r1, #2147483648	; 0x80000000
 80a41d0:	f021 4100 	bic.w	r1, r1, #2147483648	; 0x80000000
 80a41d4:	e720      	b.n	80a4018 <__adddf3+0x138>
 80a41d6:	bf00      	nop

080a41d8 <__aeabi_ul2d>:
 80a41d8:	ea50 0201 	orrs.w	r2, r0, r1
 80a41dc:	bf08      	it	eq
 80a41de:	4770      	bxeq	lr
 80a41e0:	b530      	push	{r4, r5, lr}
 80a41e2:	f04f 0500 	mov.w	r5, #0
 80a41e6:	e00a      	b.n	80a41fe <__aeabi_l2d+0x16>

080a41e8 <__aeabi_l2d>:
 80a41e8:	ea50 0201 	orrs.w	r2, r0, r1
 80a41ec:	bf08      	it	eq
 80a41ee:	4770      	bxeq	lr
 80a41f0:	b530      	push	{r4, r5, lr}
 80a41f2:	f011 4500 	ands.w	r5, r1, #2147483648	; 0x80000000
 80a41f6:	d502      	bpl.n	80a41fe <__aeabi_l2d+0x16>
 80a41f8:	4240      	negs	r0, r0
 80a41fa:	eb61 0141 	sbc.w	r1, r1, r1, lsl #1
 80a41fe:	f44f 6480 	mov.w	r4, #1024	; 0x400
 80a4202:	f104 0432 	add.w	r4, r4, #50	; 0x32
 80a4206:	ea5f 5c91 	movs.w	ip, r1, lsr #22
 80a420a:	f43f aedc 	beq.w	80a3fc6 <__adddf3+0xe6>
 80a420e:	f04f 0203 	mov.w	r2, #3
 80a4212:	ea5f 0cdc 	movs.w	ip, ip, lsr #3
 80a4216:	bf18      	it	ne
 80a4218:	3203      	addne	r2, #3
 80a421a:	ea5f 0cdc 	movs.w	ip, ip, lsr #3
 80a421e:	bf18      	it	ne
 80a4220:	3203      	addne	r2, #3
 80a4222:	eb02 02dc 	add.w	r2, r2, ip, lsr #3
 80a4226:	f1c2 0320 	rsb	r3, r2, #32
 80a422a:	fa00 fc03 	lsl.w	ip, r0, r3
 80a422e:	fa20 f002 	lsr.w	r0, r0, r2
 80a4232:	fa01 fe03 	lsl.w	lr, r1, r3
 80a4236:	ea40 000e 	orr.w	r0, r0, lr
 80a423a:	fa21 f102 	lsr.w	r1, r1, r2
 80a423e:	4414      	add	r4, r2
 80a4240:	e6c1      	b.n	80a3fc6 <__adddf3+0xe6>
 80a4242:	bf00      	nop

080a4244 <__aeabi_dmul>:
 80a4244:	b570      	push	{r4, r5, r6, lr}
 80a4246:	f04f 0cff 	mov.w	ip, #255	; 0xff
 80a424a:	f44c 6ce0 	orr.w	ip, ip, #1792	; 0x700
 80a424e:	ea1c 5411 	ands.w	r4, ip, r1, lsr #20
 80a4252:	bf1d      	ittte	ne
 80a4254:	ea1c 5513 	andsne.w	r5, ip, r3, lsr #20
 80a4258:	ea94 0f0c 	teqne	r4, ip
 80a425c:	ea95 0f0c 	teqne	r5, ip
 80a4260:	f000 f8de 	bleq	80a4420 <__aeabi_dmul+0x1dc>
 80a4264:	442c      	add	r4, r5
 80a4266:	ea81 0603 	eor.w	r6, r1, r3
 80a426a:	ea21 514c 	bic.w	r1, r1, ip, lsl #21
 80a426e:	ea23 534c 	bic.w	r3, r3, ip, lsl #21
 80a4272:	ea50 3501 	orrs.w	r5, r0, r1, lsl #12
 80a4276:	bf18      	it	ne
 80a4278:	ea52 3503 	orrsne.w	r5, r2, r3, lsl #12
 80a427c:	f441 1180 	orr.w	r1, r1, #1048576	; 0x100000
 80a4280:	f443 1380 	orr.w	r3, r3, #1048576	; 0x100000
 80a4284:	d038      	beq.n	80a42f8 <__aeabi_dmul+0xb4>
 80a4286:	fba0 ce02 	umull	ip, lr, r0, r2
 80a428a:	f04f 0500 	mov.w	r5, #0
 80a428e:	fbe1 e502 	umlal	lr, r5, r1, r2
 80a4292:	f006 4200 	and.w	r2, r6, #2147483648	; 0x80000000
 80a4296:	fbe0 e503 	umlal	lr, r5, r0, r3
 80a429a:	f04f 0600 	mov.w	r6, #0
 80a429e:	fbe1 5603 	umlal	r5, r6, r1, r3
 80a42a2:	f09c 0f00 	teq	ip, #0
 80a42a6:	bf18      	it	ne
 80a42a8:	f04e 0e01 	orrne.w	lr, lr, #1
 80a42ac:	f1a4 04ff 	sub.w	r4, r4, #255	; 0xff
 80a42b0:	f5b6 7f00 	cmp.w	r6, #512	; 0x200
 80a42b4:	f564 7440 	sbc.w	r4, r4, #768	; 0x300
 80a42b8:	d204      	bcs.n	80a42c4 <__aeabi_dmul+0x80>
 80a42ba:	ea5f 0e4e 	movs.w	lr, lr, lsl #1
 80a42be:	416d      	adcs	r5, r5
 80a42c0:	eb46 0606 	adc.w	r6, r6, r6
 80a42c4:	ea42 21c6 	orr.w	r1, r2, r6, lsl #11
 80a42c8:	ea41 5155 	orr.w	r1, r1, r5, lsr #21
 80a42cc:	ea4f 20c5 	mov.w	r0, r5, lsl #11
 80a42d0:	ea40 505e 	orr.w	r0, r0, lr, lsr #21
 80a42d4:	ea4f 2ece 	mov.w	lr, lr, lsl #11
 80a42d8:	f1b4 0cfd 	subs.w	ip, r4, #253	; 0xfd
 80a42dc:	bf88      	it	hi
 80a42de:	f5bc 6fe0 	cmphi.w	ip, #1792	; 0x700
 80a42e2:	d81e      	bhi.n	80a4322 <__aeabi_dmul+0xde>
 80a42e4:	f1be 4f00 	cmp.w	lr, #2147483648	; 0x80000000
 80a42e8:	bf08      	it	eq
 80a42ea:	ea5f 0e50 	movseq.w	lr, r0, lsr #1
 80a42ee:	f150 0000 	adcs.w	r0, r0, #0
 80a42f2:	eb41 5104 	adc.w	r1, r1, r4, lsl #20
 80a42f6:	bd70      	pop	{r4, r5, r6, pc}
 80a42f8:	f006 4600 	and.w	r6, r6, #2147483648	; 0x80000000
 80a42fc:	ea46 0101 	orr.w	r1, r6, r1
 80a4300:	ea40 0002 	orr.w	r0, r0, r2
 80a4304:	ea81 0103 	eor.w	r1, r1, r3
 80a4308:	ebb4 045c 	subs.w	r4, r4, ip, lsr #1
 80a430c:	bfc2      	ittt	gt
 80a430e:	ebd4 050c 	rsbsgt	r5, r4, ip
 80a4312:	ea41 5104 	orrgt.w	r1, r1, r4, lsl #20
 80a4316:	bd70      	popgt	{r4, r5, r6, pc}
 80a4318:	f441 1180 	orr.w	r1, r1, #1048576	; 0x100000
 80a431c:	f04f 0e00 	mov.w	lr, #0
 80a4320:	3c01      	subs	r4, #1
 80a4322:	f300 80ab 	bgt.w	80a447c <__aeabi_dmul+0x238>
 80a4326:	f114 0f36 	cmn.w	r4, #54	; 0x36
 80a432a:	bfde      	ittt	le
 80a432c:	2000      	movle	r0, #0
 80a432e:	f001 4100 	andle.w	r1, r1, #2147483648	; 0x80000000
 80a4332:	bd70      	pople	{r4, r5, r6, pc}
 80a4334:	f1c4 0400 	rsb	r4, r4, #0
 80a4338:	3c20      	subs	r4, #32
 80a433a:	da35      	bge.n	80a43a8 <__aeabi_dmul+0x164>
 80a433c:	340c      	adds	r4, #12
 80a433e:	dc1b      	bgt.n	80a4378 <__aeabi_dmul+0x134>
 80a4340:	f104 0414 	add.w	r4, r4, #20
 80a4344:	f1c4 0520 	rsb	r5, r4, #32
 80a4348:	fa00 f305 	lsl.w	r3, r0, r5
 80a434c:	fa20 f004 	lsr.w	r0, r0, r4
 80a4350:	fa01 f205 	lsl.w	r2, r1, r5
 80a4354:	ea40 0002 	orr.w	r0, r0, r2
 80a4358:	f001 4200 	and.w	r2, r1, #2147483648	; 0x80000000
 80a435c:	f021 4100 	bic.w	r1, r1, #2147483648	; 0x80000000
 80a4360:	eb10 70d3 	adds.w	r0, r0, r3, lsr #31
 80a4364:	fa21 f604 	lsr.w	r6, r1, r4
 80a4368:	eb42 0106 	adc.w	r1, r2, r6
 80a436c:	ea5e 0e43 	orrs.w	lr, lr, r3, lsl #1
 80a4370:	bf08      	it	eq
 80a4372:	ea20 70d3 	biceq.w	r0, r0, r3, lsr #31
 80a4376:	bd70      	pop	{r4, r5, r6, pc}
 80a4378:	f1c4 040c 	rsb	r4, r4, #12
 80a437c:	f1c4 0520 	rsb	r5, r4, #32
 80a4380:	fa00 f304 	lsl.w	r3, r0, r4
 80a4384:	fa20 f005 	lsr.w	r0, r0, r5
 80a4388:	fa01 f204 	lsl.w	r2, r1, r4
 80a438c:	ea40 0002 	orr.w	r0, r0, r2
 80a4390:	f001 4100 	and.w	r1, r1, #2147483648	; 0x80000000
 80a4394:	eb10 70d3 	adds.w	r0, r0, r3, lsr #31
 80a4398:	f141 0100 	adc.w	r1, r1, #0
 80a439c:	ea5e 0e43 	orrs.w	lr, lr, r3, lsl #1
 80a43a0:	bf08      	it	eq
 80a43a2:	ea20 70d3 	biceq.w	r0, r0, r3, lsr #31
 80a43a6:	bd70      	pop	{r4, r5, r6, pc}
 80a43a8:	f1c4 0520 	rsb	r5, r4, #32
 80a43ac:	fa00 f205 	lsl.w	r2, r0, r5
 80a43b0:	ea4e 0e02 	orr.w	lr, lr, r2
 80a43b4:	fa20 f304 	lsr.w	r3, r0, r4
 80a43b8:	fa01 f205 	lsl.w	r2, r1, r5
 80a43bc:	ea43 0302 	orr.w	r3, r3, r2
 80a43c0:	fa21 f004 	lsr.w	r0, r1, r4
 80a43c4:	f001 4100 	and.w	r1, r1, #2147483648	; 0x80000000
 80a43c8:	fa21 f204 	lsr.w	r2, r1, r4
 80a43cc:	ea20 0002 	bic.w	r0, r0, r2
 80a43d0:	eb00 70d3 	add.w	r0, r0, r3, lsr #31
 80a43d4:	ea5e 0e43 	orrs.w	lr, lr, r3, lsl #1
 80a43d8:	bf08      	it	eq
 80a43da:	ea20 70d3 	biceq.w	r0, r0, r3, lsr #31
 80a43de:	bd70      	pop	{r4, r5, r6, pc}
 80a43e0:	f094 0f00 	teq	r4, #0
 80a43e4:	d10f      	bne.n	80a4406 <__aeabi_dmul+0x1c2>
 80a43e6:	f001 4600 	and.w	r6, r1, #2147483648	; 0x80000000
 80a43ea:	0040      	lsls	r0, r0, #1
 80a43ec:	eb41 0101 	adc.w	r1, r1, r1
 80a43f0:	f411 1f80 	tst.w	r1, #1048576	; 0x100000
 80a43f4:	bf08      	it	eq
 80a43f6:	3c01      	subeq	r4, #1
 80a43f8:	d0f7      	beq.n	80a43ea <__aeabi_dmul+0x1a6>
 80a43fa:	ea41 0106 	orr.w	r1, r1, r6
 80a43fe:	f095 0f00 	teq	r5, #0
 80a4402:	bf18      	it	ne
 80a4404:	4770      	bxne	lr
 80a4406:	f003 4600 	and.w	r6, r3, #2147483648	; 0x80000000
 80a440a:	0052      	lsls	r2, r2, #1
 80a440c:	eb43 0303 	adc.w	r3, r3, r3
 80a4410:	f413 1f80 	tst.w	r3, #1048576	; 0x100000
 80a4414:	bf08      	it	eq
 80a4416:	3d01      	subeq	r5, #1
 80a4418:	d0f7      	beq.n	80a440a <__aeabi_dmul+0x1c6>
 80a441a:	ea43 0306 	orr.w	r3, r3, r6
 80a441e:	4770      	bx	lr
 80a4420:	ea94 0f0c 	teq	r4, ip
 80a4424:	ea0c 5513 	and.w	r5, ip, r3, lsr #20
 80a4428:	bf18      	it	ne
 80a442a:	ea95 0f0c 	teqne	r5, ip
 80a442e:	d00c      	beq.n	80a444a <__aeabi_dmul+0x206>
 80a4430:	ea50 0641 	orrs.w	r6, r0, r1, lsl #1
 80a4434:	bf18      	it	ne
 80a4436:	ea52 0643 	orrsne.w	r6, r2, r3, lsl #1
 80a443a:	d1d1      	bne.n	80a43e0 <__aeabi_dmul+0x19c>
 80a443c:	ea81 0103 	eor.w	r1, r1, r3
 80a4440:	f001 4100 	and.w	r1, r1, #2147483648	; 0x80000000
 80a4444:	f04f 0000 	mov.w	r0, #0
 80a4448:	bd70      	pop	{r4, r5, r6, pc}
 80a444a:	ea50 0641 	orrs.w	r6, r0, r1, lsl #1
 80a444e:	bf06      	itte	eq
 80a4450:	4610      	moveq	r0, r2
 80a4452:	4619      	moveq	r1, r3
 80a4454:	ea52 0643 	orrsne.w	r6, r2, r3, lsl #1
 80a4458:	d019      	beq.n	80a448e <__aeabi_dmul+0x24a>
 80a445a:	ea94 0f0c 	teq	r4, ip
 80a445e:	d102      	bne.n	80a4466 <__aeabi_dmul+0x222>
 80a4460:	ea50 3601 	orrs.w	r6, r0, r1, lsl #12
 80a4464:	d113      	bne.n	80a448e <__aeabi_dmul+0x24a>
 80a4466:	ea95 0f0c 	teq	r5, ip
 80a446a:	d105      	bne.n	80a4478 <__aeabi_dmul+0x234>
 80a446c:	ea52 3603 	orrs.w	r6, r2, r3, lsl #12
 80a4470:	bf1c      	itt	ne
 80a4472:	4610      	movne	r0, r2
 80a4474:	4619      	movne	r1, r3
 80a4476:	d10a      	bne.n	80a448e <__aeabi_dmul+0x24a>
 80a4478:	ea81 0103 	eor.w	r1, r1, r3
 80a447c:	f001 4100 	and.w	r1, r1, #2147483648	; 0x80000000
 80a4480:	f041 41fe 	orr.w	r1, r1, #2130706432	; 0x7f000000
 80a4484:	f441 0170 	orr.w	r1, r1, #15728640	; 0xf00000
 80a4488:	f04f 0000 	mov.w	r0, #0
 80a448c:	bd70      	pop	{r4, r5, r6, pc}
 80a448e:	f041 41fe 	orr.w	r1, r1, #2130706432	; 0x7f000000
 80a4492:	f441 0178 	orr.w	r1, r1, #16252928	; 0xf80000
 80a4496:	bd70      	pop	{r4, r5, r6, pc}

080a4498 <__aeabi_ddiv>:
 80a4498:	b570      	push	{r4, r5, r6, lr}
 80a449a:	f04f 0cff 	mov.w	ip, #255	; 0xff
 80a449e:	f44c 6ce0 	orr.w	ip, ip, #1792	; 0x700
 80a44a2:	ea1c 5411 	ands.w	r4, ip, r1, lsr #20
 80a44a6:	bf1d      	ittte	ne
 80a44a8:	ea1c 5513 	andsne.w	r5, ip, r3, lsr #20
 80a44ac:	ea94 0f0c 	teqne	r4, ip
 80a44b0:	ea95 0f0c 	teqne	r5, ip
 80a44b4:	f000 f8a7 	bleq	80a4606 <__aeabi_ddiv+0x16e>
 80a44b8:	eba4 0405 	sub.w	r4, r4, r5
 80a44bc:	ea81 0e03 	eor.w	lr, r1, r3
 80a44c0:	ea52 3503 	orrs.w	r5, r2, r3, lsl #12
 80a44c4:	ea4f 3101 	mov.w	r1, r1, lsl #12
 80a44c8:	f000 8088 	beq.w	80a45dc <__aeabi_ddiv+0x144>
 80a44cc:	ea4f 3303 	mov.w	r3, r3, lsl #12
 80a44d0:	f04f 5580 	mov.w	r5, #268435456	; 0x10000000
 80a44d4:	ea45 1313 	orr.w	r3, r5, r3, lsr #4
 80a44d8:	ea43 6312 	orr.w	r3, r3, r2, lsr #24
 80a44dc:	ea4f 2202 	mov.w	r2, r2, lsl #8
 80a44e0:	ea45 1511 	orr.w	r5, r5, r1, lsr #4
 80a44e4:	ea45 6510 	orr.w	r5, r5, r0, lsr #24
 80a44e8:	ea4f 2600 	mov.w	r6, r0, lsl #8
 80a44ec:	f00e 4100 	and.w	r1, lr, #2147483648	; 0x80000000
 80a44f0:	429d      	cmp	r5, r3
 80a44f2:	bf08      	it	eq
 80a44f4:	4296      	cmpeq	r6, r2
 80a44f6:	f144 04fd 	adc.w	r4, r4, #253	; 0xfd
 80a44fa:	f504 7440 	add.w	r4, r4, #768	; 0x300
 80a44fe:	d202      	bcs.n	80a4506 <__aeabi_ddiv+0x6e>
 80a4500:	085b      	lsrs	r3, r3, #1
 80a4502:	ea4f 0232 	mov.w	r2, r2, rrx
 80a4506:	1ab6      	subs	r6, r6, r2
 80a4508:	eb65 0503 	sbc.w	r5, r5, r3
 80a450c:	085b      	lsrs	r3, r3, #1
 80a450e:	ea4f 0232 	mov.w	r2, r2, rrx
 80a4512:	f44f 1080 	mov.w	r0, #1048576	; 0x100000
 80a4516:	f44f 2c00 	mov.w	ip, #524288	; 0x80000
 80a451a:	ebb6 0e02 	subs.w	lr, r6, r2
 80a451e:	eb75 0e03 	sbcs.w	lr, r5, r3
 80a4522:	bf22      	ittt	cs
 80a4524:	1ab6      	subcs	r6, r6, r2
 80a4526:	4675      	movcs	r5, lr
 80a4528:	ea40 000c 	orrcs.w	r0, r0, ip
 80a452c:	085b      	lsrs	r3, r3, #1
 80a452e:	ea4f 0232 	mov.w	r2, r2, rrx
 80a4532:	ebb6 0e02 	subs.w	lr, r6, r2
 80a4536:	eb75 0e03 	sbcs.w	lr, r5, r3
 80a453a:	bf22      	ittt	cs
 80a453c:	1ab6      	subcs	r6, r6, r2
 80a453e:	4675      	movcs	r5, lr
 80a4540:	ea40 005c 	orrcs.w	r0, r0, ip, lsr #1
 80a4544:	085b      	lsrs	r3, r3, #1
 80a4546:	ea4f 0232 	mov.w	r2, r2, rrx
 80a454a:	ebb6 0e02 	subs.w	lr, r6, r2
 80a454e:	eb75 0e03 	sbcs.w	lr, r5, r3
 80a4552:	bf22      	ittt	cs
 80a4554:	1ab6      	subcs	r6, r6, r2
 80a4556:	4675      	movcs	r5, lr
 80a4558:	ea40 009c 	orrcs.w	r0, r0, ip, lsr #2
 80a455c:	085b      	lsrs	r3, r3, #1
 80a455e:	ea4f 0232 	mov.w	r2, r2, rrx
 80a4562:	ebb6 0e02 	subs.w	lr, r6, r2
 80a4566:	eb75 0e03 	sbcs.w	lr, r5, r3
 80a456a:	bf22      	ittt	cs
 80a456c:	1ab6      	subcs	r6, r6, r2
 80a456e:	4675      	movcs	r5, lr
 80a4570:	ea40 00dc 	orrcs.w	r0, r0, ip, lsr #3
 80a4574:	ea55 0e06 	orrs.w	lr, r5, r6
 80a4578:	d018      	beq.n	80a45ac <__aeabi_ddiv+0x114>
 80a457a:	ea4f 1505 	mov.w	r5, r5, lsl #4
 80a457e:	ea45 7516 	orr.w	r5, r5, r6, lsr #28
 80a4582:	ea4f 1606 	mov.w	r6, r6, lsl #4
 80a4586:	ea4f 03c3 	mov.w	r3, r3, lsl #3
 80a458a:	ea43 7352 	orr.w	r3, r3, r2, lsr #29
 80a458e:	ea4f 02c2 	mov.w	r2, r2, lsl #3
 80a4592:	ea5f 1c1c 	movs.w	ip, ip, lsr #4
 80a4596:	d1c0      	bne.n	80a451a <__aeabi_ddiv+0x82>
 80a4598:	f411 1f80 	tst.w	r1, #1048576	; 0x100000
 80a459c:	d10b      	bne.n	80a45b6 <__aeabi_ddiv+0x11e>
 80a459e:	ea41 0100 	orr.w	r1, r1, r0
 80a45a2:	f04f 0000 	mov.w	r0, #0
 80a45a6:	f04f 4c00 	mov.w	ip, #2147483648	; 0x80000000
 80a45aa:	e7b6      	b.n	80a451a <__aeabi_ddiv+0x82>
 80a45ac:	f411 1f80 	tst.w	r1, #1048576	; 0x100000
 80a45b0:	bf04      	itt	eq
 80a45b2:	4301      	orreq	r1, r0
 80a45b4:	2000      	moveq	r0, #0
 80a45b6:	f1b4 0cfd 	subs.w	ip, r4, #253	; 0xfd
 80a45ba:	bf88      	it	hi
 80a45bc:	f5bc 6fe0 	cmphi.w	ip, #1792	; 0x700
 80a45c0:	f63f aeaf 	bhi.w	80a4322 <__aeabi_dmul+0xde>
 80a45c4:	ebb5 0c03 	subs.w	ip, r5, r3
 80a45c8:	bf04      	itt	eq
 80a45ca:	ebb6 0c02 	subseq.w	ip, r6, r2
 80a45ce:	ea5f 0c50 	movseq.w	ip, r0, lsr #1
 80a45d2:	f150 0000 	adcs.w	r0, r0, #0
 80a45d6:	eb41 5104 	adc.w	r1, r1, r4, lsl #20
 80a45da:	bd70      	pop	{r4, r5, r6, pc}
 80a45dc:	f00e 4e00 	and.w	lr, lr, #2147483648	; 0x80000000
 80a45e0:	ea4e 3111 	orr.w	r1, lr, r1, lsr #12
 80a45e4:	eb14 045c 	adds.w	r4, r4, ip, lsr #1
 80a45e8:	bfc2      	ittt	gt
 80a45ea:	ebd4 050c 	rsbsgt	r5, r4, ip
 80a45ee:	ea41 5104 	orrgt.w	r1, r1, r4, lsl #20
 80a45f2:	bd70      	popgt	{r4, r5, r6, pc}
 80a45f4:	f441 1180 	orr.w	r1, r1, #1048576	; 0x100000
 80a45f8:	f04f 0e00 	mov.w	lr, #0
 80a45fc:	3c01      	subs	r4, #1
 80a45fe:	e690      	b.n	80a4322 <__aeabi_dmul+0xde>
 80a4600:	ea45 0e06 	orr.w	lr, r5, r6
 80a4604:	e68d      	b.n	80a4322 <__aeabi_dmul+0xde>
 80a4606:	ea0c 5513 	and.w	r5, ip, r3, lsr #20
 80a460a:	ea94 0f0c 	teq	r4, ip
 80a460e:	bf08      	it	eq
 80a4610:	ea95 0f0c 	teqeq	r5, ip
 80a4614:	f43f af3b 	beq.w	80a448e <__aeabi_dmul+0x24a>
 80a4618:	ea94 0f0c 	teq	r4, ip
 80a461c:	d10a      	bne.n	80a4634 <__aeabi_ddiv+0x19c>
 80a461e:	ea50 3401 	orrs.w	r4, r0, r1, lsl #12
 80a4622:	f47f af34 	bne.w	80a448e <__aeabi_dmul+0x24a>
 80a4626:	ea95 0f0c 	teq	r5, ip
 80a462a:	f47f af25 	bne.w	80a4478 <__aeabi_dmul+0x234>
 80a462e:	4610      	mov	r0, r2
 80a4630:	4619      	mov	r1, r3
 80a4632:	e72c      	b.n	80a448e <__aeabi_dmul+0x24a>
 80a4634:	ea95 0f0c 	teq	r5, ip
 80a4638:	d106      	bne.n	80a4648 <__aeabi_ddiv+0x1b0>
 80a463a:	ea52 3503 	orrs.w	r5, r2, r3, lsl #12
 80a463e:	f43f aefd 	beq.w	80a443c <__aeabi_dmul+0x1f8>
 80a4642:	4610      	mov	r0, r2
 80a4644:	4619      	mov	r1, r3
 80a4646:	e722      	b.n	80a448e <__aeabi_dmul+0x24a>
 80a4648:	ea50 0641 	orrs.w	r6, r0, r1, lsl #1
 80a464c:	bf18      	it	ne
 80a464e:	ea52 0643 	orrsne.w	r6, r2, r3, lsl #1
 80a4652:	f47f aec5 	bne.w	80a43e0 <__aeabi_dmul+0x19c>
 80a4656:	ea50 0441 	orrs.w	r4, r0, r1, lsl #1
 80a465a:	f47f af0d 	bne.w	80a4478 <__aeabi_dmul+0x234>
 80a465e:	ea52 0543 	orrs.w	r5, r2, r3, lsl #1
 80a4662:	f47f aeeb 	bne.w	80a443c <__aeabi_dmul+0x1f8>
 80a4666:	e712      	b.n	80a448e <__aeabi_dmul+0x24a>

080a4668 <__gedf2>:
 80a4668:	f04f 3cff 	mov.w	ip, #4294967295
 80a466c:	e006      	b.n	80a467c <__cmpdf2+0x4>
 80a466e:	bf00      	nop

080a4670 <__ledf2>:
 80a4670:	f04f 0c01 	mov.w	ip, #1
 80a4674:	e002      	b.n	80a467c <__cmpdf2+0x4>
 80a4676:	bf00      	nop

080a4678 <__cmpdf2>:
 80a4678:	f04f 0c01 	mov.w	ip, #1
 80a467c:	f84d cd04 	str.w	ip, [sp, #-4]!
 80a4680:	ea4f 0c41 	mov.w	ip, r1, lsl #1
 80a4684:	ea7f 5c6c 	mvns.w	ip, ip, asr #21
 80a4688:	ea4f 0c43 	mov.w	ip, r3, lsl #1
 80a468c:	bf18      	it	ne
 80a468e:	ea7f 5c6c 	mvnsne.w	ip, ip, asr #21
 80a4692:	d01b      	beq.n	80a46cc <__cmpdf2+0x54>
 80a4694:	b001      	add	sp, #4
 80a4696:	ea50 0c41 	orrs.w	ip, r0, r1, lsl #1
 80a469a:	bf0c      	ite	eq
 80a469c:	ea52 0c43 	orrseq.w	ip, r2, r3, lsl #1
 80a46a0:	ea91 0f03 	teqne	r1, r3
 80a46a4:	bf02      	ittt	eq
 80a46a6:	ea90 0f02 	teqeq	r0, r2
 80a46aa:	2000      	moveq	r0, #0
 80a46ac:	4770      	bxeq	lr
 80a46ae:	f110 0f00 	cmn.w	r0, #0
 80a46b2:	ea91 0f03 	teq	r1, r3
 80a46b6:	bf58      	it	pl
 80a46b8:	4299      	cmppl	r1, r3
 80a46ba:	bf08      	it	eq
 80a46bc:	4290      	cmpeq	r0, r2
 80a46be:	bf2c      	ite	cs
 80a46c0:	17d8      	asrcs	r0, r3, #31
 80a46c2:	ea6f 70e3 	mvncc.w	r0, r3, asr #31
 80a46c6:	f040 0001 	orr.w	r0, r0, #1
 80a46ca:	4770      	bx	lr
 80a46cc:	ea4f 0c41 	mov.w	ip, r1, lsl #1
 80a46d0:	ea7f 5c6c 	mvns.w	ip, ip, asr #21
 80a46d4:	d102      	bne.n	80a46dc <__cmpdf2+0x64>
 80a46d6:	ea50 3c01 	orrs.w	ip, r0, r1, lsl #12
 80a46da:	d107      	bne.n	80a46ec <__cmpdf2+0x74>
 80a46dc:	ea4f 0c43 	mov.w	ip, r3, lsl #1
 80a46e0:	ea7f 5c6c 	mvns.w	ip, ip, asr #21
 80a46e4:	d1d6      	bne.n	80a4694 <__cmpdf2+0x1c>
 80a46e6:	ea52 3c03 	orrs.w	ip, r2, r3, lsl #12
 80a46ea:	d0d3      	beq.n	80a4694 <__cmpdf2+0x1c>
 80a46ec:	f85d 0b04 	ldr.w	r0, [sp], #4
 80a46f0:	4770      	bx	lr
 80a46f2:	bf00      	nop

080a46f4 <__aeabi_cdrcmple>:
 80a46f4:	4684      	mov	ip, r0
 80a46f6:	4610      	mov	r0, r2
 80a46f8:	4662      	mov	r2, ip
 80a46fa:	468c      	mov	ip, r1
 80a46fc:	4619      	mov	r1, r3
 80a46fe:	4663      	mov	r3, ip
 80a4700:	e000      	b.n	80a4704 <__aeabi_cdcmpeq>
 80a4702:	bf00      	nop

080a4704 <__aeabi_cdcmpeq>:
 80a4704:	b501      	push	{r0, lr}
 80a4706:	f7ff ffb7 	bl	80a4678 <__cmpdf2>
 80a470a:	2800      	cmp	r0, #0
 80a470c:	bf48      	it	mi
 80a470e:	f110 0f00 	cmnmi.w	r0, #0
 80a4712:	bd01      	pop	{r0, pc}

080a4714 <__aeabi_dcmpeq>:
 80a4714:	f84d ed08 	str.w	lr, [sp, #-8]!
 80a4718:	f7ff fff4 	bl	80a4704 <__aeabi_cdcmpeq>
 80a471c:	bf0c      	ite	eq
 80a471e:	2001      	moveq	r0, #1
 80a4720:	2000      	movne	r0, #0
 80a4722:	f85d fb08 	ldr.w	pc, [sp], #8
 80a4726:	bf00      	nop

080a4728 <__aeabi_dcmplt>:
 80a4728:	f84d ed08 	str.w	lr, [sp, #-8]!
 80a472c:	f7ff ffea 	bl	80a4704 <__aeabi_cdcmpeq>
 80a4730:	bf34      	ite	cc
 80a4732:	2001      	movcc	r0, #1
 80a4734:	2000      	movcs	r0, #0
 80a4736:	f85d fb08 	ldr.w	pc, [sp], #8
 80a473a:	bf00      	nop

080a473c <__aeabi_dcmple>:
 80a473c:	f84d ed08 	str.w	lr, [sp, #-8]!
 80a4740:	f7ff ffe0 	bl	80a4704 <__aeabi_cdcmpeq>
 80a4744:	bf94      	ite	ls
 80a4746:	2001      	movls	r0, #1
 80a4748:	2000      	movhi	r0, #0
 80a474a:	f85d fb08 	ldr.w	pc, [sp], #8
 80a474e:	bf00      	nop

080a4750 <__aeabi_dcmpge>:
 80a4750:	f84d ed08 	str.w	lr, [sp, #-8]!
 80a4754:	f7ff ffce 	bl	80a46f4 <__aeabi_cdrcmple>
 80a4758:	bf94      	ite	ls
 80a475a:	2001      	movls	r0, #1
 80a475c:	2000      	movhi	r0, #0
 80a475e:	f85d fb08 	ldr.w	pc, [sp], #8
 80a4762:	bf00      	nop

080a4764 <__aeabi_dcmpgt>:
 80a4764:	f84d ed08 	str.w	lr, [sp, #-8]!
 80a4768:	f7ff ffc4 	bl	80a46f4 <__aeabi_cdrcmple>
 80a476c:	bf34      	ite	cc
 80a476e:	2001      	movcc	r0, #1
 80a4770:	2000      	movcs	r0, #0
 80a4772:	f85d fb08 	ldr.w	pc, [sp], #8
 80a4776:	bf00      	nop

080a4778 <__aeabi_dcmpun>:
 80a4778:	ea4f 0c41 	mov.w	ip, r1, lsl #1
 80a477c:	ea7f 5c6c 	mvns.w	ip, ip, asr #21
 80a4780:	d102      	bne.n	80a4788 <__aeabi_dcmpun+0x10>
 80a4782:	ea50 3c01 	orrs.w	ip, r0, r1, lsl #12
 80a4786:	d10a      	bne.n	80a479e <__aeabi_dcmpun+0x26>
 80a4788:	ea4f 0c43 	mov.w	ip, r3, lsl #1
 80a478c:	ea7f 5c6c 	mvns.w	ip, ip, asr #21
 80a4790:	d102      	bne.n	80a4798 <__aeabi_dcmpun+0x20>
 80a4792:	ea52 3c03 	orrs.w	ip, r2, r3, lsl #12
 80a4796:	d102      	bne.n	80a479e <__aeabi_dcmpun+0x26>
 80a4798:	f04f 0000 	mov.w	r0, #0
 80a479c:	4770      	bx	lr
 80a479e:	f04f 0001 	mov.w	r0, #1
 80a47a2:	4770      	bx	lr

080a47a4 <__aeabi_d2iz>:
 80a47a4:	ea4f 0241 	mov.w	r2, r1, lsl #1
 80a47a8:	f512 1200 	adds.w	r2, r2, #2097152	; 0x200000
 80a47ac:	d215      	bcs.n	80a47da <__aeabi_d2iz+0x36>
 80a47ae:	d511      	bpl.n	80a47d4 <__aeabi_d2iz+0x30>
 80a47b0:	f46f 7378 	mvn.w	r3, #992	; 0x3e0
 80a47b4:	ebb3 5262 	subs.w	r2, r3, r2, asr #21
 80a47b8:	d912      	bls.n	80a47e0 <__aeabi_d2iz+0x3c>
 80a47ba:	ea4f 23c1 	mov.w	r3, r1, lsl #11
 80a47be:	f043 4300 	orr.w	r3, r3, #2147483648	; 0x80000000
 80a47c2:	ea43 5350 	orr.w	r3, r3, r0, lsr #21
 80a47c6:	f011 4f00 	tst.w	r1, #2147483648	; 0x80000000
 80a47ca:	fa23 f002 	lsr.w	r0, r3, r2
 80a47ce:	bf18      	it	ne
 80a47d0:	4240      	negne	r0, r0
 80a47d2:	4770      	bx	lr
 80a47d4:	f04f 0000 	mov.w	r0, #0
 80a47d8:	4770      	bx	lr
 80a47da:	ea50 3001 	orrs.w	r0, r0, r1, lsl #12
 80a47de:	d105      	bne.n	80a47ec <__aeabi_d2iz+0x48>
 80a47e0:	f011 4000 	ands.w	r0, r1, #2147483648	; 0x80000000
 80a47e4:	bf08      	it	eq
 80a47e6:	f06f 4000 	mvneq.w	r0, #2147483648	; 0x80000000
 80a47ea:	4770      	bx	lr
 80a47ec:	f04f 0000 	mov.w	r0, #0
 80a47f0:	4770      	bx	lr
 80a47f2:	bf00      	nop

080a47f4 <__aeabi_d2uiz>:
 80a47f4:	004a      	lsls	r2, r1, #1
 80a47f6:	d211      	bcs.n	80a481c <__aeabi_d2uiz+0x28>
 80a47f8:	f512 1200 	adds.w	r2, r2, #2097152	; 0x200000
 80a47fc:	d211      	bcs.n	80a4822 <__aeabi_d2uiz+0x2e>
 80a47fe:	d50d      	bpl.n	80a481c <__aeabi_d2uiz+0x28>
 80a4800:	f46f 7378 	mvn.w	r3, #992	; 0x3e0
 80a4804:	ebb3 5262 	subs.w	r2, r3, r2, asr #21
 80a4808:	d40e      	bmi.n	80a4828 <__aeabi_d2uiz+0x34>
 80a480a:	ea4f 23c1 	mov.w	r3, r1, lsl #11
 80a480e:	f043 4300 	orr.w	r3, r3, #2147483648	; 0x80000000
 80a4812:	ea43 5350 	orr.w	r3, r3, r0, lsr #21
 80a4816:	fa23 f002 	lsr.w	r0, r3, r2
 80a481a:	4770      	bx	lr
 80a481c:	f04f 0000 	mov.w	r0, #0
 80a4820:	4770      	bx	lr
 80a4822:	ea50 3001 	orrs.w	r0, r0, r1, lsl #12
 80a4826:	d102      	bne.n	80a482e <__aeabi_d2uiz+0x3a>
 80a4828:	f04f 30ff 	mov.w	r0, #4294967295
 80a482c:	4770      	bx	lr
 80a482e:	f04f 0000 	mov.w	r0, #0
 80a4832:	4770      	bx	lr

080a4834 <__aeabi_d2f>:
 80a4834:	ea4f 0241 	mov.w	r2, r1, lsl #1
 80a4838:	f1b2 43e0 	subs.w	r3, r2, #1879048192	; 0x70000000
 80a483c:	bf24      	itt	cs
 80a483e:	f5b3 1c00 	subscs.w	ip, r3, #2097152	; 0x200000
 80a4842:	f1dc 5cfe 	rsbscs	ip, ip, #532676608	; 0x1fc00000
 80a4846:	d90d      	bls.n	80a4864 <__aeabi_d2f+0x30>
 80a4848:	f001 4c00 	and.w	ip, r1, #2147483648	; 0x80000000
 80a484c:	ea4f 02c0 	mov.w	r2, r0, lsl #3
 80a4850:	ea4c 7050 	orr.w	r0, ip, r0, lsr #29
 80a4854:	f1b2 4f00 	cmp.w	r2, #2147483648	; 0x80000000
 80a4858:	eb40 0083 	adc.w	r0, r0, r3, lsl #2
 80a485c:	bf08      	it	eq
 80a485e:	f020 0001 	biceq.w	r0, r0, #1
 80a4862:	4770      	bx	lr
 80a4864:	f011 4f80 	tst.w	r1, #1073741824	; 0x40000000
 80a4868:	d121      	bne.n	80a48ae <__aeabi_d2f+0x7a>
 80a486a:	f113 7238 	adds.w	r2, r3, #48234496	; 0x2e00000
 80a486e:	bfbc      	itt	lt
 80a4870:	f001 4000 	andlt.w	r0, r1, #2147483648	; 0x80000000
 80a4874:	4770      	bxlt	lr
 80a4876:	f441 1180 	orr.w	r1, r1, #1048576	; 0x100000
 80a487a:	ea4f 5252 	mov.w	r2, r2, lsr #21
 80a487e:	f1c2 0218 	rsb	r2, r2, #24
 80a4882:	f1c2 0c20 	rsb	ip, r2, #32
 80a4886:	fa10 f30c 	lsls.w	r3, r0, ip
 80a488a:	fa20 f002 	lsr.w	r0, r0, r2
 80a488e:	bf18      	it	ne
 80a4890:	f040 0001 	orrne.w	r0, r0, #1
 80a4894:	ea4f 23c1 	mov.w	r3, r1, lsl #11
 80a4898:	ea4f 23d3 	mov.w	r3, r3, lsr #11
 80a489c:	fa03 fc0c 	lsl.w	ip, r3, ip
 80a48a0:	ea40 000c 	orr.w	r0, r0, ip
 80a48a4:	fa23 f302 	lsr.w	r3, r3, r2
 80a48a8:	ea4f 0343 	mov.w	r3, r3, lsl #1
 80a48ac:	e7cc      	b.n	80a4848 <__aeabi_d2f+0x14>
 80a48ae:	ea7f 5362 	mvns.w	r3, r2, asr #21
 80a48b2:	d107      	bne.n	80a48c4 <__aeabi_d2f+0x90>
 80a48b4:	ea50 3301 	orrs.w	r3, r0, r1, lsl #12
 80a48b8:	bf1e      	ittt	ne
 80a48ba:	f04f 40fe 	movne.w	r0, #2130706432	; 0x7f000000
 80a48be:	f440 0040 	orrne.w	r0, r0, #12582912	; 0xc00000
 80a48c2:	4770      	bxne	lr
 80a48c4:	f001 4000 	and.w	r0, r1, #2147483648	; 0x80000000
 80a48c8:	f040 40fe 	orr.w	r0, r0, #2130706432	; 0x7f000000
 80a48cc:	f440 0000 	orr.w	r0, r0, #8388608	; 0x800000
 80a48d0:	4770      	bx	lr
 80a48d2:	bf00      	nop

080a48d4 <__aeabi_frsub>:
 80a48d4:	f080 4000 	eor.w	r0, r0, #2147483648	; 0x80000000
 80a48d8:	e002      	b.n	80a48e0 <__addsf3>
 80a48da:	bf00      	nop

080a48dc <__aeabi_fsub>:
 80a48dc:	f081 4100 	eor.w	r1, r1, #2147483648	; 0x80000000

080a48e0 <__addsf3>:
 80a48e0:	0042      	lsls	r2, r0, #1
 80a48e2:	bf1f      	itttt	ne
 80a48e4:	ea5f 0341 	movsne.w	r3, r1, lsl #1
 80a48e8:	ea92 0f03 	teqne	r2, r3
 80a48ec:	ea7f 6c22 	mvnsne.w	ip, r2, asr #24
 80a48f0:	ea7f 6c23 	mvnsne.w	ip, r3, asr #24
 80a48f4:	d06a      	beq.n	80a49cc <__addsf3+0xec>
 80a48f6:	ea4f 6212 	mov.w	r2, r2, lsr #24
 80a48fa:	ebd2 6313 	rsbs	r3, r2, r3, lsr #24
 80a48fe:	bfc1      	itttt	gt
 80a4900:	18d2      	addgt	r2, r2, r3
 80a4902:	4041      	eorgt	r1, r0
 80a4904:	4048      	eorgt	r0, r1
 80a4906:	4041      	eorgt	r1, r0
 80a4908:	bfb8      	it	lt
 80a490a:	425b      	neglt	r3, r3
 80a490c:	2b19      	cmp	r3, #25
 80a490e:	bf88      	it	hi
 80a4910:	4770      	bxhi	lr
 80a4912:	f010 4f00 	tst.w	r0, #2147483648	; 0x80000000
 80a4916:	f440 0000 	orr.w	r0, r0, #8388608	; 0x800000
 80a491a:	f020 407f 	bic.w	r0, r0, #4278190080	; 0xff000000
 80a491e:	bf18      	it	ne
 80a4920:	4240      	negne	r0, r0
 80a4922:	f011 4f00 	tst.w	r1, #2147483648	; 0x80000000
 80a4926:	f441 0100 	orr.w	r1, r1, #8388608	; 0x800000
 80a492a:	f021 417f 	bic.w	r1, r1, #4278190080	; 0xff000000
 80a492e:	bf18      	it	ne
 80a4930:	4249      	negne	r1, r1
 80a4932:	ea92 0f03 	teq	r2, r3
 80a4936:	d03f      	beq.n	80a49b8 <__addsf3+0xd8>
 80a4938:	f1a2 0201 	sub.w	r2, r2, #1
 80a493c:	fa41 fc03 	asr.w	ip, r1, r3
 80a4940:	eb10 000c 	adds.w	r0, r0, ip
 80a4944:	f1c3 0320 	rsb	r3, r3, #32
 80a4948:	fa01 f103 	lsl.w	r1, r1, r3
 80a494c:	f000 4300 	and.w	r3, r0, #2147483648	; 0x80000000
 80a4950:	d502      	bpl.n	80a4958 <__addsf3+0x78>
 80a4952:	4249      	negs	r1, r1
 80a4954:	eb60 0040 	sbc.w	r0, r0, r0, lsl #1
 80a4958:	f5b0 0f00 	cmp.w	r0, #8388608	; 0x800000
 80a495c:	d313      	bcc.n	80a4986 <__addsf3+0xa6>
 80a495e:	f1b0 7f80 	cmp.w	r0, #16777216	; 0x1000000
 80a4962:	d306      	bcc.n	80a4972 <__addsf3+0x92>
 80a4964:	0840      	lsrs	r0, r0, #1
 80a4966:	ea4f 0131 	mov.w	r1, r1, rrx
 80a496a:	f102 0201 	add.w	r2, r2, #1
 80a496e:	2afe      	cmp	r2, #254	; 0xfe
 80a4970:	d251      	bcs.n	80a4a16 <__addsf3+0x136>
 80a4972:	f1b1 4f00 	cmp.w	r1, #2147483648	; 0x80000000
 80a4976:	eb40 50c2 	adc.w	r0, r0, r2, lsl #23
 80a497a:	bf08      	it	eq
 80a497c:	f020 0001 	biceq.w	r0, r0, #1
 80a4980:	ea40 0003 	orr.w	r0, r0, r3
 80a4984:	4770      	bx	lr
 80a4986:	0049      	lsls	r1, r1, #1
 80a4988:	eb40 0000 	adc.w	r0, r0, r0
 80a498c:	f410 0f00 	tst.w	r0, #8388608	; 0x800000
 80a4990:	f1a2 0201 	sub.w	r2, r2, #1
 80a4994:	d1ed      	bne.n	80a4972 <__addsf3+0x92>
 80a4996:	fab0 fc80 	clz	ip, r0
 80a499a:	f1ac 0c08 	sub.w	ip, ip, #8
 80a499e:	ebb2 020c 	subs.w	r2, r2, ip
 80a49a2:	fa00 f00c 	lsl.w	r0, r0, ip
 80a49a6:	bfaa      	itet	ge
 80a49a8:	eb00 50c2 	addge.w	r0, r0, r2, lsl #23
 80a49ac:	4252      	neglt	r2, r2
 80a49ae:	4318      	orrge	r0, r3
 80a49b0:	bfbc      	itt	lt
 80a49b2:	40d0      	lsrlt	r0, r2
 80a49b4:	4318      	orrlt	r0, r3
 80a49b6:	4770      	bx	lr
 80a49b8:	f092 0f00 	teq	r2, #0
 80a49bc:	f481 0100 	eor.w	r1, r1, #8388608	; 0x800000
 80a49c0:	bf06      	itte	eq
 80a49c2:	f480 0000 	eoreq.w	r0, r0, #8388608	; 0x800000
 80a49c6:	3201      	addeq	r2, #1
 80a49c8:	3b01      	subne	r3, #1
 80a49ca:	e7b5      	b.n	80a4938 <__addsf3+0x58>
 80a49cc:	ea4f 0341 	mov.w	r3, r1, lsl #1
 80a49d0:	ea7f 6c22 	mvns.w	ip, r2, asr #24
 80a49d4:	bf18      	it	ne
 80a49d6:	ea7f 6c23 	mvnsne.w	ip, r3, asr #24
 80a49da:	d021      	beq.n	80a4a20 <__addsf3+0x140>
 80a49dc:	ea92 0f03 	teq	r2, r3
 80a49e0:	d004      	beq.n	80a49ec <__addsf3+0x10c>
 80a49e2:	f092 0f00 	teq	r2, #0
 80a49e6:	bf08      	it	eq
 80a49e8:	4608      	moveq	r0, r1
 80a49ea:	4770      	bx	lr
 80a49ec:	ea90 0f01 	teq	r0, r1
 80a49f0:	bf1c      	itt	ne
 80a49f2:	2000      	movne	r0, #0
 80a49f4:	4770      	bxne	lr
 80a49f6:	f012 4f7f 	tst.w	r2, #4278190080	; 0xff000000
 80a49fa:	d104      	bne.n	80a4a06 <__addsf3+0x126>
 80a49fc:	0040      	lsls	r0, r0, #1
 80a49fe:	bf28      	it	cs
 80a4a00:	f040 4000 	orrcs.w	r0, r0, #2147483648	; 0x80000000
 80a4a04:	4770      	bx	lr
 80a4a06:	f112 7200 	adds.w	r2, r2, #33554432	; 0x2000000
 80a4a0a:	bf3c      	itt	cc
 80a4a0c:	f500 0000 	addcc.w	r0, r0, #8388608	; 0x800000
 80a4a10:	4770      	bxcc	lr
 80a4a12:	f000 4300 	and.w	r3, r0, #2147483648	; 0x80000000
 80a4a16:	f043 40fe 	orr.w	r0, r3, #2130706432	; 0x7f000000
 80a4a1a:	f440 0000 	orr.w	r0, r0, #8388608	; 0x800000
 80a4a1e:	4770      	bx	lr
 80a4a20:	ea7f 6222 	mvns.w	r2, r2, asr #24
 80a4a24:	bf16      	itet	ne
 80a4a26:	4608      	movne	r0, r1
 80a4a28:	ea7f 6323 	mvnseq.w	r3, r3, asr #24
 80a4a2c:	4601      	movne	r1, r0
 80a4a2e:	0242      	lsls	r2, r0, #9
 80a4a30:	bf06      	itte	eq
 80a4a32:	ea5f 2341 	movseq.w	r3, r1, lsl #9
 80a4a36:	ea90 0f01 	teqeq	r0, r1
 80a4a3a:	f440 0080 	orrne.w	r0, r0, #4194304	; 0x400000
 80a4a3e:	4770      	bx	lr

080a4a40 <__aeabi_ui2f>:
 80a4a40:	f04f 0300 	mov.w	r3, #0
 80a4a44:	e004      	b.n	80a4a50 <__aeabi_i2f+0x8>
 80a4a46:	bf00      	nop

080a4a48 <__aeabi_i2f>:
 80a4a48:	f010 4300 	ands.w	r3, r0, #2147483648	; 0x80000000
 80a4a4c:	bf48      	it	mi
 80a4a4e:	4240      	negmi	r0, r0
 80a4a50:	ea5f 0c00 	movs.w	ip, r0
 80a4a54:	bf08      	it	eq
 80a4a56:	4770      	bxeq	lr
 80a4a58:	f043 4396 	orr.w	r3, r3, #1258291200	; 0x4b000000
 80a4a5c:	4601      	mov	r1, r0
 80a4a5e:	f04f 0000 	mov.w	r0, #0
 80a4a62:	e01c      	b.n	80a4a9e <__aeabi_l2f+0x2a>

080a4a64 <__aeabi_ul2f>:
 80a4a64:	ea50 0201 	orrs.w	r2, r0, r1
 80a4a68:	bf08      	it	eq
 80a4a6a:	4770      	bxeq	lr
 80a4a6c:	f04f 0300 	mov.w	r3, #0
 80a4a70:	e00a      	b.n	80a4a88 <__aeabi_l2f+0x14>
 80a4a72:	bf00      	nop

080a4a74 <__aeabi_l2f>:
 80a4a74:	ea50 0201 	orrs.w	r2, r0, r1
 80a4a78:	bf08      	it	eq
 80a4a7a:	4770      	bxeq	lr
 80a4a7c:	f011 4300 	ands.w	r3, r1, #2147483648	; 0x80000000
 80a4a80:	d502      	bpl.n	80a4a88 <__aeabi_l2f+0x14>
 80a4a82:	4240      	negs	r0, r0
 80a4a84:	eb61 0141 	sbc.w	r1, r1, r1, lsl #1
 80a4a88:	ea5f 0c01 	movs.w	ip, r1
 80a4a8c:	bf02      	ittt	eq
 80a4a8e:	4684      	moveq	ip, r0
 80a4a90:	4601      	moveq	r1, r0
 80a4a92:	2000      	moveq	r0, #0
 80a4a94:	f043 43b6 	orr.w	r3, r3, #1526726656	; 0x5b000000
 80a4a98:	bf08      	it	eq
 80a4a9a:	f1a3 5380 	subeq.w	r3, r3, #268435456	; 0x10000000
 80a4a9e:	f5a3 0300 	sub.w	r3, r3, #8388608	; 0x800000
 80a4aa2:	fabc f28c 	clz	r2, ip
 80a4aa6:	3a08      	subs	r2, #8
 80a4aa8:	eba3 53c2 	sub.w	r3, r3, r2, lsl #23
 80a4aac:	db10      	blt.n	80a4ad0 <__aeabi_l2f+0x5c>
 80a4aae:	fa01 fc02 	lsl.w	ip, r1, r2
 80a4ab2:	4463      	add	r3, ip
 80a4ab4:	fa00 fc02 	lsl.w	ip, r0, r2
 80a4ab8:	f1c2 0220 	rsb	r2, r2, #32
 80a4abc:	f1bc 4f00 	cmp.w	ip, #2147483648	; 0x80000000
 80a4ac0:	fa20 f202 	lsr.w	r2, r0, r2
 80a4ac4:	eb43 0002 	adc.w	r0, r3, r2
 80a4ac8:	bf08      	it	eq
 80a4aca:	f020 0001 	biceq.w	r0, r0, #1
 80a4ace:	4770      	bx	lr
 80a4ad0:	f102 0220 	add.w	r2, r2, #32
 80a4ad4:	fa01 fc02 	lsl.w	ip, r1, r2
 80a4ad8:	f1c2 0220 	rsb	r2, r2, #32
 80a4adc:	ea50 004c 	orrs.w	r0, r0, ip, lsl #1
 80a4ae0:	fa21 f202 	lsr.w	r2, r1, r2
 80a4ae4:	eb43 0002 	adc.w	r0, r3, r2
 80a4ae8:	bf08      	it	eq
 80a4aea:	ea20 70dc 	biceq.w	r0, r0, ip, lsr #31
 80a4aee:	4770      	bx	lr

080a4af0 <__cxa_atexit>:
 80a4af0:	b510      	push	{r4, lr}
 80a4af2:	4c05      	ldr	r4, [pc, #20]	; (80a4b08 <__cxa_atexit+0x18>)
 80a4af4:	4613      	mov	r3, r2
 80a4af6:	b12c      	cbz	r4, 80a4b04 <__cxa_atexit+0x14>
 80a4af8:	460a      	mov	r2, r1
 80a4afa:	4601      	mov	r1, r0
 80a4afc:	2002      	movs	r0, #2
 80a4afe:	f3af 8000 	nop.w
 80a4b02:	bd10      	pop	{r4, pc}
 80a4b04:	4620      	mov	r0, r4
 80a4b06:	bd10      	pop	{r4, pc}
 80a4b08:	00000000 	.word	0x00000000

080a4b0c <memcpy>:
 80a4b0c:	b510      	push	{r4, lr}
 80a4b0e:	1e43      	subs	r3, r0, #1
 80a4b10:	440a      	add	r2, r1
 80a4b12:	4291      	cmp	r1, r2
 80a4b14:	d004      	beq.n	80a4b20 <memcpy+0x14>
 80a4b16:	f811 4b01 	ldrb.w	r4, [r1], #1
 80a4b1a:	f803 4f01 	strb.w	r4, [r3, #1]!
 80a4b1e:	e7f8      	b.n	80a4b12 <memcpy+0x6>
 80a4b20:	bd10      	pop	{r4, pc}

080a4b22 <memset>:
 80a4b22:	4603      	mov	r3, r0
 80a4b24:	4402      	add	r2, r0
 80a4b26:	4293      	cmp	r3, r2
 80a4b28:	d002      	beq.n	80a4b30 <memset+0xe>
 80a4b2a:	f803 1b01 	strb.w	r1, [r3], #1
 80a4b2e:	e7fa      	b.n	80a4b26 <memset+0x4>
 80a4b30:	4770      	bx	lr
	...

080a4b34 <srand>:
 80a4b34:	b538      	push	{r3, r4, r5, lr}
 80a4b36:	4b12      	ldr	r3, [pc, #72]	; (80a4b80 <srand+0x4c>)
 80a4b38:	4605      	mov	r5, r0
 80a4b3a:	681c      	ldr	r4, [r3, #0]
 80a4b3c:	6ba3      	ldr	r3, [r4, #56]	; 0x38
 80a4b3e:	b9d3      	cbnz	r3, 80a4b76 <srand+0x42>
 80a4b40:	2018      	movs	r0, #24
 80a4b42:	f7fd fdab 	bl	80a269c <malloc>
 80a4b46:	f243 330e 	movw	r3, #13070	; 0x330e
 80a4b4a:	63a0      	str	r0, [r4, #56]	; 0x38
 80a4b4c:	8003      	strh	r3, [r0, #0]
 80a4b4e:	f64a 33cd 	movw	r3, #43981	; 0xabcd
 80a4b52:	8043      	strh	r3, [r0, #2]
 80a4b54:	f241 2334 	movw	r3, #4660	; 0x1234
 80a4b58:	8083      	strh	r3, [r0, #4]
 80a4b5a:	f24e 636d 	movw	r3, #58989	; 0xe66d
 80a4b5e:	80c3      	strh	r3, [r0, #6]
 80a4b60:	f64d 63ec 	movw	r3, #57068	; 0xdeec
 80a4b64:	8103      	strh	r3, [r0, #8]
 80a4b66:	2305      	movs	r3, #5
 80a4b68:	8143      	strh	r3, [r0, #10]
 80a4b6a:	230b      	movs	r3, #11
 80a4b6c:	8183      	strh	r3, [r0, #12]
 80a4b6e:	2201      	movs	r2, #1
 80a4b70:	2300      	movs	r3, #0
 80a4b72:	e9c0 2304 	strd	r2, r3, [r0, #16]
 80a4b76:	6ba3      	ldr	r3, [r4, #56]	; 0x38
 80a4b78:	2200      	movs	r2, #0
 80a4b7a:	611d      	str	r5, [r3, #16]
 80a4b7c:	615a      	str	r2, [r3, #20]
 80a4b7e:	bd38      	pop	{r3, r4, r5, pc}
 80a4b80:	20000078 	.word	0x20000078

080a4b84 <strdup>:
 80a4b84:	4b02      	ldr	r3, [pc, #8]	; (80a4b90 <strdup+0xc>)
 80a4b86:	4601      	mov	r1, r0
 80a4b88:	6818      	ldr	r0, [r3, #0]
 80a4b8a:	f000 b803 	b.w	80a4b94 <_strdup_r>
 80a4b8e:	bf00      	nop
 80a4b90:	20000078 	.word	0x20000078

080a4b94 <_strdup_r>:
 80a4b94:	b570      	push	{r4, r5, r6, lr}
 80a4b96:	4606      	mov	r6, r0
 80a4b98:	4608      	mov	r0, r1
 80a4b9a:	460c      	mov	r4, r1
 80a4b9c:	f000 f80d 	bl	80a4bba <strlen>
 80a4ba0:	1c45      	adds	r5, r0, #1
 80a4ba2:	4629      	mov	r1, r5
 80a4ba4:	4630      	mov	r0, r6
 80a4ba6:	f7fd fd99 	bl	80a26dc <_malloc_r>
 80a4baa:	4606      	mov	r6, r0
 80a4bac:	b118      	cbz	r0, 80a4bb6 <_strdup_r+0x22>
 80a4bae:	462a      	mov	r2, r5
 80a4bb0:	4621      	mov	r1, r4
 80a4bb2:	f7ff ffab 	bl	80a4b0c <memcpy>
 80a4bb6:	4630      	mov	r0, r6
 80a4bb8:	bd70      	pop	{r4, r5, r6, pc}

080a4bba <strlen>:
 80a4bba:	4603      	mov	r3, r0
 80a4bbc:	f813 2b01 	ldrb.w	r2, [r3], #1
 80a4bc0:	2a00      	cmp	r2, #0
 80a4bc2:	d1fb      	bne.n	80a4bbc <strlen+0x2>
 80a4bc4:	1a18      	subs	r0, r3, r0
 80a4bc6:	3801      	subs	r0, #1
 80a4bc8:	4770      	bx	lr

080a4bca <link_code_end>:
	...

080a4bcc <dynalib_user>:
 80a4bcc:	0021 080a 0061 080a 008d 080a 0091 080a     !...a...........
 80a4bdc:	0000 0000 01ff 0086 0000 0000 5479 6d65     ............yTem
 80a4bec:	6570 6172 7574 6572 3a20 0020 4320 4300     perature : . C.C
 80a4bfc:	324f 3a20 0020 7070 006d 6574 706d 6800     O2 : .ppm.temp.h
 80a4c0c:	6d75 6469 7469 0079 4f43 0032 7270 7365     umidity.CO2.pres
 80a4c1c:	6e65 6563 4800 6d75 6469 7469 2065 203a     ence.Humidite : 
 80a4c2c:	6400 7461 4561 7272 726f 6e00 7765 7453     .dataError.newSt
 80a4c3c:	7461 0065 6572 0064 6c62 6575 6c00 6769     ate.red.blue.lig
 80a4c4c:	7468 6c42 6575 6700 6572 6e65 4d00 746f     htBlue.green.Mot
 80a4c5c:	6f69 2d6e 6544 6574 7463 6f69 006e 6261     ion-Detection.ab
 80a4c6c:	6573 636e 0065 6564 6166 6c75 2074 4d00     sence.default .M
 80a4c7c:	4253 4c00 4253 3c00 5053 5349 7465 6974     SB.LSB.<SPISetti
 80a4c8c:	676e 2073 6564 6166 6c75 3e74 3c00 5053     ngs default>.<SP
 80a4c9c:	5349 7465 6974 676e 2073 7325 6c25 2075     ISettings %s%lu 
 80a4cac:	7325 4d20 444f 2545 3e64 0000               %s MODE%d>..

080a4cb8 <_ZTV12Adafruit_GFX>:
	...
 80a4cc8:	1259 080a 2901 080a 00a9 080a 0af5 080a     Y....)..........
 80a4cd8:	0aad 080a 0add 080a 0ab9 080a 0acb 080a     ................
 80a4ce8:	09ed 080a 0af5 080a 0cd3 080a 0cd1 080a     ................
 80a4cf8:	0af7 080a 0b35 080a 0b6f 080a 0bb5 080a     ....5...o.......
 80a4d08:	0bd1 080a 0c51 080a                         ....Q...

080a4d10 <_ZL4font>:
 80a4d10:	0000 0000 3e00 4f5b 3e5b 6b3e 6b4f 1c3e     .....>[O[>>kOk>.
 80a4d20:	7c3e 1c3e 3c18 3c7e 1c18 7d57 1c57 5e1c     >|>..<~<..W}W..^
 80a4d30:	5e7f 001c 3c18 0018 e7ff e7c3 00ff 2418     .^...<.........$
 80a4d40:	0018 e7ff e7db 30ff 3a48 0e06 2926 2979     .......0H:..&)y)
 80a4d50:	4026 057f 0705 7f40 2505 5a3f e73c 5a3c     &@....@..%?Z<.<Z
 80a4d60:	3e7f 1c1c 0808 1c1c 7f3e 2214 227f 5f14     .>......>.."."._
 80a4d70:	005f 5f5f 0906 017f 007f 8966 6a95 6060     _.__......f..j``
 80a4d80:	6060 9460 ffa2 94a2 0408 047e 1008 7e20     ```.......~... ~
 80a4d90:	1020 0808 1c2a 0808 2a1c 0808 101e 1010      ...*....*......
 80a4da0:	0c10 0c1e 0c1e 3830 383e 0630 3e0e 060e     ......08>80..>..
 80a4db0:	0000 0000 0000 5f00 0000 0700 0700 1400     ......._........
 80a4dc0:	147f 147f 2a24 2a7f 2312 0813 6264 4936     ....$*.*.#..db6I
 80a4dd0:	2056 0050 0708 0003 1c00 4122 0000 2241     V P......."A..A"
 80a4de0:	001c 1c2a 1c7f 082a 3e08 0808 8000 3070     ..*...*..>....p0
 80a4df0:	0800 0808 0808 0000 6060 2000 0810 0204     ........``. ....
 80a4e00:	513e 4549 003e 7f42 0040 4972 4949 2146     >QIE>.B.@.rIIIF!
 80a4e10:	4941 334d 1418 7f12 2710 4545 3945 4a3c     AIM3.....'EEE9<J
 80a4e20:	4949 4131 1121 0709 4936 4949 4636 4949     II1A!...6III6FII
 80a4e30:	1e29 0000 0014 0000 3440 0000 0800 2214     ).......@4....."
 80a4e40:	1441 1414 1414 4100 1422 0208 5901 0609     A......A"....Y..
 80a4e50:	413e 595d 7c4e 1112 7c12 497f 4949 3e36     >A]YN|...|.III6>
 80a4e60:	4141 2241 417f 4141 7f3e 4949 4149 097f     AAA".AAA>.IIIA..
 80a4e70:	0909 3e01 4141 7351 087f 0808 007f 7f41     ...>AAQs......A.
 80a4e80:	0041 4020 3f41 7f01 1408 4122 407f 4040     A. @A?...."A.@@@
 80a4e90:	7f40 1c02 7f02 047f 1008 3e7f 4141 3e41     @..........>AAA>
 80a4ea0:	097f 0909 3e06 5141 5e21 097f 2919 2646     .....>AQ!^...)F&
 80a4eb0:	4949 3249 0103 017f 3f03 4040 3f40 201f     III2.....?@@@?. 
 80a4ec0:	2040 3f1f 3840 3f40 1463 1408 0363 7804     @ .?@8@?c...c..x
 80a4ed0:	0304 5961 4d49 0043 417f 4141 0402 1008     ..aYIMC..AAA....
 80a4ee0:	0020 4141 7f41 0204 0201 4004 4040 4040      .AAA......@@@@@
 80a4ef0:	0300 0807 2000 5454 4078 287f 4444 3838     ..... TTx@.(DD88
 80a4f00:	4444 2844 4438 2844 387f 5454 1854 0800     DDD(8DD(.8TTT...
 80a4f10:	097e 1802 a4a4 789c 087f 0404 0078 7d44     ~......x....x.D}
 80a4f20:	0040 4020 3d40 7f00 2810 0044 4100 407f     @. @@=...(D..A.@
 80a4f30:	7c00 7804 7804 087c 0404 3878 4444 3844     .|.x.x|...x8DDD8
 80a4f40:	18fc 2424 1818 2424 fc18 087c 0404 4808     ..$$..$$..|....H
 80a4f50:	5454 2454 0404 443f 3c24 4040 7c20 201c     TTT$..?D$<@@ |. 
 80a4f60:	2040 3c1c 3040 3c40 2844 2810 4c44 9090     @ .<@0@<D(.(DL..
 80a4f70:	7c90 6444 4c54 0044 3608 0041 0000 0077     .|DdTLD..6A...w.
 80a4f80:	0000 3641 0008 0102 0402 3c02 2326 3c26     ..A6.......<&#&<
 80a4f90:	a11e 61a1 3a12 4040 7a20 5438 5554 2159     ...a.:@@ z8TTUY!
 80a4fa0:	5555 4179 5422 7854 2142 5455 4078 5420     UUyA"TTxB!UTx@ T
 80a4fb0:	7955 0c40 521e 1272 5539 5555 3959 5454     Uy@..Rr.9UUUY9TT
 80a4fc0:	5954 5539 5454 0058 4500 417c 0200 7d45     TY9UTTX..E|A..E}
 80a4fd0:	0042 4501 407c 127d 1211 f07d 2528 f028     B..E|@}...}.(%(.
 80a4fe0:	547c 4555 2000 5454 547c 0a7c 7f09 3249     |TUE. TT|T|...I2
 80a4ff0:	4949 3249 443a 4444 323a 484a 3048 413a     III2:DDD:2JHH0:A
 80a5000:	2141 3a7a 4042 7820 9d00 a0a0 3d7d 4242     A!z:B@ x....}=BB
 80a5010:	3d42 403d 4040 3c3d ff24 2424 7e48 4349     B==@@@=<$.$$H~IC
 80a5020:	2b66 fc2f 2b2f 09ff f629 c020 7e88 0309     f+/./+..). ..~..
 80a5030:	5420 7954 0041 4400 417d 4830 4a48 3832      TTyA..D}A0HHJ28
 80a5040:	4040 7a22 7a00 0a0a 7d72 190d 7d31 2926     @@"z.z..r}..1}&)
 80a5050:	2f29 2628 2929 2629 4830 404d 3820 0808     )/(&)))&0HM@ 8..
 80a5060:	0808 0808 0808 2f38 c810 baac 102f 3428     ......8/..../.(4
 80a5070:	00fa 7b00 0000 1408 142a 2222 2a14 0814     ...{....*."".*..
 80a5080:	0055 0055 aa55 aa55 aa55 55ff 55ff 00ff     U.U.U.U.U..U.U..
 80a5090:	0000 00ff 1010 ff10 1400 1414 00ff 1010     ................
 80a50a0:	00ff 10ff f010 f010 1414 fc14 1400 f714     ................
 80a50b0:	ff00 0000 00ff 14ff f414 fc04 1414 1017     ................
 80a50c0:	101f 1f10 1f10 1414 1f14 1000 1010 00f0     ................
 80a50d0:	0000 1f00 1010 1010 101f 1010 f010 0010     ................
 80a50e0:	0000 10ff 1010 1010 1010 1010 10ff 0000     ................
 80a50f0:	ff00 0014 ff00 ff00 0000 101f 0017 fc00     ................
 80a5100:	f404 1414 1017 1417 f414 f404 0000 00ff     ................
 80a5110:	14f7 1414 1414 1414 00f7 14f7 1414 1417     ................
 80a5120:	1010 101f 141f 1414 14f4 1010 10f0 00f0     ................
 80a5130:	1f00 1f10 0000 1f00 0014 0000 14fc 0000     ................
 80a5140:	10f0 10f0 ff10 ff10 1414 ff14 1014 1010     ................
 80a5150:	001f 0000 f000 ff10 ffff ffff f0f0 f0f0     ................
 80a5160:	fff0 ffff 0000 0000 ff00 0fff 0f0f 0f0f     ................
 80a5170:	4438 3844 fc44 4a4a 344a 027e 0602 0206     8DD8D.JJJ4~.....
 80a5180:	027e 027e 5563 4149 3863 4444 043c 7e40     ~.~.cUIAc8DD<.@~
 80a5190:	1e20 0620 7e02 0202 a599 a5e7 1c99 492a      . ..~........*I
 80a51a0:	1c2a 724c 7201 304c 4d4a 304d 4830 4878     *.Lr.rL0JMM00HxH
 80a51b0:	bc30 5a62 3d46 493e 4949 7e00 0101 7e01     0.bZF=>III.~...~
 80a51c0:	2a2a 2a2a 442a 5f44 4444 5140 444a 4040     *****DD_DD@QJD@@
 80a51d0:	4a44 4051 0000 01ff e003 ff80 0000 0808     DJQ@............
 80a51e0:	6b6b 3608 3612 3624 0f06 0f09 0006 1800     kk.6.6$6........
 80a51f0:	0018 0000 1010 3000 ff40 0101 1f00 0101     .......0@.......
 80a5200:	001e 1d19 1217 3c00 3c3c 003c 0000 0000     .......<<<<.....

080a5210 <_ZTV16OledWingAdafruit>:
	...
 80a5218:	1375 080a 1395 080a 1259 080a 2901 080a     u.......Y....)..
 80a5228:	1439 080a 0af5 080a 0aad 080a 0add 080a     9...............
 80a5238:	0ab9 080a 0acb 080a 09ed 080a 0af5 080a     ................
 80a5248:	0cd3 080a 15e3 080a 1bab 080a 1b5d 080a     ............]...
 80a5258:	0b6f 080a 0bb5 080a 0bd1 080a 0c51 080a     o...........Q...

080a5268 <_ZTVN8particle13__SPISettingsE>:
	...
 80a5270:	0991 080a                                   ....

080a5274 <_ZZN16Adafruit_SSD130621drawFastVLineInternalEssstE8postmask>:
 80a5274:	0100 0703 1f0f 7f3f                         ......?.

080a527c <_ZZN16Adafruit_SSD13065beginEhhbbE6init4c>:
 80a527c:	02da da81                                        ...

080a527f <_ZZN16Adafruit_SSD13065beginEhhbbE6init4a>:
 80a527f:	02da 8f81                                   ....

080a5283 <_ZZN16Adafruit_SSD13065beginEhhbbE6init4b>:
 80a5283:	12da ae81                                        ...

080a5286 <_ZZN16Adafruit_SSD13065beginEhhbbE5init1>:
 80a5286:	d5ae a880                                   ....

080a528a <_ZZN16Adafruit_SSD13065beginEhhbbE5init2>:
 80a528a:	00d3 8d40                                   ..@.

080a528e <_ZZN16Adafruit_SSD13065beginEhhbbE5init3>:
 80a528e:	0020 c8a1                                    ...

080a5292 <_ZZN16Adafruit_SSD13065beginEhhbbE5init5>:
 80a5292:	40db a6a4 af2e                              .@....

080a5298 <_ZZN16Adafruit_SSD130621drawFastVLineInternalEssstE7premask>:
 80a5298:	8000 e0c0 f8f0 fefc                         ........

080a52a0 <_ZZN16Adafruit_SSD13067displayEvE6dlist1>:
 80a52a0:	0022 21ff 0000 0000                         "..!....

080a52a8 <_ZTV16Adafruit_SSD1306>:
	...
 80a52b0:	140d 080a 1425 080a 1259 080a 2901 080a     ....%...Y....)..
 80a52c0:	1439 080a 0af5 080a 0aad 080a 0add 080a     9...............
 80a52d0:	0ab9 080a 0acb 080a 09ed 080a 0af5 080a     ................
 80a52e0:	0cd3 080a 15e3 080a 1bab 080a 1b5d 080a     ............]...
 80a52f0:	0b6f 080a 0bb5 080a 0bd1 080a 0c51 080a     o...........Q...

080a5300 <_ZL12splash1_data>:
 80a5300:	0000 0000 0100 0080 0000 0000 0000 0000     ................
 80a5310:	8003 0000 0000 0000 0000 0700 00c0 0000     ................
 80a5320:	0000 0000 0000 c007 0000 0000 0000 0000     ................
 80a5330:	0f00 00c0 0000 0000 0000 0000 e01f 0000     ................
 80a5340:	0000 0000 0000 1f00 00e0 0000 0000 0000     ................
 80a5350:	0000 e03f 0000 0000 0000 0000 3f00 00f0     ..?..........?..
	...
 80a5368:	f07f 0000 0000 0000 1f00 7ff8 00f0 0000     ................
 80a5378:	0000 0000 fe3f f07f 0000 0000 0000 3f00     ....?..........?
 80a5388:	7fff 00f0 0000 0000 0000 ff1f e0fb 0000     ................
 80a5398:	0000 0000 0f00 f9ff c0ff 0000 0000 0000     ................
 80a53a8:	ff0f fff9 00f8 0000 0000 0700 f1ff ffff     ................
 80a53b8:	0000 0000 0000 fc03 ff73 80ff 0000 0000     ........s.......
 80a53c8:	0100 3ffe ffff 0080 0000 0000 ff00 0f1e     ...?............
 80a53d8:	00ff 0000 0000 0000 fe7f fc1f 0000 0000     ................
 80a53e8:	0000 3f00 ffff 00f8 0000 0000 0000 df0f     ...?............
 80a53f8:	e0ff 0000 0000 0000 1f00 ff19 00c0 0000     ................
 80a5408:	0000 0000 3c3f 00ff 0000 0000 0000 7e00     ....?<.........~
 80a5418:	f87c 0000 0000 0000 0000 fe7f 007c 0000     |...........|...
 80a5428:	0000 0000 ff00 fcff 0000 0000 0000 0000     ................
 80a5438:	ffff 00fe 0000 0000 0000 ff00 feff 0000     ................
 80a5448:	0000 0000 0100 efff 00fe 0000 0000 0000     ................
 80a5458:	ff01 fecf 0000 0000 0000 0300 07ff 00fe     ................
 80a5468:	0000 0000 0000 fc03 fe07 0000 0000 0000     ................
 80a5478:	0300 03f0 00fe 0000 0000 0000 8001 fe00     ................
	...
 80a5490:	0000 007e 0000 0000 0000 0000 3e00 0000     ..~..........>..
	...
 80a54a8:	000c 0000 0000 0700 0080 00fc 0300 00c0     ................
 80a54b8:	0000 8007 fc01 0000 c003 0000 0700 0180     ................
 80a54c8:	00fc 0300 00c0 0000 8007 e001 0000 1e00     ................
 80a54d8:	0000 0700 0180 00e0 0000 001e e37f 9ff7     ................
 80a54e8:	fdf9 78e7 df7b ffc0 fff7 fdbf fffd 7b78     ...x{.........x{
 80a54f8:	c0df f7ff bfff fdfd 78ff df7b f0c0 87f7     .........x{.....
 80a5508:	3dbc ffe1 7b78 00de f7f0 bc87 e13d 78f0     .=..x{......=..x
 80a5518:	de7b 0000 87f7 3d80 e0e1 7b78 00de f77f     {......=..x{....
 80a5528:	9f87 e1fd 78e0 de7b ff00 87f7 fdbf e0e1     .....x{.........
 80a5538:	7b78 00de f7f0 bc87 e13d 78e0 de7b f000     x{......=..x{...
 80a5548:	87f7 3dbc e0e1 7b78 00de f7f0 bc87 e13d     ...=..x{......=.
 80a5558:	78e0 de7b ff00 fff7 fdbf e0e1 fb7f c0df     .x{.............
 80a5568:	f7ff bfff e1fd 7fe0 dffb 7cc0 f3f3 3d9f     ...........|...=
 80a5578:	e0e1 7b3e c0cf 0000 0000 0000 0000 0000     ..>{............
 80a5588:	ff00 ffff ffff ffff ffff c0ff ffff ffff     ................
 80a5598:	68fd 11db 311a ffc0 ffff fdff 5a2b 6afb     .h...1......+Z.j
 80a55a8:	c0ef ffff ffff 4bfd 3b5b 331a ffc0 ffff     .......K[;.3....
 80a55b8:	fdff 5b6b 6adb c0fd                         ..k[.j..

080a55c0 <_ZL12splash2_data>:
 80a55c0:	0000 0060 0000 0000 0000 0000 0000 0000     ..`.............
 80a55d0:	e000 0000 0000 0000 0000 0000 0000 0100     ................
 80a55e0:	00e0 0000 0000 0000 0000 0000 0000 f001     ................
	...
 80a55fc:	0300 00f0 0000 0000 0000 0000 0000 0000     ................
 80a560c:	f007 0000 0000 0000 0000 0000 0000 0700     ................
 80a561c:	00f8 0000 0000 0000 0000 0000 0000 f80f     ................
 80a562c:	0000 0300 00c0 007e 0100 00e0 0f7f 00f8     ......~.........
 80a563c:	0000 c003 fe00 0000 e001 ff00 f8ef 0000     ................
 80a564c:	0300 00c0 00fe 0100 00e0 ffff 00f8 0000     ................
 80a565c:	c003 f000 0000 0f00 7f00 7ffe 00c0 0300     ................
 80a566c:	00c0 00f0 0000 000f fe3f f87f f13f cffb     ........?...?...
 80a567c:	fefc bcf3 ef3d 1fe0 7ffe 7fff fffb fedf     ....=...........
 80a568c:	fffe 3dbc e0ef c61f ffff fb7f dfff fefe     ...=............
 80a569c:	bcff ef3d 0fe0 c7e3 78fe c37b 1ede fff0     ..=......x{.....
 80a56ac:	3dbc 00ef ff07 fc87 7b78 dec3 f01e 3cf8     .=......x{.....<
 80a56bc:	ef3d 0100 ffff 00f0 c37b 1ec0 f0f0 3d3c     =.......{.....<=
 80a56cc:	00ef f301 e07f fb3f cfc3 f0fe 3cf0 ef3d     ......?......<=.
 80a56dc:	0300 3fe3 7f80 c3fb fedf f0f0 3d3c 00ef     ...?........<=..
 80a56ec:	e707 003c 7b78 dec3 f01e 3cf0 ef3d 0700     ..<.x{.....<=...
 80a56fc:	beff 7800 c37b 1ede f0f0 3d3c 00ef ff07     ...x{.....<=....
 80a570c:	00fe 7b78 dec3 f01e 3cf0 ef3d 0f00 feff     ..x{.....<=.....
 80a571c:	7f00 fffb fedf f0f0 fd3f e0ef ff0f 00ff     ........?.......
 80a572c:	fb7f dfff f0fe 3ff0 effd 0fe0 fff9 3e00     .......?.......>
 80a573c:	f979 9ecf f0f0 3d1f e0e7 f11f 00ff 0000     y......=........
	...
 80a5754:	1f00 ff80 7f00 ffff ffff ffff ffff e0ff     ................
 80a5764:	001c 007f ff7f ffff b4fe 886d 188d 00e0     ..........m.....
 80a5774:	1f00 7f00 ffff feff ad95 b57d e077 0000     ..........}.w...
 80a5784:	000f ff7f ffff a5fe 9dad 198d 00e0 0600     ................
 80a5794:	7f00 ffff feff adb5 b5ed e07e               ..........~.

080a57a0 <_ZTV8SPIClass>:
	...
 80a57a8:	26ed 080a 2705 080a                         .&...'..

080a57b0 <_ZN12_GLOBAL__N_1L14clock_divisorsE>:
 80a57b0:	0800 1810 2820 3830 616e 006e 766f 0066     .... (08nan.ovf.
 80a57c0:	002e 6e69 0066 6162 6475 5300 7265 6169     ..inf.baud.Seria
 80a57d0:	006c 5355 5342 7265 6169 316c 7400 7079     l.USBSerial1.typ
 80a57e0:	0065 6170 6172 006d 6d63 0064 6469 6800     e.param.cmd.id.h
 80a57f0:	646e 7300 7274 006d 6966 746c 6c00 6c76     nd.strm.filt.lvl
 80a5800:	6100 6464 6148 646e 656c 0072 6572 6f6d     .addHandler.remo
 80a5810:	6576 6148 646e 656c 0072 6e65 6d75 6148     veHandler.enumHa
 80a5820:	646e 656c 7372 4a00 4f53 534e 7274 6165     ndlers.JSONStrea
 80a5830:	4c6d 676f 6148 646e 656c 0072 7061 0070     mLogHandler.app.
 80a5840:	3025 3031 2075 5d00 0020 6425 2c00 0020     %010u .] .%d., .
 80a5850:	2928 203a 2000 005b 6f63 6564 3d20 0020     (): . [.code = .
 80a5860:	6925 6400 7465 6961 736c 3d20 0020 0a0d     %i.details = ...
 80a5870:	6c00 006e 6e66 6300 646f 0065 6564 6174     .ln.fn.code.deta
 80a5880:	6c69 6e00 6e6f 0065 7274 6361 0065 6e69     il.none.trace.in
 80a5890:	6f66 7700 7261 006e 7265 6f72 0072 6170     fo.warn.error.pa
 80a58a0:	696e 0063 6c61 006c 005a 2b25 3330 3a64     nic.all.Z.%+03d:
 80a58b0:	3025 7532 2500 2d59 6d25 252d 5464 4825     %02u.%Y-%m-%dT%H
 80a58c0:	253a 3a4d 5325 7a25 6100 6373 6974 656d     :%M:%S%z.asctime
 80a58d0:	0000 0000                                   ....

080a58d4 <_ZTVSt15_Sp_counted_ptrIPN8particle6detail10FutureImplIbNS1_13FutureContextEEELN9__gnu_cxx12_Lock_policyE0EE>:
	...
 80a58dc:	2da5 080a 2dab 080a 2def 080a 2db9 080a     .-...-...-...-..
 80a58ec:	2da7 080a                                   .-..

080a58f0 <_ZTV9IPAddress>:
	...
 80a58f8:	333d 080a 332d 080a 332f 080a               =3..-3../3..

080a5904 <_ZTV9USBSerial>:
	...
 80a590c:	33f9 080a 3449 080a 3457 080a 2901 080a     .3..I4..W4...)..
 80a591c:	3435 080a 33fb 080a 3411 080a 3443 080a     54...3...4..C4..
 80a592c:	3427 080a 33f5 080a                         '4...3..

080a5934 <_ZTV11USARTSerial>:
	...
 80a593c:	3695 080a 36e5 080a 36f3 080a 2901 080a     .6...6...6...)..
 80a594c:	36a9 080a 36cb 080a 36b7 080a 36df 080a     .6...6...6...6..
 80a595c:	3697 080a 369b 080a                         .6...6..

080a5964 <_ZTV7TwoWire>:
	...
 80a596c:	37cd 080a 3817 080a 37ef 080a 37cf 080a     .7...8...7...7..
 80a597c:	37f7 080a 37ff 080a 3807 080a 380f 080a     .7...7...8...8..

080a598c <_ZTVN5spark9WiFiClassE>:
	...
 80a5994:	3917 080a 390d 080a 3903 080a 3881 080a     .9...9...9...8..
 80a59a4:	2bcf 080a 38f7 080a 38eb 080a 38e3 080a     .+...8...8...8..
 80a59b4:	38d9 080a 38cf 080a 388b 080a               .8...8...8..

080a59c0 <_ZTVN5spark12NetworkClassE>:
	...
 80a59c8:	3935 080a 393f 080a 3949 080a 3953 080a     59..?9..I9..S9..
 80a59d8:	395d 080a 3969 080a 3975 080a 3981 080a     ]9..i9..u9...9..
 80a59e8:	3989 080a 3993 080a 399d 080a               .9...9...9..

080a59f4 <_ZSt7nothrow>:
 80a59f4:	0000 0000                                   ....

080a59f8 <__sf_fake_stdin>:
	...

080a5a18 <__sf_fake_stdout>:
	...

080a5a38 <__sf_fake_stderr>:
	...

080a5a58 <link_const_variable_data_end>:
 80a5a58:	080a0519 	.word	0x080a0519
 80a5a5c:	080a09e9 	.word	0x080a09e9
 80a5a60:	080a136f 	.word	0x080a136f
 80a5a64:	080a1405 	.word	0x080a1405
 80a5a68:	080a1409 	.word	0x080a1409
 80a5a6c:	080a1d29 	.word	0x080a1d29
 80a5a70:	080a21bd 	.word	0x080a21bd
 80a5a74:	080a28cd 	.word	0x080a28cd
 80a5a78:	080a2be9 	.word	0x080a2be9
 80a5a7c:	080a2bf9 	.word	0x080a2bf9
 80a5a80:	080a2c51 	.word	0x080a2c51
 80a5a84:	080a3921 	.word	0x080a3921
 80a5a88:	080a39ed 	.word	0x080a39ed
 80a5a8c:	080a3b4d 	.word	0x080a3b4d
 80a5a90:	080a3c45 	.word	0x080a3c45
 80a5a94:	080a3cc9 	.word	0x080a3cc9
 80a5a98:	080a3d8d 	.word	0x080a3d8d
 80a5a9c:	080a3e51 	.word	0x080a3e51
